TN:
SF:/Applications/Xcode.app/Contents/Developer/Platforms/MacOSX.platform/Developer/SDKs/MacOSX.sdk/usr/include/_ctype.h
FN:135,_Z7isasciii
FN:153,_Z8__istypeim
FN:267,_Z7isspacei
FN:292,_Z7toloweri
FNDA:115618,_Z7toloweri
FNDA:1731,_Z7isasciii
FNDA:1731,_Z7isspacei
FNDA:1731,_Z8__istypeim
FNF:4
FNH:4
DA:135,1731
DA:137,1731
DA:153,1731
DA:158,1731
DA:159,0
DA:267,1731
DA:269,1731
DA:292,115618
DA:294,115618
LF:9
LH:8
end_of_record
TN:
SF:/Applications/Xcode.app/Contents/Developer/Platforms/MacOSX.platform/Developer/SDKs/MacOSX.sdk/usr/include/math.h
FN:193,__inline_isfinited
FNDA:76275,__inline_isfinited
FNF:1
FNH:1
DA:193,76275
DA:194,76275
LF:2
LH:2
end_of_record
TN:
SF:/Applications/Xcode.app/Contents/Developer/Toolchains/XcodeDefault.xctoolchain/usr/include/c++/v1/__locale
FN:224,_ZNSt3__1L9has_facetINS_7codecvtIcc11__mbstate_tEEEEbRKNS_6localeE
FN:232,_ZNSt3__1L9use_facetINS_5ctypeIcEEEERKT_RKNS_6localeE
FN:232,_ZNSt3__1L9use_facetINS_7codecvtIcc11__mbstate_tEEEERKT_RKNS_6localeE
FN:647,_ZNKSt3__15ctypeIcE5widenEc
FN:882,_ZNKSt3__17codecvtIcc11__mbstate_tE3outERS1_PKcS5_RS5_PcS7_RS7_
FN:890,_ZNKSt3__17codecvtIcc11__mbstate_tE7unshiftERS1_PcS4_RS4_
FN:897,_ZNKSt3__17codecvtIcc11__mbstate_tE2inERS1_PKcS5_RS5_PcS7_RS7_
FN:905,_ZNKSt3__17codecvtIcc11__mbstate_tE8encodingEv
FN:911,_ZNKSt3__17codecvtIcc11__mbstate_tE13always_noconvEv
FN:917,_ZNKSt3__17codecvtIcc11__mbstate_tE6lengthERS1_PKcS5_m
FNDA:1656179,_ZNSt3__1L9use_facetINS_5ctypeIcEEEERKT_RKNS_6localeE
FNDA:0,_ZNKSt3__17codecvtIcc11__mbstate_tE2inERS1_PKcS5_RS5_PcS7_RS7_
FNDA:0,_ZNKSt3__17codecvtIcc11__mbstate_tE6lengthERS1_PKcS5_m
FNDA:1656179,_ZNKSt3__15ctypeIcE5widenEc
FNDA:0,_ZNKSt3__17codecvtIcc11__mbstate_tE3outERS1_PKcS5_RS5_PcS7_RS7_
FNDA:258,_ZNSt3__1L9has_facetINS_7codecvtIcc11__mbstate_tEEEEbRKNS_6localeE
FNDA:1653275,_ZNKSt3__17codecvtIcc11__mbstate_tE7unshiftERS1_PcS4_RS4_
FNDA:0,_ZNKSt3__17codecvtIcc11__mbstate_tE8encodingEv
FNDA:258,_ZNSt3__1L9use_facetINS_7codecvtIcc11__mbstate_tEEEERKT_RKNS_6localeE
FNDA:258,_ZNKSt3__17codecvtIcc11__mbstate_tE13always_noconvEv
FNF:10
FNH:6
DA:224,258
DA:226,258
DA:227,0
DA:232,1656437
DA:234,1656437
DA:647,1656179
DA:649,1656179
DA:882,0
DA:886,0
DA:890,1653275
DA:893,1653275
DA:897,0
DA:901,0
DA:905,0
DA:907,0
DA:911,258
DA:913,258
DA:917,0
DA:919,0
LF:19
LH:10
end_of_record
TN:
SF:/Applications/Xcode.app/Contents/Developer/Toolchains/XcodeDefault.xctoolchain/usr/include/c++/v1/__nullptr
FN:31,_ZNSt3__19nullptr_tC2EMNS0_5__natEi
FN:31,_ZNSt3__19nullptr_tC1EMNS0_5__natEi
FN:37,_ZNKSt3__19nullptr_tcvPT_I8dd_entryEEv
FN:37,_ZNKSt3__19nullptr_tcvPT_INS_16__list_node_baseI15Boundary_cornerPvEEEEv
FN:37,_ZNKSt3__19nullptr_tcvPT_I9Ein_entryEEv
FN:37,_ZNKSt3__19nullptr_tcvPT_INS_12basic_stringIcNS_11char_traitsIcEENS_9allocatorIcEEEEEEv
FN:37,_ZNKSt3__19nullptr_tcvPT_INS_16__list_node_baseI11coef_vectorPvEEEEv
FN:37,_ZNKSt3__19nullptr_tcvPT_INS_16__list_node_baseI15Vcm_quadBox_HitPvEEEEv
FN:37,_ZNKSt3__19nullptr_tcvPT_INS_16__list_node_baseI13min_Eout_infoPvEEEEv
FN:37,_ZNKSt3__19nullptr_tcvPT_INS_16__list_node_baseI12Eprob_vectorPvEEEEv
FN:37,_ZNKSt3__19nullptr_tcvPT_INS_16__list_node_baseI6one_muPvEEEEv
FN:37,_ZNKSt3__19nullptr_tcvPT_INS_16__list_node_baseI24standard_Legendre_vectorPvEEEEv
FN:37,_ZNKSt3__19nullptr_tcvPT_INS_16__list_node_baseIN4cmDD8one_EoutEPvEEEEv
FN:37,_ZNKSt3__19nullptr_tcvPT_IcEEv
FN:37,_ZNKSt3__19nullptr_tcvPT_IKNS_7codecvtIcc11__mbstate_tEEEEv
FN:37,_ZNKSt3__19nullptr_tcvPT_INS_16__list_node_baseIN6quad_F12one_intervalEPvEEEEv
FN:37,_ZNKSt3__19nullptr_tcvPT_INS_16__list_node_baseI14one_joint_distPvEEEEv
FN:37,_ZNKSt3__19nullptr_tcvPT_IdEEv
FN:37,_ZNKSt3__19nullptr_tcvPT_I11Ein_entriesEEv
FN:37,_ZNKSt3__19nullptr_tcvPT_INS_16__list_node_baseI15Kalbach_one_EinPvEEEEv
FN:37,_ZNKSt3__19nullptr_tcvPT_I11Ein_Eta_HitEEv
FN:37,_ZNKSt3__19nullptr_tcvPT_INS_16__list_node_baseIdPvEEEEv
FN:37,_ZNKSt3__19nullptr_tcvPT_INS_16__list_node_baseI14Legendre_coefsPvEEEEv
FN:37,_ZNKSt3__19nullptr_tcvPT_IKcEEv
FN:37,_ZNKSt3__19nullptr_tcvPT_INS_16__list_node_baseIN4cmDD14one_joint_distEPvEEEEv
FN:37,_ZNKSt3__19nullptr_tcvPT_INS_16__list_node_baseI13weight_vectorPvEEEEv
FN:37,_ZNKSt3__19nullptr_tcvPT_INS_16__list_node_baseI11Ein_Eta_HitPvEEEEv
FN:37,_ZNKSt3__19nullptr_tcvPT_INS_16__list_node_baseI9dd_vectorPvEEEEv
FN:37,_ZNKSt3__19nullptr_tcvPT_INS_15basic_streambufIcNS_11char_traitsIcEEEEEEv
FN:37,_ZNKSt3__19nullptr_tcvPT_INS_16__list_node_baseI7ss_linkPvEEEEv
FN:37,_ZNKSt3__19nullptr_tcvPT_INS_16__list_node_baseI21cumulative_prob_entryPvEEEEv
FN:37,_ZNKSt3__19nullptr_tcvPT_INS_16__list_node_baseI18cm_Legendre_vectorPvEEEEv
FN:47,_ZNSt3__1L15__get_nullptr_tEv
FNDA:8124,_ZNKSt3__19nullptr_tcvPT_INS_16__list_node_baseI13weight_vectorPvEEEEv
FNDA:54,_ZNKSt3__19nullptr_tcvPT_INS_16__list_node_baseIN4cmDD14one_joint_distEPvEEEEv
FNDA:370709042,_ZNKSt3__19nullptr_tcvPT_INS_16__list_node_baseI11Ein_Eta_HitPvEEEEv
FNDA:629675,_ZNKSt3__19nullptr_tcvPT_INS_16__list_node_baseI14Legendre_coefsPvEEEEv
FNDA:2500266885,_ZNSt3__19nullptr_tC2EMNS0_5__natEi
FNDA:2500266885,_ZNSt3__19nullptr_tC1EMNS0_5__natEi
FNDA:0,_ZNKSt3__19nullptr_tcvPT_IKcEEv
FNDA:1503845460,_ZNKSt3__19nullptr_tcvPT_I11Ein_Eta_HitEEv
FNDA:19686,_ZNKSt3__19nullptr_tcvPT_INS_16__list_node_baseIdPvEEEEv
FNDA:606,_ZNKSt3__19nullptr_tcvPT_INS_16__list_node_baseI15Kalbach_one_EinPvEEEEv
FNDA:11693,_ZNKSt3__19nullptr_tcvPT_INS_16__list_node_baseI21cumulative_prob_entryPvEEEEv
FNDA:423,_ZNKSt3__19nullptr_tcvPT_INS_16__list_node_baseI18cm_Legendre_vectorPvEEEEv
FNDA:7788,_ZNKSt3__19nullptr_tcvPT_INS_16__list_node_baseI7ss_linkPvEEEEv
FNDA:2321,_ZNKSt3__19nullptr_tcvPT_INS_16__list_node_baseI9dd_vectorPvEEEEv
FNDA:6248813,_ZNKSt3__19nullptr_tcvPT_INS_15basic_streambufIcNS_11char_traitsIcEEEEEEv
FNDA:50748,_ZNKSt3__19nullptr_tcvPT_INS_16__list_node_baseI13min_Eout_infoPvEEEEv
FNDA:543,_ZNKSt3__19nullptr_tcvPT_INS_16__list_node_baseI12Eprob_vectorPvEEEEv
FNDA:344,_ZNKSt3__19nullptr_tcvPT_INS_12basic_stringIcNS_11char_traitsIcEENS_9allocatorIcEEEEEEv
FNDA:388,_ZNKSt3__19nullptr_tcvPT_INS_16__list_node_baseI11coef_vectorPvEEEEv
FNDA:21613086,_ZNKSt3__19nullptr_tcvPT_INS_16__list_node_baseI15Vcm_quadBox_HitPvEEEEv
FNDA:50496,_ZNKSt3__19nullptr_tcvPT_INS_16__list_node_baseI15Boundary_cornerPvEEEEv
FNDA:0,_ZNKSt3__19nullptr_tcvPT_I9Ein_entryEEv
FNDA:2500266885,_ZNSt3__1L15__get_nullptr_tEv
FNDA:75029,_ZNKSt3__19nullptr_tcvPT_I8dd_entryEEv
FNDA:0,_ZNKSt3__19nullptr_tcvPT_I11Ein_entriesEEv
FNDA:120404259,_ZNKSt3__19nullptr_tcvPT_INS_16__list_node_baseIN6quad_F12one_intervalEPvEEEEv
FNDA:258,_ZNKSt3__19nullptr_tcvPT_IKNS_7codecvtIcc11__mbstate_tEEEEv
FNDA:471,_ZNKSt3__19nullptr_tcvPT_INS_16__list_node_baseI14one_joint_distPvEEEEv
FNDA:445822352,_ZNKSt3__19nullptr_tcvPT_IdEEv
FNDA:0,_ZNKSt3__19nullptr_tcvPT_IcEEv
FNDA:1990,_ZNKSt3__19nullptr_tcvPT_INS_16__list_node_baseI6one_muPvEEEEv
FNDA:1060,_ZNKSt3__19nullptr_tcvPT_INS_16__list_node_baseI24standard_Legendre_vectorPvEEEEv
FNDA:30762176,_ZNKSt3__19nullptr_tcvPT_INS_16__list_node_baseIN4cmDD8one_EoutEPvEEEEv
FNF:33
FNH:29
DA:31,5000533770
DA:37,2500266885
DA:47,2500266885
LF:3
LH:3
end_of_record
TN:
SF:/Applications/Xcode.app/Contents/Developer/Toolchains/XcodeDefault.xctoolchain/usr/include/c++/v1/__split_buffer
FN:56,_ZNSt3__114__split_bufferI11Ein_Eta_HitRNS_9allocatorIS1_EEE7__allocEv
FN:56,_ZNSt3__114__split_bufferI8dd_entryRNS_9allocatorIS1_EEE7__allocEv
FN:56,_ZNSt3__114__split_bufferI11Ein_entriesRNS_9allocatorIS1_EEE7__allocEv
FN:56,_ZNSt3__114__split_bufferIdRNS_9allocatorIdEEE7__allocEv
FN:56,_ZNSt3__114__split_bufferI9Ein_entryRNS_9allocatorIS1_EEE7__allocEv
FN:58,_ZNSt3__114__split_bufferIdRNS_9allocatorIdEEE9__end_capEv
FN:58,_ZNSt3__114__split_bufferI11Ein_Eta_HitRNS_9allocatorIS1_EEE9__end_capEv
FN:58,_ZNSt3__114__split_bufferI11Ein_entriesRNS_9allocatorIS1_EEE9__end_capEv
FN:58,_ZNSt3__114__split_bufferI9Ein_entryRNS_9allocatorIS1_EEE9__end_capEv
FN:58,_ZNSt3__114__split_bufferI8dd_entryRNS_9allocatorIS1_EEE9__end_capEv
FN:59,_ZNKSt3__114__split_bufferI9Ein_entryRNS_9allocatorIS1_EEE9__end_capEv
FN:59,_ZNKSt3__114__split_bufferI11Ein_Eta_HitRNS_9allocatorIS1_EEE9__end_capEv
FN:59,_ZNKSt3__114__split_bufferI11Ein_entriesRNS_9allocatorIS1_EEE9__end_capEv
FN:59,_ZNKSt3__114__split_bufferI8dd_entryRNS_9allocatorIS1_EEE9__end_capEv
FN:59,_ZNKSt3__114__split_bufferIdRNS_9allocatorIdEEE9__end_capEv
FN:87,_ZNSt3__114__split_bufferIdRNS_9allocatorIdEEE5clearEv
FN:87,_ZNSt3__114__split_bufferI8dd_entryRNS_9allocatorIS1_EEE5clearEv
FN:87,_ZNSt3__114__split_bufferI9Ein_entryRNS_9allocatorIS1_EEE5clearEv
FN:87,_ZNSt3__114__split_bufferI11Ein_Eta_HitRNS_9allocatorIS1_EEE5clearEv
FN:87,_ZNSt3__114__split_bufferI11Ein_entriesRNS_9allocatorIS1_EEE5clearEv
FN:91,_ZNKSt3__114__split_bufferI8dd_entryRNS_9allocatorIS1_EEE8capacityEv
FN:91,_ZNKSt3__114__split_bufferIdRNS_9allocatorIdEEE8capacityEv
FN:91,_ZNKSt3__114__split_bufferI9Ein_entryRNS_9allocatorIS1_EEE8capacityEv
FN:91,_ZNKSt3__114__split_bufferI11Ein_entriesRNS_9allocatorIS1_EEE8capacityEv
FN:91,_ZNKSt3__114__split_bufferI11Ein_Eta_HitRNS_9allocatorIS1_EEE8capacityEv
FN:140,_ZNSt3__114__split_bufferI11Ein_Eta_HitRNS_9allocatorIS1_EEE17__destruct_at_endEPS1_
FN:140,_ZNSt3__114__split_bufferI9Ein_entryRNS_9allocatorIS1_EEE17__destruct_at_endEPS1_
FN:140,_ZNSt3__114__split_bufferI8dd_entryRNS_9allocatorIS1_EEE17__destruct_at_endEPS1_
FN:140,_ZNSt3__114__split_bufferI11Ein_entriesRNS_9allocatorIS1_EEE17__destruct_at_endEPS1_
FN:140,_ZNSt3__114__split_bufferIdRNS_9allocatorIdEEE17__destruct_at_endEPd
FN:263,_ZNSt3__114__split_bufferI8dd_entryRNS_9allocatorIS1_EEE18__construct_at_endINS_13move_iteratorIPS1_EEEENS_9enable_ifIXsr21__is_forward_iteratorIT_EE5valueEvE4typeESB_SB_
FN:293,_ZNSt3__114__split_bufferIdRNS_9allocatorIdEEE17__destruct_at_endEPdNS_17integral_constantIbLb0EEE
FN:293,_ZNSt3__114__split_bufferI8dd_entryRNS_9allocatorIS1_EEE17__destruct_at_endEPS1_NS_17integral_constantIbLb0EEE
FN:293,_ZNSt3__114__split_bufferI9Ein_entryRNS_9allocatorIS1_EEE17__destruct_at_endEPS1_NS_17integral_constantIbLb0EEE
FN:293,_ZNSt3__114__split_bufferI11Ein_Eta_HitRNS_9allocatorIS1_EEE17__destruct_at_endEPS1_NS_17integral_constantIbLb0EEE
FN:293,_ZNSt3__114__split_bufferI11Ein_entriesRNS_9allocatorIS1_EEE17__destruct_at_endEPS1_NS_17integral_constantIbLb0EEE
FN:308,_ZNSt3__114__split_bufferI8dd_entryRNS_9allocatorIS1_EEEC2EmmS4_
FN:308,_ZNSt3__114__split_bufferI9Ein_entryRNS_9allocatorIS1_EEEC2EmmS4_
FN:308,_ZNSt3__114__split_bufferIdRNS_9allocatorIdEEEC1EmmS3_
FN:308,_ZNSt3__114__split_bufferI11Ein_Eta_HitRNS_9allocatorIS1_EEEC1EmmS4_
FN:308,_ZNSt3__114__split_bufferIdRNS_9allocatorIdEEEC2EmmS3_
FN:308,_ZNSt3__114__split_bufferI11Ein_Eta_HitRNS_9allocatorIS1_EEEC2EmmS4_
FN:308,_ZNSt3__114__split_bufferI11Ein_entriesRNS_9allocatorIS1_EEEC2EmmS4_
FN:308,_ZNSt3__114__split_bufferI9Ein_entryRNS_9allocatorIS1_EEEC1EmmS4_
FN:308,_ZNSt3__114__split_bufferI11Ein_entriesRNS_9allocatorIS1_EEEC1EmmS4_
FN:308,_ZNSt3__114__split_bufferI8dd_entryRNS_9allocatorIS1_EEEC1EmmS4_
FN:339,_ZNSt3__114__split_bufferI9Ein_entryRNS_9allocatorIS1_EEED2Ev
FN:339,_ZNSt3__114__split_bufferI9Ein_entryRNS_9allocatorIS1_EEED1Ev
FN:339,_ZNSt3__114__split_bufferI8dd_entryRNS_9allocatorIS1_EEED2Ev
FN:339,_ZNSt3__114__split_bufferI11Ein_entriesRNS_9allocatorIS1_EEED1Ev
FN:339,_ZNSt3__114__split_bufferI11Ein_Eta_HitRNS_9allocatorIS1_EEED2Ev
FN:339,_ZNSt3__114__split_bufferI8dd_entryRNS_9allocatorIS1_EEED1Ev
FN:339,_ZNSt3__114__split_bufferI11Ein_entriesRNS_9allocatorIS1_EEED2Ev
FN:339,_ZNSt3__114__split_bufferI11Ein_Eta_HitRNS_9allocatorIS1_EEED1Ev
FN:339,_ZNSt3__114__split_bufferIdRNS_9allocatorIdEEED2Ev
FN:339,_ZNSt3__114__split_bufferIdRNS_9allocatorIdEEED1Ev
FN:532,_ZNSt3__114__split_bufferI8dd_entryRNS_9allocatorIS1_EEE9push_backERKS1_
FNDA:106003959,_ZNKSt3__114__split_bufferIdRNS_9allocatorIdEEE9__end_capEv
FNDA:291351060,_ZNSt3__114__split_bufferI11Ein_Eta_HitRNS_9allocatorIS1_EEE17__destruct_at_endEPS1_NS_17integral_constantIbLb0EEE
FNDA:209958,_ZNKSt3__114__split_bufferI11Ein_Eta_HitRNS_9allocatorIS1_EEE8capacityEv
FNDA:0,_ZNSt3__114__split_bufferI9Ein_entryRNS_9allocatorIS1_EEE9__end_capEv
FNDA:0,_ZNSt3__114__split_bufferI11Ein_entriesRNS_9allocatorIS1_EEE9__end_capEv
FNDA:0,_ZNSt3__114__split_bufferI11Ein_entriesRNS_9allocatorIS1_EEE5clearEv
FNDA:30609,_ZNSt3__114__split_bufferI8dd_entryRNS_9allocatorIS1_EEEC1EmmS4_
FNDA:0,_ZNSt3__114__split_bufferI9Ein_entryRNS_9allocatorIS1_EEE7__allocEv
FNDA:0,_ZNSt3__114__split_bufferI11Ein_entriesRNS_9allocatorIS1_EEE17__destruct_at_endEPS1_NS_17integral_constantIbLb0EEE
FNDA:0,_ZNSt3__114__split_bufferI11Ein_entriesRNS_9allocatorIS1_EEEC1EmmS4_
FNDA:173967576,_ZNSt3__114__split_bufferIdRNS_9allocatorIdEEED1Ev
FNDA:63466,_ZNSt3__114__split_bufferI8dd_entryRNS_9allocatorIS1_EEE9__end_capEv
FNDA:173967576,_ZNSt3__114__split_bufferIdRNS_9allocatorIdEEE17__destruct_at_endEPd
FNDA:424610970,_ZNSt3__114__split_bufferIdRNS_9allocatorIdEEE7__allocEv
FNDA:173967576,_ZNSt3__114__split_bufferIdRNS_9allocatorIdEEEC2EmmS3_
FNDA:30609,_ZNSt3__114__split_bufferI8dd_entryRNS_9allocatorIS1_EEE17__destruct_at_endEPS1_NS_17integral_constantIbLb0EEE
FNDA:173967576,_ZNSt3__114__split_bufferIdRNS_9allocatorIdEEED2Ev
FNDA:0,_ZNSt3__114__split_bufferI8dd_entryRNS_9allocatorIS1_EEE18__construct_at_endINS_13move_iteratorIPS1_EEEENS_9enable_ifIXsr21__is_forward_iteratorIT_EE5valueEvE4typeESB_SB_
FNDA:0,_ZNSt3__114__split_bufferI11Ein_entriesRNS_9allocatorIS1_EEE7__allocEv
FNDA:291351060,_ZNSt3__114__split_bufferI11Ein_Eta_HitRNS_9allocatorIS1_EEED1Ev
FNDA:0,_ZNSt3__114__split_bufferI11Ein_entriesRNS_9allocatorIS1_EEED2Ev
FNDA:0,_ZNKSt3__114__split_bufferI9Ein_entryRNS_9allocatorIS1_EEE8capacityEv
FNDA:25586,_ZNKSt3__114__split_bufferI8dd_entryRNS_9allocatorIS1_EEE9__end_capEv
FNDA:0,_ZNSt3__114__split_bufferI9Ein_entryRNS_9allocatorIS1_EEEC1EmmS4_
FNDA:0,_ZNKSt3__114__split_bufferI11Ein_entriesRNS_9allocatorIS1_EEE8capacityEv
FNDA:291351060,_ZNSt3__114__split_bufferI11Ein_Eta_HitRNS_9allocatorIS1_EEEC2EmmS4_
FNDA:0,_ZNSt3__114__split_bufferI11Ein_entriesRNS_9allocatorIS1_EEE17__destruct_at_endEPS1_
FNDA:0,_ZNSt3__114__split_bufferI9Ein_entryRNS_9allocatorIS1_EEE17__destruct_at_endEPS1_NS_17integral_constantIbLb0EEE
FNDA:0,_ZNSt3__114__split_bufferI11Ein_entriesRNS_9allocatorIS1_EEEC2EmmS4_
FNDA:30609,_ZNSt3__114__split_bufferI8dd_entryRNS_9allocatorIS1_EEE17__destruct_at_endEPS1_
FNDA:0,_ZNKSt3__114__split_bufferI11Ein_entriesRNS_9allocatorIS1_EEE9__end_capEv
FNDA:291351060,_ZNSt3__114__split_bufferI11Ein_Eta_HitRNS_9allocatorIS1_EEE5clearEv
FNDA:30609,_ZNSt3__114__split_bufferI8dd_entryRNS_9allocatorIS1_EEED1Ev
FNDA:291351060,_ZNSt3__114__split_bufferI11Ein_Eta_HitRNS_9allocatorIS1_EEED2Ev
FNDA:173967576,_ZNSt3__114__split_bufferIdRNS_9allocatorIdEEEC1EmmS3_
FNDA:0,_ZNSt3__114__split_bufferI11Ein_entriesRNS_9allocatorIS1_EEED1Ev
FNDA:106003959,_ZNKSt3__114__split_bufferIdRNS_9allocatorIdEEE8capacityEv
FNDA:2248,_ZNSt3__114__split_bufferI8dd_entryRNS_9allocatorIS1_EEE9push_backERKS1_
FNDA:291351060,_ZNSt3__114__split_bufferI11Ein_Eta_HitRNS_9allocatorIS1_EEEC1EmmS4_
FNDA:0,_ZNSt3__114__split_bufferI9Ein_entryRNS_9allocatorIS1_EEE5clearEv
FNDA:291351060,_ZNSt3__114__split_bufferI11Ein_Eta_HitRNS_9allocatorIS1_EEE17__destruct_at_endEPS1_
FNDA:0,_ZNSt3__114__split_bufferI9Ein_entryRNS_9allocatorIS1_EEED1Ev
FNDA:173967576,_ZNSt3__114__split_bufferIdRNS_9allocatorIdEEE17__destruct_at_endEPdNS_17integral_constantIbLb0EEE
FNDA:291770976,_ZNSt3__114__split_bufferI11Ein_Eta_HitRNS_9allocatorIS1_EEE7__allocEv
FNDA:0,_ZNSt3__114__split_bufferI9Ein_entryRNS_9allocatorIS1_EEED2Ev
FNDA:30609,_ZNSt3__114__split_bufferI8dd_entryRNS_9allocatorIS1_EEE5clearEv
FNDA:30609,_ZNSt3__114__split_bufferI8dd_entryRNS_9allocatorIS1_EEEC2EmmS4_
FNDA:173967576,_ZNSt3__114__split_bufferIdRNS_9allocatorIdEEE5clearEv
FNDA:347935152,_ZNSt3__114__split_bufferIdRNS_9allocatorIdEEE9__end_capEv
FNDA:0,_ZNKSt3__114__split_bufferI9Ein_entryRNS_9allocatorIS1_EEE9__end_capEv
FNDA:469548,_ZNSt3__114__split_bufferI8dd_entryRNS_9allocatorIS1_EEE7__allocEv
FNDA:582702120,_ZNSt3__114__split_bufferI11Ein_Eta_HitRNS_9allocatorIS1_EEE9__end_capEv
FNDA:25586,_ZNKSt3__114__split_bufferI8dd_entryRNS_9allocatorIS1_EEE8capacityEv
FNDA:0,_ZNSt3__114__split_bufferI9Ein_entryRNS_9allocatorIS1_EEE17__destruct_at_endEPS1_
FNDA:30609,_ZNSt3__114__split_bufferI8dd_entryRNS_9allocatorIS1_EEED2Ev
FNDA:209958,_ZNKSt3__114__split_bufferI11Ein_Eta_HitRNS_9allocatorIS1_EEE9__end_capEv
FNDA:0,_ZNSt3__114__split_bufferI9Ein_entryRNS_9allocatorIS1_EEEC2EmmS4_
FNF:57
FNH:34
DA:56,716851494
DA:58,930700738
DA:59,106239503
DA:87,465349245
DA:88,465349245
DA:91,106239503
DA:140,465349245
DA:141,465349245
DA:263,0
DA:265,0
DA:266,0
DA:268,0
DA:269,0
DA:270,0
DA:271,0
DA:293,465349245
DA:295,610609743
DA:296,145260498
DA:297,465349245
DA:308,930698490
DA:309,465349245
DA:310,930698490
DA:311,465349245
DA:312,465349245
DA:313,465349245
DA:314,930698490
DA:339,930698490
DA:340,465349245
DA:341,465349245
DA:342,465349245
DA:343,106239503
DA:344,930698490
DA:532,2248
DA:534,2248
DA:536,0
DA:538,0
DA:539,0
DA:540,0
DA:541,0
DA:542,0
DA:545,0
DA:546,0
DA:547,0
DA:548,0
DA:549,0
DA:550,0
DA:551,0
DA:552,0
DA:553,0
DA:554,0
DA:555,2248
DA:556,2248
DA:557,2248
LF:53
LH:30
end_of_record
TN:
SF:/Applications/Xcode.app/Contents/Developer/Toolchains/XcodeDefault.xctoolchain/usr/include/c++/v1/__string
FN:209,_ZNSt3__111char_traitsIcE6assignERcRKc
FN:210,_ZNSt3__111char_traitsIcE2eqEcc
FN:218,_ZNSt3__111char_traitsIcE6lengthEPKc
FN:231,_ZNSt3__111char_traitsIcE7not_eofEi
FN:233,_ZNSt3__111char_traitsIcE12to_char_typeEi
FN:235,_ZNSt3__111char_traitsIcE11to_int_typeEc
FN:237,_ZNSt3__111char_traitsIcE11eq_int_typeEii
FN:239,_ZNSt3__111char_traitsIcE3eofEv
FN:245,_ZNSt3__111char_traitsIcE7compareEPKcS3_m
FN:267,_ZNSt3__111char_traitsIcE4findEPKcmRS2_
FN:848,_ZNSt3__1L19__str_find_first_ofIcmNS_11char_traitsIcEELm18446744073709551615EEET0_PKT_S3_S6_S3_S3_
FN:864,_ZNSt3__1L18__str_find_last_ofIcmNS_11char_traitsIcEELm18446744073709551615EEET0_PKT_S3_S6_S3_S3_
FNDA:11917623,_ZNSt3__111char_traitsIcE12to_char_typeEi
FNDA:41821409,_ZNSt3__111char_traitsIcE2eqEcc
FNDA:23485231,_ZNSt3__111char_traitsIcE11to_int_typeEc
FNDA:1289506,_ZNSt3__1L19__str_find_first_ofIcmNS_11char_traitsIcEELm18446744073709551615EEET0_PKT_S3_S6_S3_S3_
FNDA:26439654,_ZNSt3__111char_traitsIcE3eofEv
FNDA:21474888,_ZNSt3__111char_traitsIcE11eq_int_typeEii
FNDA:351763,_ZNSt3__1L18__str_find_last_ofIcmNS_11char_traitsIcEELm18446744073709551615EEET0_PKT_S3_S6_S3_S3_
FNDA:7935061,_ZNSt3__111char_traitsIcE6lengthEPKc
FNDA:0,_ZNSt3__111char_traitsIcE7compareEPKcS3_m
FNDA:359170,_ZNSt3__111char_traitsIcE6assignERcRKc
FNDA:1653275,_ZNSt3__111char_traitsIcE7not_eofEi
FNDA:11565792,_ZNSt3__111char_traitsIcE4findEPKcmRS2_
FNF:12
FNH:11
DA:209,359170
DA:210,41821409
DA:211,41821409
DA:218,7935061
DA:231,1653275
DA:232,1653275
DA:233,11917623
DA:234,11917623
DA:235,23485231
DA:236,23485231
DA:237,21474888
DA:238,21474888
DA:239,26439654
DA:240,26439654
DA:245,0
DA:247,0
DA:248,0
DA:252,0
DA:263,0
DA:267,11565792
DA:269,11565792
DA:270,0
DA:274,11565792
DA:284,11565792
DA:848,1289506
DA:851,1289506
DA:852,0
DA:853,1289506
DA:854,1289506
DA:855,1289506
DA:856,345791
DA:857,943715
DA:858,1289506
DA:864,351763
DA:867,351763
DA:869,351763
DA:870,0
DA:872,351763
DA:873,11917546
DA:875,11565792
DA:876,11565792
DA:877,9
DA:879,351754
DA:880,351754
DA:881,351763
LF:45
LH:37
end_of_record
TN:
SF:/Applications/Xcode.app/Contents/Developer/Toolchains/XcodeDefault.xctoolchain/usr/include/c++/v1/algorithm
FN:679,_ZNKSt3__110__equal_toIddEclERKdS3_
FN:716,_ZNKSt3__16__lessImmEclERKmS3_
FN:716,_ZNKSt3__16__lessIllEclERKlS3_
FN:716,_ZNKSt3__16__lessIddEclERKdS3_
FN:716,_ZNKSt3__16__lessIPcS1_EclERKS1_S4_
FN:1073,_ZNSt3__118__find_first_of_ceIPKcS2_PFbccEEET_S5_S5_T0_S6_T1_
FN:1583,_ZNSt3__1L13__unwrap_iterIP8dd_entryEET_S3_
FN:1772,_ZNSt3__1L6__moveIP8dd_entryS2_EET0_T_S4_S3_
FN:1798,_ZNSt3__1L4moveIP8dd_entryS2_EET0_T_S4_S3_
FN:1808,_ZNSt3__1L15__move_backwardIP8dd_entryS2_EET0_T_S4_S3_
FN:1837,_ZNSt3__1L13move_backwardIP8dd_entryS2_EET0_T_S4_S3_
FN:2454,_ZNSt3__1L3minIdNS_6__lessIddEEEERKT_S5_S5_T0_
FN:2454,_ZNSt3__1L3minImNS_6__lessImmEEEERKT_S5_S5_T0_
FN:2462,_ZNSt3__1L3minIdEERKT_S3_S3_
FN:2462,_ZNSt3__1L3minImEERKT_S3_S3_
FN:2521,_ZNSt3__1L3maxIPcNS_6__lessIS1_S1_EEEERKT_S6_S6_T0_
FN:2521,_ZNSt3__1L3maxIdNS_6__lessIddEEEERKT_S5_S5_T0_
FN:2521,_ZNSt3__1L3maxImNS_6__lessImmEEEERKT_S5_S5_T0_
FN:2521,_ZNSt3__1L3maxIlNS_6__lessIllEEEERKT_S5_S5_T0_
FN:2529,_ZNSt3__1L3maxIPcEERKT_S4_S4_
FN:2529,_ZNSt3__1L3maxImEERKT_S3_S3_
FN:2529,_ZNSt3__1L3maxIdEERKT_S3_S3_
FN:2529,_ZNSt3__1L3maxIlEERKT_S3_S3_
FNDA:0,_ZNSt3__1L15__move_backwardIP8dd_entryS2_EET0_T_S4_S3_
FNDA:0,_ZNSt3__1L3maxIlNS_6__lessIllEEEERKT_S5_S5_T0_
FNDA:1902,_ZNKSt3__16__lessIPcS1_EclERKS1_S4_
FNDA:108,_ZNSt3__1L4moveIP8dd_entryS2_EET0_T_S4_S3_
FNDA:0,_ZNSt3__1L13move_backwardIP8dd_entryS2_EET0_T_S4_S3_
FNDA:28991,_ZNKSt3__110__equal_toIddEclERKdS3_
FNDA:94904,_ZNSt3__1L3maxIdEERKT_S3_S3_
FNDA:94904,_ZNSt3__1L3minIdEERKT_S3_S3_
FNDA:108,_ZNSt3__1L6__moveIP8dd_entryS2_EET0_T_S4_S3_
FNDA:1289506,_ZNSt3__118__find_first_of_ceIPKcS2_PFbccEEET_S5_S5_T0_S6_T1_
FNDA:930701446,_ZNKSt3__16__lessImmEclERKmS3_
FNDA:94904,_ZNSt3__1L3maxIdNS_6__lessIddEEEERKT_S5_S5_T0_
FNDA:1902,_ZNSt3__1L3maxIPcNS_6__lessIS1_S1_EEEERKT_S6_S6_T0_
FNDA:228953,_ZNKSt3__16__lessIddEclERKdS3_
FNDA:324,_ZNSt3__1L13__unwrap_iterIP8dd_entryEET_S3_
FNDA:0,_ZNSt3__1L3maxIlEERKT_S3_S3_
FNDA:465352201,_ZNSt3__1L3minImEERKT_S3_S3_
FNDA:465349245,_ZNSt3__1L3maxImEERKT_S3_S3_
FNDA:465349245,_ZNSt3__1L3maxImNS_6__lessImmEEEERKT_S5_S5_T0_
FNDA:0,_ZNKSt3__16__lessIllEclERKlS3_
FNDA:465352201,_ZNSt3__1L3minImNS_6__lessImmEEEERKT_S5_S5_T0_
FNDA:1902,_ZNSt3__1L3maxIPcEERKT_S4_S4_
FNDA:94904,_ZNSt3__1L3minIdNS_6__lessIddEEEERKT_S5_S5_T0_
FNF:23
FNH:18
DA:679,28991
DA:716,930932301
DA:1073,1289506
DA:1076,12428274
DA:1077,41042640
DA:1078,29903872
DA:1079,12082483
DA:1080,345791
DA:1081,1289506
DA:1583,324
DA:1585,324
DA:1772,108
DA:1774,108
DA:1775,0
DA:1776,108
DA:1798,108
DA:1800,108
DA:1808,0
DA:1810,0
DA:1811,0
DA:1812,0
DA:1837,0
DA:1840,0
DA:2454,465447105
DA:2456,465447105
DA:2462,465447105
DA:2464,465447105
DA:2521,465446051
DA:2523,465446051
DA:2529,465446051
DA:2531,465446051
LF:31
LH:24
end_of_record
TN:
SF:/Applications/Xcode.app/Contents/Developer/Toolchains/XcodeDefault.xctoolchain/usr/include/c++/v1/fstream
FN:289,_ZNSt3__113basic_filebufIcNS_11char_traitsIcEEEC2Ev
FN:289,_ZNSt3__113basic_filebufIcNS_11char_traitsIcEEEC1Ev
FN:393,_ZNSt3__113basic_filebufIcNS_11char_traitsIcEEED0Ev
FN:393,_ZNSt3__113basic_filebufIcNS_11char_traitsIcEEED2Ev
FN:393,_ZNSt3__113basic_filebufIcNS_11char_traitsIcEEED1Ev
FN:507,_ZNSt3__113basic_filebufIcNS_11char_traitsIcEEE15__make_mdstringEj
FN:549,_ZNSt3__113basic_filebufIcNS_11char_traitsIcEEE4openEPKcj
FN:692,_ZNSt3__113basic_filebufIcNS_11char_traitsIcEEE5closeEv
FN:712,_ZNSt3__113basic_filebufIcNS_11char_traitsIcEEE9underflowEv
FN:782,_ZNSt3__113basic_filebufIcNS_11char_traitsIcEEE9pbackfailEi
FN:804,_ZNSt3__113basic_filebufIcNS_11char_traitsIcEEE8overflowEi
FN:869,_ZNSt3__113basic_filebufIcNS_11char_traitsIcEEE6setbufEPcl
FN:922,_ZNSt3__113basic_filebufIcNS_11char_traitsIcEEE7seekoffExNS_8ios_base7seekdirEj
FN:962,_ZNSt3__113basic_filebufIcNS_11char_traitsIcEEE7seekposENS_4fposI11__mbstate_tEEj
FN:979,_ZNSt3__113basic_filebufIcNS_11char_traitsIcEEE4syncEv
FN:1048,_ZNSt3__113basic_filebufIcNS_11char_traitsIcEEE5imbueERKNS_6localeE
FN:1092,_ZNSt3__113basic_filebufIcNS_11char_traitsIcEEE11__read_modeEv
FN:1111,_ZNSt3__113basic_filebufIcNS_11char_traitsIcEEE12__write_modeEv
FN:1200,_ZNSt3__114basic_ifstreamIcNS_11char_traitsIcEEEC1Ev
FN:1295,_ZNSt3__114basic_ifstreamIcNS_11char_traitsIcEEE4openEPKcj
FN:1413,_ZNSt3__114basic_ofstreamIcNS_11char_traitsIcEEEC1Ev
FN:1508,_ZNSt3__114basic_ofstreamIcNS_11char_traitsIcEEE4openEPKcj
FN:1626,_ZNSt3__113basic_fstreamIcNS_11char_traitsIcEEEC1Ev
FNDA:258,_ZNSt3__113basic_filebufIcNS_11char_traitsIcEEED2Ev
FNDA:0,_ZNSt3__113basic_filebufIcNS_11char_traitsIcEEE5imbueERKNS_6localeE
FNDA:86,_ZNSt3__114basic_ofstreamIcNS_11char_traitsIcEEE4openEPKcj
FNDA:172,_ZNSt3__113basic_filebufIcNS_11char_traitsIcEEE15__make_mdstringEj
FNDA:0,_ZNSt3__113basic_filebufIcNS_11char_traitsIcEEE7seekoffExNS_8ios_base7seekdirEj
FNDA:3042,_ZNSt3__113basic_filebufIcNS_11char_traitsIcEEE9underflowEv
FNDA:1653275,_ZNSt3__113basic_filebufIcNS_11char_traitsIcEEE12__write_modeEv
FNDA:258,_ZNSt3__113basic_filebufIcNS_11char_traitsIcEEED1Ev
FNDA:172,_ZNSt3__113basic_filebufIcNS_11char_traitsIcEEE4openEPKcj
FNDA:86,_ZNSt3__113basic_fstreamIcNS_11char_traitsIcEEEC1Ev
FNDA:86,_ZNSt3__114basic_ofstreamIcNS_11char_traitsIcEEEC1Ev
FNDA:86,_ZNSt3__114basic_ifstreamIcNS_11char_traitsIcEEE4openEPKcj
FNDA:258,_ZNSt3__113basic_filebufIcNS_11char_traitsIcEEEC2Ev
FNDA:0,_ZNSt3__113basic_filebufIcNS_11char_traitsIcEEE9pbackfailEi
FNDA:3042,_ZNSt3__113basic_filebufIcNS_11char_traitsIcEEE11__read_modeEv
FNDA:258,_ZNSt3__113basic_filebufIcNS_11char_traitsIcEEE5closeEv
FNDA:258,_ZNSt3__113basic_filebufIcNS_11char_traitsIcEEEC1Ev
FNDA:0,_ZNSt3__113basic_filebufIcNS_11char_traitsIcEEED0Ev
FNDA:1653361,_ZNSt3__113basic_filebufIcNS_11char_traitsIcEEE4syncEv
FNDA:430,_ZNSt3__113basic_filebufIcNS_11char_traitsIcEEE6setbufEPcl
FNDA:1653275,_ZNSt3__113basic_filebufIcNS_11char_traitsIcEEE8overflowEi
FNDA:86,_ZNSt3__114basic_ifstreamIcNS_11char_traitsIcEEEC1Ev
FNDA:0,_ZNSt3__113basic_filebufIcNS_11char_traitsIcEEE7seekposENS_4fposI11__mbstate_tEEj
FNF:23
FNH:18
DA:214,258
DA:289,516
DA:290,258
DA:291,258
DA:292,258
DA:293,258
DA:294,258
DA:295,258
DA:296,258
DA:297,258
DA:298,258
DA:299,258
DA:300,258
DA:301,258
DA:302,258
DA:303,258
DA:304,258
DA:305,774
DA:306,258
DA:308,258
DA:309,258
DA:310,258
DA:311,258
DA:312,516
DA:393,516
DA:394,516
DA:399,258
DA:401,258
DA:404,0
DA:406,258
DA:407,86
DA:408,258
DA:409,0
DA:410,516
DA:507,172
DA:509,172
DA:512,86
DA:515,0
DA:517,86
DA:519,0
DA:521,0
DA:524,0
DA:527,0
DA:530,0
DA:532,0
DA:534,0
DA:536,0
DA:539,0
DA:541,0
DA:544,172
DA:549,172
DA:551,172
DA:552,172
DA:554,172
DA:555,172
DA:556,172
DA:557,172
DA:558,172
DA:559,172
DA:560,0
DA:561,0
DA:562,0
DA:563,0
DA:564,0
DA:565,0
DA:566,172
DA:567,0
DA:568,172
DA:569,172
DA:570,172
DA:692,258
DA:694,258
DA:695,258
DA:697,172
DA:698,172
DA:699,172
DA:700,0
DA:701,172
DA:702,172
DA:704,0
DA:705,172
DA:706,172
DA:707,258
DA:708,0
DA:712,3042
DA:714,3042
DA:715,0
DA:716,3042
DA:718,3042
DA:719,0
DA:720,3042
DA:721,3042
DA:722,3042
DA:724,3042
DA:725,3042
DA:727,3042
DA:728,3042
DA:729,3042
DA:731,5912
DA:732,2956
DA:733,2956
DA:734,2956
DA:735,2956
DA:736,3042
DA:740,0
DA:741,0
DA:742,0
DA:743,0
DA:744,0
DA:745,0
DA:747,0
DA:748,0
DA:749,0
DA:751,0
DA:752,0
DA:754,0
DA:756,0
DA:757,0
DA:758,0
DA:759,0
DA:761,0
DA:762,0
DA:763,0
DA:764,0
DA:765,0
DA:767,0
DA:768,0
DA:769,0
DA:770,0
DA:772,3042
DA:774,0
DA:775,3042
DA:776,0
DA:777,3042
DA:778,3042
DA:782,0
DA:784,0
DA:786,0
DA:788,0
DA:789,0
DA:791,0
DA:792,0
DA:794,0
DA:795,0
DA:796,0
DA:798,0
DA:799,0
DA:800,0
DA:804,1653275
DA:806,1653275
DA:807,0
DA:808,1653275
DA:810,1653275
DA:811,1653275
DA:812,1653275
DA:814,86
DA:815,0
DA:816,86
DA:817,86
DA:818,86
DA:819,1653275
DA:821,1653275
DA:823,1653275
DA:824,1653275
DA:825,0
DA:826,1653275
DA:829,0
DA:831,0
DA:833,0
DA:834,0
DA:837,0
DA:838,0
DA:839,0
DA:840,0
DA:841,0
DA:843,0
DA:844,0
DA:845,0
DA:846,0
DA:847,0
DA:849,0
DA:850,0
DA:851,0
DA:852,0
DA:854,0
DA:855,0
DA:856,0
DA:857,0
DA:859,0
DA:860,0
DA:862,1653275
DA:863,1653275
DA:864,1653275
DA:865,1653275
DA:869,430
DA:871,430
DA:872,430
DA:873,430
DA:874,172
DA:875,430
DA:876,0
DA:877,430
DA:878,430
DA:880,258
DA:882,0
DA:883,0
DA:884,0
DA:887,258
DA:888,258
DA:890,258
DA:893,172
DA:894,172
DA:895,172
DA:897,430
DA:899,0
DA:900,0
DA:902,0
DA:903,0
DA:904,0
DA:907,0
DA:908,0
DA:910,0
DA:913,430
DA:914,430
DA:915,430
DA:917,430
DA:922,0
DA:925,0
DA:926,0
DA:928,0
DA:929,0
DA:930,0
DA:933,0
DA:936,0
DA:937,0
DA:939,0
DA:940,0
DA:942,0
DA:943,0
DA:945,0
DA:952,0
DA:953,0
DA:954,0
DA:956,0
DA:957,0
DA:958,0
DA:962,0
DA:964,0
DA:965,0
DA:970,0
DA:971,0
DA:973,0
DA:974,0
DA:975,0
DA:979,1653361
DA:981,1653361
DA:982,0
DA:983,1653361
DA:984,0
DA:986,1653361
DA:988,1653275
DA:989,1653189
DA:990,0
DA:992,1653275
DA:995,1653275
DA:996,1653275
DA:997,1653275
DA:998,0
DA:999,1653275
DA:1000,1653275
DA:1001,0
DA:1002,1653275
DA:1003,0
DA:1004,1653275
DA:1005,86
DA:1008,86
DA:1009,86
DA:1010,86
DA:1011,86
DA:1014,0
DA:1015,0
DA:1016,0
DA:1017,0
DA:1020,0
DA:1022,0
DA:1023,0
DA:1024,0
DA:1025,0
DA:1026,0
DA:1027,0
DA:1034,86
DA:1035,0
DA:1037,86
DA:1038,0
DA:1039,86
DA:1040,86
DA:1041,86
DA:1042,86
DA:1043,1653361
DA:1044,1653361
DA:1048,0
DA:1050,0
DA:1051,0
DA:1052,0
DA:1053,0
DA:1054,0
DA:1056,0
DA:1057,0
DA:1059,0
DA:1061,0
DA:1062,0
DA:1063,0
DA:1064,0
DA:1065,0
DA:1066,0
DA:1067,0
DA:1068,0
DA:1069,0
DA:1072,0
DA:1074,0
DA:1075,0
DA:1076,0
DA:1077,0
DA:1078,0
DA:1079,0
DA:1082,0
DA:1083,0
DA:1084,0
DA:1087,0
DA:1088,0
DA:1092,3042
DA:1094,3042
DA:1096,86
DA:1097,86
DA:1098,172
DA:1099,86
DA:1100,86
DA:1102,0
DA:1103,86
DA:1104,86
DA:1106,2956
DA:1107,3042
DA:1111,1653275
DA:1113,1653275
DA:1115,86
DA:1116,86
DA:1118,86
DA:1119,172
DA:1120,86
DA:1122,0
DA:1123,86
DA:1125,0
DA:1126,86
DA:1127,86
DA:1128,1653275
DA:1144,86
DA:1200,86
DA:1201,86
DA:1202,172
DA:1203,86
DA:1295,86
DA:1297,86
DA:1298,86
DA:1300,0
DA:1301,86
DA:1358,86
DA:1413,86
DA:1414,86
DA:1415,172
DA:1416,86
DA:1508,86
DA:1510,86
DA:1511,86
DA:1513,0
DA:1514,86
DA:1571,86
DA:1626,86
DA:1627,86
DA:1628,172
DA:1629,86
LF:380
LH:194
end_of_record
TN:
SF:/Applications/Xcode.app/Contents/Developer/Toolchains/XcodeDefault.xctoolchain/usr/include/c++/v1/iomanip
FN:210,_ZNSt3__18__iom_t5C2Ei
FN:210,_ZNSt3__18__iom_t5C1Ei
FN:226,_ZNSt3__1lsIcNS_11char_traitsIcEEEERNS_13basic_ostreamIT_T0_EES7_RKNS_8__iom_t5E
FN:235,_ZNSt3__1L12setprecisionEi
FN:247,_ZNSt3__18__iom_t6C1Ei
FN:247,_ZNSt3__18__iom_t6C2Ei
FN:263,_ZNSt3__1lsIcNS_11char_traitsIcEEEERNS_13basic_ostreamIT_T0_EES7_RKNS_8__iom_t6E
FN:272,_ZNSt3__1L4setwEi
FNDA:6208240,_ZNSt3__1L12setprecisionEi
FNDA:6208240,_ZNSt3__18__iom_t5C2Ei
FNDA:6208240,_ZNSt3__18__iom_t6C1Ei
FNDA:6208240,_ZNSt3__1L4setwEi
FNDA:6208240,_ZNSt3__18__iom_t6C2Ei
FNDA:6208240,_ZNSt3__18__iom_t5C1Ei
FNDA:6208240,_ZNSt3__1lsIcNS_11char_traitsIcEEEERNS_13basic_ostreamIT_T0_EES7_RKNS_8__iom_t5E
FNDA:6208240,_ZNSt3__1lsIcNS_11char_traitsIcEEEERNS_13basic_ostreamIT_T0_EES7_RKNS_8__iom_t6E
FNF:8
FNH:8
DA:210,12416480
DA:226,6208240
DA:228,6208240
DA:229,6208240
DA:235,6208240
DA:237,6208240
DA:247,12416480
DA:263,6208240
DA:265,6208240
DA:266,6208240
DA:272,6208240
DA:274,6208240
LF:12
LH:12
end_of_record
TN:
SF:/Applications/Xcode.app/Contents/Developer/Toolchains/XcodeDefault.xctoolchain/usr/include/c++/v1/ios
FN:335,_ZNSt3__18ios_base18__setstate_nothrowEj
FN:345,_ZNSt3__18ios_baseC2Ev
FN:349,_ZNKSt3__18ios_base5rdbufEv
FN:459,_ZNKSt3__18ios_base5flagsEv
FN:484,_ZNSt3__18ios_base6unsetfEj
FN:491,_ZNSt3__18ios_base4setfEjj
FN:510,_ZNSt3__18ios_base9precisionEl
FN:521,_ZNKSt3__18ios_base5widthEv
FN:528,_ZNSt3__18ios_base5widthEl
FN:546,_ZNSt3__18ios_base8setstateEj
FN:553,_ZNKSt3__18ios_base4goodEv
FN:567,_ZNKSt3__18ios_base4failEv
FN:581,_ZNKSt3__18ios_base10exceptionsEv
FN:630,_ZNKSt3__19basic_iosIcNS_11char_traitsIcEEEntEv
FN:632,_ZNSt3__19basic_iosIcNS_11char_traitsIcEEE5clearEj
FN:633,_ZNSt3__19basic_iosIcNS_11char_traitsIcEEE8setstateEj
FN:634,_ZNKSt3__19basic_iosIcNS_11char_traitsIcEEE4goodEv
FN:636,_ZNKSt3__19basic_iosIcNS_11char_traitsIcEEE4failEv
FN:639,_ZNKSt3__19basic_iosIcNS_11char_traitsIcEEE10exceptionsEv
FN:675,_ZNSt3__19basic_iosIcNS_11char_traitsIcEEEC2Ev
FN:710,_ZNSt3__19basic_iosIcNS_11char_traitsIcEEE4initEPNS_15basic_streambufIcS2_EE
FN:738,_ZNKSt3__19basic_iosIcNS_11char_traitsIcEEE5rdbufEv
FN:776,_ZNKSt3__19basic_iosIcNS_11char_traitsIcEEE5widenEc
FN:784,_ZNKSt3__19basic_iosIcNS_11char_traitsIcEEE4fillEv
FNDA:2157,_ZNSt3__18ios_baseC2Ev
FNDA:1656179,_ZNKSt3__19basic_iosIcNS_11char_traitsIcEEE5widenEc
FNDA:172,_ZNKSt3__19basic_iosIcNS_11char_traitsIcEEE4failEv
FNDA:697859,_ZNKSt3__18ios_base4goodEv
FNDA:351840,_ZNSt3__19basic_iosIcNS_11char_traitsIcEEE8setstateEj
FNDA:172,_ZNKSt3__19basic_iosIcNS_11char_traitsIcEEEntEv
FNDA:6248813,_ZNKSt3__19basic_iosIcNS_11char_traitsIcEEE4fillEv
FNDA:172,_ZNSt3__19basic_iosIcNS_11char_traitsIcEEE5clearEj
FNDA:697859,_ZNKSt3__19basic_iosIcNS_11char_traitsIcEEE4goodEv
FNDA:6248813,_ZNKSt3__18ios_base5widthEv
FNDA:0,_ZNKSt3__19basic_iosIcNS_11char_traitsIcEEE10exceptionsEv
FNDA:2157,_ZNSt3__19basic_iosIcNS_11char_traitsIcEEEC2Ev
FNDA:251,_ZNSt3__18ios_base6unsetfEj
FNDA:351840,_ZNSt3__18ios_base8setstateEj
FNDA:6208240,_ZNSt3__18ios_base9precisionEl
FNDA:2157,_ZNSt3__19basic_iosIcNS_11char_traitsIcEEE4initEPNS_15basic_streambufIcS2_EE
FNDA:18166436,_ZNKSt3__19basic_iosIcNS_11char_traitsIcEEE5rdbufEv
FNDA:172,_ZNKSt3__18ios_base4failEv
FNDA:0,_ZNSt3__18ios_base18__setstate_nothrowEj
FNDA:251,_ZNSt3__18ios_base4setfEjj
FNDA:6248813,_ZNKSt3__18ios_base5flagsEv
FNDA:12457053,_ZNSt3__18ios_base5widthEl
FNDA:0,_ZNKSt3__18ios_base10exceptionsEv
FNDA:18166436,_ZNKSt3__18ios_base5rdbufEv
FNF:24
FNH:21
DA:335,0
DA:337,0
DA:338,0
DA:340,0
DA:341,0
DA:345,2157
DA:346,2157
DA:349,18166436
DA:459,6248813
DA:461,6248813
DA:484,251
DA:486,251
DA:487,251
DA:491,251
DA:493,251
DA:494,251
DA:495,251
DA:496,251
DA:510,6208240
DA:512,6208240
DA:513,6208240
DA:514,6208240
DA:521,6248813
DA:523,6248813
DA:528,12457053
DA:530,12457053
DA:531,12457053
DA:532,12457053
DA:546,351840
DA:548,351840
DA:549,351840
DA:553,697859
DA:555,697859
DA:567,172
DA:569,172
DA:581,0
DA:583,0
DA:630,172
DA:632,172
DA:633,351840
DA:634,697859
DA:636,172
DA:639,0
DA:675,2157
DA:676,2157
DA:710,2157
DA:712,2157
DA:713,2157
DA:714,2157
DA:715,2157
DA:738,18166436
DA:740,18166436
DA:776,1656179
DA:778,1656179
DA:779,0
DA:784,6248813
DA:786,6248813
DA:787,191
DA:788,6248813
LF:59
LH:50
end_of_record
TN:
SF:/Applications/Xcode.app/Contents/Developer/Toolchains/XcodeDefault.xctoolchain/usr/include/c++/v1/iosfwd
FN:131,_ZNSt3__115basic_stringbufIcNS_11char_traitsIcEENS_9allocatorIcEEED2Ev
FN:131,_ZNSt3__115basic_stringbufIcNS_11char_traitsIcEENS_9allocatorIcEEED1Ev
FN:131,_ZNSt3__115basic_stringbufIcNS_11char_traitsIcEENS_9allocatorIcEEED0Ev
FN:137,_ZNSt3__119basic_ostringstreamIcNS_11char_traitsIcEENS_9allocatorIcEEED2Ev
FN:137,_ZNSt3__119basic_ostringstreamIcNS_11char_traitsIcEENS_9allocatorIcEEED0Ev
FN:137,_ZNSt3__119basic_ostringstreamIcNS_11char_traitsIcEENS_9allocatorIcEEED1Ev
FN:145,_ZNSt3__114basic_ifstreamIcNS_11char_traitsIcEEED0Ev
FN:145,_ZNSt3__114basic_ifstreamIcNS_11char_traitsIcEEED2Ev
FN:145,_ZNSt3__114basic_ifstreamIcNS_11char_traitsIcEEED1Ev
FN:147,_ZNSt3__114basic_ofstreamIcNS_11char_traitsIcEEED0Ev
FN:147,_ZNSt3__114basic_ofstreamIcNS_11char_traitsIcEEED2Ev
FN:147,_ZNSt3__114basic_ofstreamIcNS_11char_traitsIcEEED1Ev
FN:149,_ZNSt3__113basic_fstreamIcNS_11char_traitsIcEEED0Ev
FN:149,_ZNSt3__113basic_fstreamIcNS_11char_traitsIcEEED1Ev
FN:149,_ZNSt3__113basic_fstreamIcNS_11char_traitsIcEEED2Ev
FNDA:86,_ZNSt3__114basic_ifstreamIcNS_11char_traitsIcEEED1Ev
FNDA:86,_ZNSt3__114basic_ifstreamIcNS_11char_traitsIcEEED2Ev
FNDA:1899,_ZNSt3__115basic_stringbufIcNS_11char_traitsIcEENS_9allocatorIcEEED1Ev
FNDA:0,_ZNSt3__114basic_ifstreamIcNS_11char_traitsIcEEED0Ev
FNDA:0,_ZNSt3__114basic_ofstreamIcNS_11char_traitsIcEEED0Ev
FNDA:1899,_ZNSt3__115basic_stringbufIcNS_11char_traitsIcEENS_9allocatorIcEEED2Ev
FNDA:0,_ZNSt3__119basic_ostringstreamIcNS_11char_traitsIcEENS_9allocatorIcEEED0Ev
FNDA:86,_ZNSt3__114basic_ofstreamIcNS_11char_traitsIcEEED2Ev
FNDA:1899,_ZNSt3__119basic_ostringstreamIcNS_11char_traitsIcEENS_9allocatorIcEEED2Ev
FNDA:86,_ZNSt3__113basic_fstreamIcNS_11char_traitsIcEEED2Ev
FNDA:0,_ZNSt3__115basic_stringbufIcNS_11char_traitsIcEENS_9allocatorIcEEED0Ev
FNDA:86,_ZNSt3__113basic_fstreamIcNS_11char_traitsIcEEED1Ev
FNDA:86,_ZNSt3__114basic_ofstreamIcNS_11char_traitsIcEEED1Ev
FNDA:0,_ZNSt3__113basic_fstreamIcNS_11char_traitsIcEEED0Ev
FNDA:1899,_ZNSt3__119basic_ostringstreamIcNS_11char_traitsIcEENS_9allocatorIcEEED1Ev
FNF:15
FNH:10
DA:131,3798
DA:137,3798
DA:145,172
DA:147,172
DA:149,172
LF:5
LH:5
end_of_record
TN:
SF:/Applications/Xcode.app/Contents/Developer/Toolchains/XcodeDefault.xctoolchain/usr/include/c++/v1/istream
FN:191,_ZNSt3__113basic_istreamIcNS_11char_traitsIcEEEC2EPNS_15basic_streambufIcS2_EE
FN:307,_ZNKSt3__113basic_istreamIcNS_11char_traitsIcEEE6sentrycvbEv
FN:1408,_ZNSt3__114basic_iostreamIcNS_11char_traitsIcEEEC2EPNS_15basic_streambufIcS2_EE
FN:1509,_ZNSt3__17getlineIcNS_11char_traitsIcEENS_9allocatorIcEEEERNS_13basic_istreamIT_T0_EES9_RNS_12basic_stringIS6_S7_T1_EES6_
FNDA:172,_ZNSt3__113basic_istreamIcNS_11char_traitsIcEEEC2EPNS_15basic_streambufIcS2_EE
FNDA:86,_ZNSt3__114basic_iostreamIcNS_11char_traitsIcEEEC2EPNS_15basic_streambufIcS2_EE
FNDA:351840,_ZNKSt3__113basic_istreamIcNS_11char_traitsIcEEE6sentrycvbEv
FNDA:351840,_ZNSt3__17getlineIcNS_11char_traitsIcEENS_9allocatorIcEEEERNS_13basic_istreamIT_T0_EES9_RNS_12basic_stringIS6_S7_T1_EES6_
FNF:4
FNH:4
DA:191,172
DA:192,344
DA:307,351840
DA:1408,86
DA:1409,86
DA:1410,172
DA:1509,351840
DA:1512,351840
DA:1513,351840
DA:1514,351840
DA:1520,351840
DA:1521,351840
DA:1522,11917623
DA:1524,11917623
DA:1525,11917623
DA:1527,86
DA:1528,86
DA:1530,11917537
DA:1531,11917537
DA:1532,11917537
DA:1533,351754
DA:1534,11565783
DA:1535,11565783
DA:1537,0
DA:1538,0
DA:1541,351840
DA:1542,86
DA:1544,351840
DA:1547,0
DA:1548,0
DA:1549,0
DA:1551,0
DA:1553,0
DA:1555,351840
DA:1556,351840
DA:1557,351840
DA:1558,0
LF:37
LH:29
end_of_record
TN:
SF:/Applications/Xcode.app/Contents/Developer/Toolchains/XcodeDefault.xctoolchain/usr/include/c++/v1/iterator
FN:559,_ZNSt3__1L9__advanceINS_15__list_iteratorIdPvEEEEvRT_NS_15iterator_traitsIS4_E15difference_typeENS_26bidirectional_iterator_tagE
FN:559,_ZNSt3__1L9__advanceINS_15__list_iteratorI15Vcm_quadBox_HitPvEEEEvRT_NS_15iterator_traitsIS5_E15difference_typeENS_26bidirectional_iterator_tagE
FN:580,_ZNSt3__1L7advanceINS_15__list_iteratorI15Vcm_quadBox_HitPvEEEEvRT_NS_15iterator_traitsIS5_E15difference_typeE
FN:580,_ZNSt3__1L7advanceINS_15__list_iteratorIdPvEEEEvRT_NS_15iterator_traitsIS4_E15difference_typeE
FN:600,_ZNSt3__1L10__distanceIPcEENS_15iterator_traitsIT_E15difference_typeES3_S3_NS_26random_access_iterator_tagE
FN:608,_ZNSt3__1L8distanceIPcEENS_15iterator_traitsIT_E15difference_typeES3_S3_
FN:620,_ZNSt3__1L4nextINS_15__list_iteratorI15Vcm_quadBox_HitPvEEEENS_9enable_ifIXsr19__is_input_iteratorIT_EE5valueES6_E4typeES6_NS_15iterator_traitsIS6_E15difference_typeE
FN:620,_ZNSt3__1L4nextINS_15__list_iteratorIdPvEEEENS_9enable_ifIXsr19__is_input_iteratorIT_EE5valueES5_E4typeES5_NS_15iterator_traitsIS5_E15difference_typeE
FN:1067,_ZNSt3__119ostreambuf_iteratorIcNS_11char_traitsIcEEEC1ERNS_13basic_ostreamIcS2_EE
FN:1067,_ZNSt3__119ostreambuf_iteratorIcNS_11char_traitsIcEEEC2ERNS_13basic_ostreamIcS2_EE
FN:1080,_ZNKSt3__119ostreambuf_iteratorIcNS_11char_traitsIcEEE6failedEv
FN:1121,_ZNSt3__113move_iteratorIP8dd_entryEC2ES2_
FN:1121,_ZNSt3__113move_iteratorIP8dd_entryEC1ES2_
FN:1125,_ZNKSt3__113move_iteratorIP8dd_entryE4baseEv
FN:1127,_ZNKSt3__113move_iteratorIP8dd_entryEdeEv
FN:1131,_ZNSt3__113move_iteratorIP8dd_entryEppEv
FN:1169,_ZNSt3__1neIP8dd_entryS2_EEbRKNS_13move_iteratorIT_EERKNS3_IT0_EE
FN:1327,_ZNSt3__111__wrap_iterIP11Ein_entriesEC2Ev
FN:1327,_ZNSt3__111__wrap_iterIPKdEC1Ev
FN:1327,_ZNSt3__111__wrap_iterIPK8dd_entryEC2Ev
FN:1327,_ZNSt3__111__wrap_iterIP11Ein_entriesEC1Ev
FN:1327,_ZNSt3__111__wrap_iterIPKdEC2Ev
FN:1327,_ZNSt3__111__wrap_iterIPK8dd_entryEC1Ev
FN:1337,_ZNSt3__111__wrap_iterIPKdEC2IPdEERKNS0_IT_EEPNS_9enable_ifIXsr14is_convertibleIS6_S2_EE5valueEvE4typeE
FN:1337,_ZNSt3__111__wrap_iterIPKdEC1IPdEERKNS0_IT_EEPNS_9enable_ifIXsr14is_convertibleIS6_S2_EE5valueEvE4typeE
FN:1337,_ZNSt3__111__wrap_iterIPK8dd_entryEC2IPS1_EERKNS0_IT_EEPNS_9enable_ifIXsr14is_convertibleIS7_S3_EE5valueEvE4typeE
FN:1337,_ZNSt3__111__wrap_iterIPK8dd_entryEC1IPS1_EERKNS0_IT_EEPNS_9enable_ifIXsr14is_convertibleIS7_S3_EE5valueEvE4typeE
FN:1368,_ZNKSt3__111__wrap_iterIP11Ein_Eta_HitEdeEv
FN:1368,_ZNKSt3__111__wrap_iterIPdEdeEv
FN:1368,_ZNKSt3__111__wrap_iterIPK8dd_entryEdeEv
FN:1368,_ZNKSt3__111__wrap_iterIPKdEdeEv
FN:1376,_ZNKSt3__111__wrap_iterIP8dd_entryEptEv
FN:1376,_ZNKSt3__111__wrap_iterIP11Ein_Eta_HitEptEv
FN:1376,_ZNKSt3__111__wrap_iterIPK11Ein_entriesEptEv
FN:1376,_ZNKSt3__111__wrap_iterIPK8dd_entryEptEv
FN:1376,_ZNKSt3__111__wrap_iterIPK9Ein_entryEptEv
FN:1384,_ZNSt3__111__wrap_iterIPKdEppEv
FN:1384,_ZNSt3__111__wrap_iterIP11Ein_Eta_HitEppEv
FN:1384,_ZNSt3__111__wrap_iterIPK9Ein_entryEppEv
FN:1384,_ZNSt3__111__wrap_iterIP8dd_entryEppEv
FN:1384,_ZNSt3__111__wrap_iterIPK8dd_entryEppEv
FN:1384,_ZNSt3__111__wrap_iterIPK11Ein_entriesEppEv
FN:1396,_ZNSt3__111__wrap_iterIP8dd_entryEmmEv
FN:1396,_ZNSt3__111__wrap_iterIPKdEmmEv
FN:1396,_ZNSt3__111__wrap_iterIPK8dd_entryEmmEv
FN:1396,_ZNSt3__111__wrap_iterIP11Ein_entriesEmmEv
FN:1407,_ZNKSt3__111__wrap_iterIPdEplEl
FN:1407,_ZNKSt3__111__wrap_iterIP8dd_entryEplEl
FN:1407,_ZNKSt3__111__wrap_iterIPKdEplEl
FN:1409,_ZNSt3__111__wrap_iterIPdEpLEl
FN:1409,_ZNSt3__111__wrap_iterIP8dd_entryEpLEl
FN:1409,_ZNSt3__111__wrap_iterIPKdEpLEl
FN:1431,_ZNKSt3__111__wrap_iterIPK9Ein_entryE4baseEv
FN:1431,_ZNKSt3__111__wrap_iterIP8dd_entryE4baseEv
FN:1431,_ZNKSt3__111__wrap_iterIPK11Ein_entriesE4baseEv
FN:1431,_ZNKSt3__111__wrap_iterIP11Ein_entriesE4baseEv
FN:1431,_ZNKSt3__111__wrap_iterIPKdE4baseEv
FN:1431,_ZNKSt3__111__wrap_iterIPK8dd_entryE4baseEv
FN:1431,_ZNKSt3__111__wrap_iterIP11Ein_Eta_HitE4baseEv
FN:1431,_ZNKSt3__111__wrap_iterIPdE4baseEv
FN:1440,_ZNSt3__111__wrap_iterIPK11Ein_entriesEC2ES3_
FN:1440,_ZNSt3__111__wrap_iterIPK8dd_entryEC1ES3_
FN:1440,_ZNSt3__111__wrap_iterIPKdEC1ES2_
FN:1440,_ZNSt3__111__wrap_iterIPdEC1ES1_
FN:1440,_ZNSt3__111__wrap_iterIPdEC2ES1_
FN:1440,_ZNSt3__111__wrap_iterIPK9Ein_entryEC1ES3_
FN:1440,_ZNSt3__111__wrap_iterIP11Ein_entriesEC2ES2_
FN:1440,_ZNSt3__111__wrap_iterIP8dd_entryEC1ES2_
FN:1440,_ZNSt3__111__wrap_iterIPKdEC2ES2_
FN:1440,_ZNSt3__111__wrap_iterIPK8dd_entryEC2ES3_
FN:1440,_ZNSt3__111__wrap_iterIP11Ein_entriesEC1ES2_
FN:1440,_ZNSt3__111__wrap_iterIPK11Ein_entriesEC1ES3_
FN:1440,_ZNSt3__111__wrap_iterIP11Ein_Eta_HitEC1ES2_
FN:1440,_ZNSt3__111__wrap_iterIP8dd_entryEC2ES2_
FN:1440,_ZNSt3__111__wrap_iterIP11Ein_Eta_HitEC2ES2_
FN:1440,_ZNSt3__111__wrap_iterIPK9Ein_entryEC2ES3_
FN:1525,_ZNSt3__1eqIPKdPdEEbRKNS_11__wrap_iterIT_EERKNS4_IT0_EE
FN:1525,_ZNSt3__1eqIP8dd_entryS2_EEbRKNS_11__wrap_iterIT_EERKNS3_IT0_EE
FN:1525,_ZNSt3__1eqIPK8dd_entryPS1_EEbRKNS_11__wrap_iterIT_EERKNS5_IT0_EE
FN:1525,_ZNSt3__1eqIPK11Ein_entriesPS1_EEbRKNS_11__wrap_iterIT_EERKNS5_IT0_EE
FN:1525,_ZNSt3__1eqIP11Ein_Eta_HitS2_EEbRKNS_11__wrap_iterIT_EERKNS3_IT0_EE
FN:1525,_ZNSt3__1eqIPKdS2_EEbRKNS_11__wrap_iterIT_EERKNS3_IT0_EE
FN:1525,_ZNSt3__1eqIPK11Ein_entriesS3_EEbRKNS_11__wrap_iterIT_EERKNS4_IT0_EE
FN:1525,_ZNSt3__1eqIPK9Ein_entryS3_EEbRKNS_11__wrap_iterIT_EERKNS4_IT0_EE
FN:1525,_ZNSt3__1eqIPK8dd_entryS3_EEbRKNS_11__wrap_iterIT_EERKNS4_IT0_EE
FN:1545,_ZNSt3__1neIPK8dd_entryPS1_EEbRKNS_11__wrap_iterIT_EERKNS5_IT0_EE
FN:1577,_ZNSt3__1neIP8dd_entryEEbRKNS_11__wrap_iterIT_EES7_
FN:1577,_ZNSt3__1neIPK9Ein_entryEEbRKNS_11__wrap_iterIT_EES8_
FN:1577,_ZNSt3__1neIP11Ein_Eta_HitEEbRKNS_11__wrap_iterIT_EES7_
FN:1577,_ZNSt3__1neIPK11Ein_entriesEEbRKNS_11__wrap_iterIT_EES8_
FN:1577,_ZNSt3__1neIPKdEEbRKNS_11__wrap_iterIT_EES7_
FN:1577,_ZNSt3__1neIPK8dd_entryEEbRKNS_11__wrap_iterIT_EES8_
FN:1623,_ZNSt3__1miIPK8dd_entryS3_EENS_11__wrap_iterIT_E15difference_typeERKS6_RKNS4_IT0_EE
FN:1623,_ZNSt3__1miIPK8dd_entryPS1_EENS_11__wrap_iterIT_E15difference_typeERKS7_RKNS5_IT0_EE
FNDA:48888193,_ZNSt3__111__wrap_iterIPdEC1ES1_
FNDA:35736366,_ZNKSt3__111__wrap_iterIP11Ein_Eta_HitEdeEv
FNDA:48763748,_ZNSt3__111__wrap_iterIPdEpLEl
FNDA:0,_ZNSt3__111__wrap_iterIP11Ein_entriesEC2Ev
FNDA:10328508,_ZNKSt3__111__wrap_iterIP8dd_entryEptEv
FNDA:267583466,_ZNSt3__111__wrap_iterIPKdEC1ES2_
FNDA:248493860,_ZNSt3__111__wrap_iterIPK8dd_entryEC1ES3_
FNDA:0,_ZNKSt3__111__wrap_iterIPK9Ein_entryE4baseEv
FNDA:0,_ZNSt3__1neIP8dd_entryS2_EEbRKNS_13move_iteratorIT_EERKNS3_IT0_EE
FNDA:48800679,_ZNSt3__111__wrap_iterIPKdEC2IPdEERKNS0_IT_EEPNS_9enable_ifIXsr14is_convertibleIS6_S2_EE5valueEvE4typeE
FNDA:514688,_ZNSt3__1eqIP8dd_entryS2_EEbRKNS_11__wrap_iterIT_EERKNS3_IT0_EE
FNDA:0,_ZNSt3__113move_iteratorIP8dd_entryEC2ES2_
FNDA:510918,_ZNSt3__1neIP8dd_entryEEbRKNS_11__wrap_iterIT_EES7_
FNDA:0,_ZNSt3__113move_iteratorIP8dd_entryEC1ES2_
FNDA:87091,_ZNSt3__1eqIPKdPdEEbRKNS_11__wrap_iterIT_EERKNS4_IT0_EE
FNDA:0,_ZNKSt3__113move_iteratorIP8dd_entryEdeEv
FNDA:0,_ZNSt3__111__wrap_iterIPK11Ein_entriesEC2ES3_
FNDA:2423540,_ZNSt3__1neIPK8dd_entryPS1_EEbRKNS_11__wrap_iterIT_EERKNS5_IT0_EE
FNDA:44061,_ZNSt3__1L9__advanceINS_15__list_iteratorIdPvEEEEvRT_NS_15iterator_traitsIS4_E15difference_typeENS_26bidirectional_iterator_tagE
FNDA:6323,_ZNSt3__111__wrap_iterIP8dd_entryEmmEv
FNDA:0,_ZNSt3__111__wrap_iterIPK9Ein_entryEppEv
FNDA:501410,_ZNSt3__111__wrap_iterIP8dd_entryEppEv
FNDA:108,_ZNSt3__1miIPK8dd_entryS3_EENS_11__wrap_iterIT_E15difference_typeERKS6_RKNS4_IT0_EE
FNDA:199310598,_ZNSt3__1eqIPKdS2_EEbRKNS_11__wrap_iterIT_EERKNS3_IT0_EE
FNDA:0,_ZNKSt3__111__wrap_iterIPK11Ein_entriesE4baseEv
FNDA:15967695,_ZNSt3__111__wrap_iterIPKdEC1Ev
FNDA:1899,_ZNSt3__1L8distanceIPcEENS_15iterator_traitsIT_E15difference_typeES3_S3_
FNDA:6248813,_ZNKSt3__119ostreambuf_iteratorIcNS_11char_traitsIcEEE6failedEv
FNDA:48888193,_ZNSt3__111__wrap_iterIPdEC2ES1_
FNDA:32368036,_ZNSt3__1L7advanceINS_15__list_iteratorI15Vcm_quadBox_HitPvEEEEvRT_NS_15iterator_traitsIS5_E15difference_typeE
FNDA:6248813,_ZNSt3__119ostreambuf_iteratorIcNS_11char_traitsIcEEEC1ERNS_13basic_ostreamIcS2_EE
FNDA:48763748,_ZNKSt3__111__wrap_iterIPdEplEl
FNDA:5206941,_ZNKSt3__111__wrap_iterIP8dd_entryE4baseEv
FNDA:389293525,_ZNKSt3__111__wrap_iterIP11Ein_Eta_HitEptEv
FNDA:291940439,_ZNSt3__111__wrap_iterIP11Ein_Eta_HitEppEv
FNDA:452760,_ZNSt3__111__wrap_iterIP8dd_entryEpLEl
FNDA:595585898,_ZNSt3__1eqIP11Ein_Eta_HitS2_EEbRKNS_11__wrap_iterIT_EERKNS3_IT0_EE
FNDA:0,_ZNSt3__1neIPK11Ein_entriesEEbRKNS_11__wrap_iterIT_EES8_
FNDA:595585898,_ZNSt3__1neIP11Ein_Eta_HitEEbRKNS_11__wrap_iterIT_EES7_
FNDA:0,_ZNSt3__1neIPK9Ein_entryEEbRKNS_11__wrap_iterIT_EES8_
FNDA:463183755,_ZNSt3__111__wrap_iterIPKdEppEv
FNDA:0,_ZNSt3__1eqIPK11Ein_entriesPS1_EEbRKNS_11__wrap_iterIT_EERKNS5_IT0_EE
FNDA:878,_ZNSt3__111__wrap_iterIPKdEmmEv
FNDA:3508883,_ZNSt3__1eqIPK8dd_entryPS1_EEbRKNS_11__wrap_iterIT_EERKNS5_IT0_EE
FNDA:32368036,_ZNSt3__1L4nextINS_15__list_iteratorI15Vcm_quadBox_HitPvEEEENS_9enable_ifIXsr19__is_input_iteratorIT_EE5valueES6_E4typeES6_NS_15iterator_traitsIS6_E15difference_typeE
FNDA:0,_ZNSt3__111__wrap_iterIPK11Ein_entriesEC1ES3_
FNDA:189962287,_ZNSt3__1neIPK8dd_entryEEbRKNS_11__wrap_iterIT_EES8_
FNDA:0,_ZNSt3__1eqIPK9Ein_entryS3_EEbRKNS_11__wrap_iterIT_EERKNS4_IT0_EE
FNDA:0,_ZNKSt3__111__wrap_iterIP11Ein_entriesE4baseEv
FNDA:15967695,_ZNSt3__111__wrap_iterIPKdEC2Ev
FNDA:0,_ZNSt3__111__wrap_iterIP11Ein_entriesEC1ES2_
FNDA:267583466,_ZNSt3__111__wrap_iterIPKdEC2ES2_
FNDA:0,_ZNSt3__1eqIPK11Ein_entriesS3_EEbRKNS_11__wrap_iterIT_EERKNS4_IT0_EE
FNDA:248493860,_ZNSt3__111__wrap_iterIPK8dd_entryEC2ES3_
FNDA:423,_ZNKSt3__111__wrap_iterIPdEdeEv
FNDA:4717714,_ZNSt3__111__wrap_iterIP8dd_entryEC1ES2_
FNDA:827393792,_ZNKSt3__111__wrap_iterIPK8dd_entryEptEv
FNDA:0,_ZNSt3__111__wrap_iterIP11Ein_entriesEC2ES2_
FNDA:0,_ZNSt3__111__wrap_iterIPK9Ein_entryEC1ES3_
FNDA:5892657,_ZNSt3__111__wrap_iterIPK8dd_entryEmmEv
FNDA:654492,_ZNSt3__111__wrap_iterIPK8dd_entryEC2IPS1_EERKNS0_IT_EEPNS_9enable_ifIXsr14is_convertibleIS7_S3_EE5valueEvE4typeE
FNDA:0,_ZNKSt3__111__wrap_iterIPK11Ein_entriesEptEv
FNDA:199310293,_ZNSt3__1neIPKdEEbRKNS_11__wrap_iterIT_EES7_
FNDA:32368036,_ZNSt3__1L9__advanceINS_15__list_iteratorI15Vcm_quadBox_HitPvEEEEvRT_NS_15iterator_traitsIS5_E15difference_typeENS_26bidirectional_iterator_tagE
FNDA:48800679,_ZNSt3__111__wrap_iterIPKdEC1IPdEERKNS0_IT_EEPNS_9enable_ifIXsr14is_convertibleIS6_S2_EE5valueEvE4typeE
FNDA:0,_ZNSt3__111__wrap_iterIP11Ein_entriesEC1Ev
FNDA:0,_ZNKSt3__113move_iteratorIP8dd_entryE4baseEv
FNDA:63653116,_ZNSt3__111__wrap_iterIPK8dd_entryEC2Ev
FNDA:0,_ZNKSt3__111__wrap_iterIPK9Ein_entryEptEv
FNDA:1899,_ZNSt3__1L10__distanceIPcEENS_15iterator_traitsIT_E15difference_typeES3_S3_NS_26random_access_iterator_tagE
FNDA:0,_ZNSt3__113move_iteratorIP8dd_entryEppEv
FNDA:0,_ZNSt3__111__wrap_iterIPK9Ein_entryEC2ES3_
FNDA:654492,_ZNSt3__111__wrap_iterIPK8dd_entryEC1IPS1_EERKNS0_IT_EEPNS_9enable_ifIXsr14is_convertibleIS7_S3_EE5valueEvE4typeE
FNDA:1232020547,_ZNKSt3__111__wrap_iterIPKdEdeEv
FNDA:44061,_ZNSt3__1L4nextINS_15__list_iteratorIdPvEEEENS_9enable_ifIXsr19__is_input_iteratorIT_EE5valueES5_E4typeES5_NS_15iterator_traitsIS5_E15difference_typeE
FNDA:1956256,_ZNSt3__111__wrap_iterIPKdEpLEl
FNDA:14190,_ZNSt3__1miIPK8dd_entryPS1_EENS_11__wrap_iterIT_E15difference_typeERKS7_RKNS5_IT0_EE
FNDA:0,_ZNSt3__111__wrap_iterIPK11Ein_entriesEppEv
FNDA:899231357,_ZNSt3__111__wrap_iterIP11Ein_Eta_HitEC2ES2_
FNDA:4717714,_ZNSt3__111__wrap_iterIP8dd_entryEC2ES2_
FNDA:294548518,_ZNSt3__111__wrap_iterIPK8dd_entryEppEv
FNDA:279449111,_ZNSt3__1eqIPK8dd_entryS3_EEbRKNS_11__wrap_iterIT_EERKNS4_IT0_EE
FNDA:63653116,_ZNSt3__111__wrap_iterIPK8dd_entryEC1Ev
FNDA:48887770,_ZNKSt3__111__wrap_iterIPdE4baseEv
FNDA:1191171796,_ZNKSt3__111__wrap_iterIP11Ein_Eta_HitE4baseEv
FNDA:1956256,_ZNKSt3__111__wrap_iterIPKdEplEl
FNDA:6248813,_ZNSt3__119ostreambuf_iteratorIcNS_11char_traitsIcEEEC2ERNS_13basic_ostreamIcS2_EE
FNDA:44061,_ZNSt3__1L7advanceINS_15__list_iteratorIdPvEEEEvRT_NS_15iterator_traitsIS4_E15difference_typeE
FNDA:276121930,_ZNKSt3__111__wrap_iterIPK8dd_entryEdeEv
FNDA:899231357,_ZNSt3__111__wrap_iterIP11Ein_Eta_HitEC1ES2_
FNDA:562421511,_ZNKSt3__111__wrap_iterIPK8dd_entryE4baseEv
FNDA:0,_ZNSt3__111__wrap_iterIP11Ein_entriesEmmEv
FNDA:398708287,_ZNKSt3__111__wrap_iterIPKdE4baseEv
FNDA:452760,_ZNKSt3__111__wrap_iterIP8dd_entryEplEl
FNF:94
FNH:67
DA:559,32412097
DA:562,32412097
DA:563,72013187
DA:564,72013187
DA:566,0
DA:567,0
DA:568,32412097
DA:580,32412097
DA:583,32412097
DA:584,32412097
DA:600,1899
DA:602,1899
DA:608,1899
DA:610,1899
DA:620,32412097
DA:623,32412097
DA:624,32412097
DA:1067,12497626
DA:1068,12497626
DA:1080,6248813
DA:1121,0
DA:1125,0
DA:1127,0
DA:1131,0
DA:1169,0
DA:1171,0
DA:1327,159241622
DA:1331,79620811
DA:1335,159241622
DA:1337,98910342
DA:1339,49455171
DA:1340,49455171
DA:1344,98910342
DA:1368,1543879266
DA:1374,1543879266
DA:1376,1227015825
DA:1382,1227015825
DA:1384,1050174122
DA:1390,1050174122
DA:1391,1050174122
DA:1396,5899858
DA:1402,5899858
DA:1403,5899858
DA:1407,51172764
DA:1408,51172764
DA:1409,51172764
DA:1415,51172764
DA:1416,51172764
DA:1431,2206396305
DA:1440,2937829180
DA:1525,1078456269
DA:1527,1078456269
DA:1545,2423540
DA:1547,2423540
DA:1577,985369396
DA:1579,985369396
DA:1623,14298
DA:1629,14298
LF:58
LH:50
end_of_record
TN:
SF:/Applications/Xcode.app/Contents/Developer/Toolchains/XcodeDefault.xctoolchain/usr/include/c++/v1/limits
FN:215,_ZNSt3__123__libcpp_numeric_limitsIlLb1EE3maxEv
FN:452,_ZNSt3__114numeric_limitsIlE3maxEv
FNDA:465349245,_ZNSt3__123__libcpp_numeric_limitsIlLb1EE3maxEv
FNDA:465349245,_ZNSt3__114numeric_limitsIlE3maxEv
FNF:2
FNH:2
DA:215,465349245
DA:452,465349245
LF:2
LH:2
end_of_record
TN:
SF:/Applications/Xcode.app/Contents/Developer/Toolchains/XcodeDefault.xctoolchain/usr/include/c++/v1/list
FN:230,_ZNSt3__126__list_node_pointer_traitsI15Vcm_quadBox_HitPvE26__unsafe_link_pointer_castEPNS_16__list_node_baseIS1_S2_EE
FN:230,_ZNSt3__126__list_node_pointer_traitsIN4cmDD8one_EoutEPvE26__unsafe_link_pointer_castEPNS_16__list_node_baseIS2_S3_EE
FN:230,_ZNSt3__126__list_node_pointer_traitsI21cumulative_prob_entryPvE26__unsafe_link_pointer_castEPNS_16__list_node_baseIS1_S2_EE
FN:230,_ZNSt3__126__list_node_pointer_traitsI11coef_vectorPvE26__unsafe_link_pointer_castEPNS_16__list_node_baseIS1_S2_EE
FN:230,_ZNSt3__126__list_node_pointer_traitsIN6quad_F12one_intervalEPvE26__unsafe_link_pointer_castEPNS_16__list_node_baseIS2_S3_EE
FN:230,_ZNSt3__126__list_node_pointer_traitsI18cm_Legendre_vectorPvE26__unsafe_link_pointer_castEPNS_16__list_node_baseIS1_S2_EE
FN:230,_ZNSt3__126__list_node_pointer_traitsIN4cmDD14one_joint_distEPvE26__unsafe_link_pointer_castEPNS_16__list_node_baseIS2_S3_EE
FN:230,_ZNSt3__126__list_node_pointer_traitsIdPvE26__unsafe_link_pointer_castEPNS_16__list_node_baseIdS1_EE
FN:230,_ZNSt3__126__list_node_pointer_traitsI14Legendre_coefsPvE26__unsafe_link_pointer_castEPNS_16__list_node_baseIS1_S2_EE
FN:230,_ZNSt3__126__list_node_pointer_traitsI6one_muPvE26__unsafe_link_pointer_castEPNS_16__list_node_baseIS1_S2_EE
FN:230,_ZNSt3__126__list_node_pointer_traitsI12Eprob_vectorPvE26__unsafe_link_pointer_castEPNS_16__list_node_baseIS1_S2_EE
FN:230,_ZNSt3__126__list_node_pointer_traitsI15Kalbach_one_EinPvE26__unsafe_link_pointer_castEPNS_16__list_node_baseIS1_S2_EE
FN:230,_ZNSt3__126__list_node_pointer_traitsI11Ein_Eta_HitPvE26__unsafe_link_pointer_castEPNS_16__list_node_baseIS1_S2_EE
FN:230,_ZNSt3__126__list_node_pointer_traitsI13weight_vectorPvE26__unsafe_link_pointer_castEPNS_16__list_node_baseIS1_S2_EE
FN:230,_ZNSt3__126__list_node_pointer_traitsI9dd_vectorPvE26__unsafe_link_pointer_castEPNS_16__list_node_baseIS1_S2_EE
FN:230,_ZNSt3__126__list_node_pointer_traitsI15Boundary_cornerPvE26__unsafe_link_pointer_castEPNS_16__list_node_baseIS1_S2_EE
FN:230,_ZNSt3__126__list_node_pointer_traitsI13min_Eout_infoPvE26__unsafe_link_pointer_castEPNS_16__list_node_baseIS1_S2_EE
FN:230,_ZNSt3__126__list_node_pointer_traitsI14one_joint_distPvE26__unsafe_link_pointer_castEPNS_16__list_node_baseIS1_S2_EE
FN:230,_ZNSt3__126__list_node_pointer_traitsI24standard_Legendre_vectorPvE26__unsafe_link_pointer_castEPNS_16__list_node_baseIS1_S2_EE
FN:230,_ZNSt3__126__list_node_pointer_traitsI7ss_linkPvE26__unsafe_link_pointer_castEPNS_16__list_node_baseIS1_S2_EE
FN:253,_ZNSt3__116__list_node_baseI24standard_Legendre_vectorPvEC2Ev
FN:253,_ZNSt3__116__list_node_baseIdPvEC2Ev
FN:253,_ZNSt3__116__list_node_baseIdPvEC1Ev
FN:253,_ZNSt3__116__list_node_baseI13min_Eout_infoPvEC2Ev
FN:253,_ZNSt3__116__list_node_baseI11Ein_Eta_HitPvEC2Ev
FN:253,_ZNSt3__116__list_node_baseI12Eprob_vectorPvEC1Ev
FN:253,_ZNSt3__116__list_node_baseIN6quad_F12one_intervalEPvEC2Ev
FN:253,_ZNSt3__116__list_node_baseI14Legendre_coefsPvEC1Ev
FN:253,_ZNSt3__116__list_node_baseI9dd_vectorPvEC1Ev
FN:253,_ZNSt3__116__list_node_baseI14one_joint_distPvEC2Ev
FN:253,_ZNSt3__116__list_node_baseI13weight_vectorPvEC1Ev
FN:253,_ZNSt3__116__list_node_baseI14one_joint_distPvEC1Ev
FN:253,_ZNSt3__116__list_node_baseIN4cmDD14one_joint_distEPvEC2Ev
FN:253,_ZNSt3__116__list_node_baseI6one_muPvEC1Ev
FN:253,_ZNSt3__116__list_node_baseI7ss_linkPvEC1Ev
FN:253,_ZNSt3__116__list_node_baseI14Legendre_coefsPvEC2Ev
FN:253,_ZNSt3__116__list_node_baseI21cumulative_prob_entryPvEC1Ev
FN:253,_ZNSt3__116__list_node_baseI11Ein_Eta_HitPvEC1Ev
FN:253,_ZNSt3__116__list_node_baseI21cumulative_prob_entryPvEC2Ev
FN:253,_ZNSt3__116__list_node_baseI11coef_vectorPvEC1Ev
FN:253,_ZNSt3__116__list_node_baseI13min_Eout_infoPvEC1Ev
FN:253,_ZNSt3__116__list_node_baseI15Vcm_quadBox_HitPvEC2Ev
FN:253,_ZNSt3__116__list_node_baseI15Kalbach_one_EinPvEC1Ev
FN:253,_ZNSt3__116__list_node_baseI11coef_vectorPvEC2Ev
FN:253,_ZNSt3__116__list_node_baseI15Vcm_quadBox_HitPvEC1Ev
FN:253,_ZNSt3__116__list_node_baseIN4cmDD8one_EoutEPvEC2Ev
FN:253,_ZNSt3__116__list_node_baseI24standard_Legendre_vectorPvEC1Ev
FN:253,_ZNSt3__116__list_node_baseIN4cmDD14one_joint_distEPvEC1Ev
FN:253,_ZNSt3__116__list_node_baseI15Boundary_cornerPvEC2Ev
FN:253,_ZNSt3__116__list_node_baseI15Kalbach_one_EinPvEC2Ev
FN:253,_ZNSt3__116__list_node_baseI15Boundary_cornerPvEC1Ev
FN:253,_ZNSt3__116__list_node_baseI13weight_vectorPvEC2Ev
FN:253,_ZNSt3__116__list_node_baseI7ss_linkPvEC2Ev
FN:253,_ZNSt3__116__list_node_baseI18cm_Legendre_vectorPvEC2Ev
FN:253,_ZNSt3__116__list_node_baseIN6quad_F12one_intervalEPvEC1Ev
FN:253,_ZNSt3__116__list_node_baseI18cm_Legendre_vectorPvEC1Ev
FN:253,_ZNSt3__116__list_node_baseI6one_muPvEC2Ev
FN:253,_ZNSt3__116__list_node_baseI12Eprob_vectorPvEC2Ev
FN:253,_ZNSt3__116__list_node_baseI9dd_vectorPvEC2Ev
FN:253,_ZNSt3__116__list_node_baseIN4cmDD8one_EoutEPvEC1Ev
FN:257,_ZNSt3__116__list_node_baseI6one_muPvE6__selfEv
FN:257,_ZNSt3__116__list_node_baseI11Ein_Eta_HitPvE6__selfEv
FN:257,_ZNSt3__116__list_node_baseI13min_Eout_infoPvE6__selfEv
FN:257,_ZNSt3__116__list_node_baseI21cumulative_prob_entryPvE6__selfEv
FN:257,_ZNSt3__116__list_node_baseIN4cmDD8one_EoutEPvE6__selfEv
FN:257,_ZNSt3__116__list_node_baseI7ss_linkPvE6__selfEv
FN:257,_ZNSt3__116__list_node_baseI9dd_vectorPvE6__selfEv
FN:257,_ZNSt3__116__list_node_baseI15Boundary_cornerPvE6__selfEv
FN:257,_ZNSt3__116__list_node_baseI24standard_Legendre_vectorPvE6__selfEv
FN:257,_ZNSt3__116__list_node_baseIdPvE6__selfEv
FN:257,_ZNSt3__116__list_node_baseI14Legendre_coefsPvE6__selfEv
FN:257,_ZNSt3__116__list_node_baseIN6quad_F12one_intervalEPvE6__selfEv
FN:257,_ZNSt3__116__list_node_baseI15Vcm_quadBox_HitPvE6__selfEv
FN:257,_ZNSt3__116__list_node_baseI15Kalbach_one_EinPvE6__selfEv
FN:257,_ZNSt3__116__list_node_baseI11coef_vectorPvE6__selfEv
FN:257,_ZNSt3__116__list_node_baseIN4cmDD14one_joint_distEPvE6__selfEv
FN:257,_ZNSt3__116__list_node_baseI12Eprob_vectorPvE6__selfEv
FN:257,_ZNSt3__116__list_node_baseI14one_joint_distPvE6__selfEv
FN:257,_ZNSt3__116__list_node_baseI13weight_vectorPvE6__selfEv
FN:257,_ZNSt3__116__list_node_baseI18cm_Legendre_vectorPvE6__selfEv
FN:262,_ZNSt3__116__list_node_baseIN6quad_F12one_intervalEPvE9__as_nodeEv
FN:262,_ZNSt3__116__list_node_baseI12Eprob_vectorPvE9__as_nodeEv
FN:262,_ZNSt3__116__list_node_baseIN4cmDD14one_joint_distEPvE9__as_nodeEv
FN:262,_ZNSt3__116__list_node_baseI21cumulative_prob_entryPvE9__as_nodeEv
FN:262,_ZNSt3__116__list_node_baseI11coef_vectorPvE9__as_nodeEv
FN:262,_ZNSt3__116__list_node_baseI15Boundary_cornerPvE9__as_nodeEv
FN:262,_ZNSt3__116__list_node_baseI15Vcm_quadBox_HitPvE9__as_nodeEv
FN:262,_ZNSt3__116__list_node_baseI24standard_Legendre_vectorPvE9__as_nodeEv
FN:262,_ZNSt3__116__list_node_baseIdPvE9__as_nodeEv
FN:262,_ZNSt3__116__list_node_baseI11Ein_Eta_HitPvE9__as_nodeEv
FN:262,_ZNSt3__116__list_node_baseI6one_muPvE9__as_nodeEv
FN:262,_ZNSt3__116__list_node_baseI14Legendre_coefsPvE9__as_nodeEv
FN:262,_ZNSt3__116__list_node_baseI7ss_linkPvE9__as_nodeEv
FN:262,_ZNSt3__116__list_node_baseI13weight_vectorPvE9__as_nodeEv
FN:262,_ZNSt3__116__list_node_baseI15Kalbach_one_EinPvE9__as_nodeEv
FN:262,_ZNSt3__116__list_node_baseI13min_Eout_infoPvE9__as_nodeEv
FN:262,_ZNSt3__116__list_node_baseI9dd_vectorPvE9__as_nodeEv
FN:262,_ZNSt3__116__list_node_baseI14one_joint_distPvE9__as_nodeEv
FN:262,_ZNSt3__116__list_node_baseI18cm_Legendre_vectorPvE9__as_nodeEv
FN:262,_ZNSt3__116__list_node_baseIN4cmDD8one_EoutEPvE9__as_nodeEv
FN:277,_ZNSt3__111__list_nodeI24standard_Legendre_vectorPvE9__as_linkEv
FN:277,_ZNSt3__111__list_nodeIN6quad_F12one_intervalEPvE9__as_linkEv
FN:277,_ZNSt3__111__list_nodeI15Vcm_quadBox_HitPvE9__as_linkEv
FN:277,_ZNSt3__111__list_nodeI9dd_vectorPvE9__as_linkEv
FN:277,_ZNSt3__111__list_nodeI13weight_vectorPvE9__as_linkEv
FN:277,_ZNSt3__111__list_nodeI11coef_vectorPvE9__as_linkEv
FN:277,_ZNSt3__111__list_nodeI7ss_linkPvE9__as_linkEv
FN:277,_ZNSt3__111__list_nodeIdPvE9__as_linkEv
FN:277,_ZNSt3__111__list_nodeI14one_joint_distPvE9__as_linkEv
FN:277,_ZNSt3__111__list_nodeI12Eprob_vectorPvE9__as_linkEv
FN:277,_ZNSt3__111__list_nodeI11Ein_Eta_HitPvE9__as_linkEv
FN:277,_ZNSt3__111__list_nodeI21cumulative_prob_entryPvE9__as_linkEv
FN:277,_ZNSt3__111__list_nodeI18cm_Legendre_vectorPvE9__as_linkEv
FN:277,_ZNSt3__111__list_nodeI13min_Eout_infoPvE9__as_linkEv
FN:277,_ZNSt3__111__list_nodeI15Kalbach_one_EinPvE9__as_linkEv
FN:277,_ZNSt3__111__list_nodeI15Boundary_cornerPvE9__as_linkEv
FN:277,_ZNSt3__111__list_nodeIN4cmDD14one_joint_distEPvE9__as_linkEv
FN:277,_ZNSt3__111__list_nodeIN4cmDD8one_EoutEPvE9__as_linkEv
FN:277,_ZNSt3__111__list_nodeI6one_muPvE9__as_linkEv
FN:277,_ZNSt3__111__list_nodeI14Legendre_coefsPvE9__as_linkEv
FN:303,_ZNSt3__115__list_iteratorI15Kalbach_one_EinPvEC2EPNS_16__list_node_baseIS1_S2_EE
FN:303,_ZNSt3__115__list_iteratorI13weight_vectorPvEC1EPNS_16__list_node_baseIS1_S2_EE
FN:303,_ZNSt3__115__list_iteratorI18cm_Legendre_vectorPvEC2EPNS_16__list_node_baseIS1_S2_EE
FN:303,_ZNSt3__115__list_iteratorI6one_muPvEC2EPNS_16__list_node_baseIS1_S2_EE
FN:303,_ZNSt3__115__list_iteratorIdPvEC1EPNS_16__list_node_baseIdS1_EE
FN:303,_ZNSt3__115__list_iteratorI14Legendre_coefsPvEC1EPNS_16__list_node_baseIS1_S2_EE
FN:303,_ZNSt3__115__list_iteratorIN6quad_F12one_intervalEPvEC2EPNS_16__list_node_baseIS2_S3_EE
FN:303,_ZNSt3__115__list_iteratorIN4cmDD8one_EoutEPvEC2EPNS_16__list_node_baseIS2_S3_EE
FN:303,_ZNSt3__115__list_iteratorI12Eprob_vectorPvEC1EPNS_16__list_node_baseIS1_S2_EE
FN:303,_ZNSt3__115__list_iteratorI18cm_Legendre_vectorPvEC1EPNS_16__list_node_baseIS1_S2_EE
FN:303,_ZNSt3__115__list_iteratorI11Ein_Eta_HitPvEC1EPNS_16__list_node_baseIS1_S2_EE
FN:303,_ZNSt3__115__list_iteratorIdPvEC2EPNS_16__list_node_baseIdS1_EE
FN:303,_ZNSt3__115__list_iteratorI14Legendre_coefsPvEC2EPNS_16__list_node_baseIS1_S2_EE
FN:303,_ZNSt3__115__list_iteratorI9dd_vectorPvEC1EPNS_16__list_node_baseIS1_S2_EE
FN:303,_ZNSt3__115__list_iteratorI13weight_vectorPvEC2EPNS_16__list_node_baseIS1_S2_EE
FN:303,_ZNSt3__115__list_iteratorI11coef_vectorPvEC1EPNS_16__list_node_baseIS1_S2_EE
FN:303,_ZNSt3__115__list_iteratorI15Vcm_quadBox_HitPvEC1EPNS_16__list_node_baseIS1_S2_EE
FN:303,_ZNSt3__115__list_iteratorI6one_muPvEC1EPNS_16__list_node_baseIS1_S2_EE
FN:303,_ZNSt3__115__list_iteratorI24standard_Legendre_vectorPvEC2EPNS_16__list_node_baseIS1_S2_EE
FN:303,_ZNSt3__115__list_iteratorI21cumulative_prob_entryPvEC1EPNS_16__list_node_baseIS1_S2_EE
FN:303,_ZNSt3__115__list_iteratorI13min_Eout_infoPvEC2EPNS_16__list_node_baseIS1_S2_EE
FN:303,_ZNSt3__115__list_iteratorI24standard_Legendre_vectorPvEC1EPNS_16__list_node_baseIS1_S2_EE
FN:303,_ZNSt3__115__list_iteratorI9dd_vectorPvEC2EPNS_16__list_node_baseIS1_S2_EE
FN:303,_ZNSt3__115__list_iteratorI15Boundary_cornerPvEC1EPNS_16__list_node_baseIS1_S2_EE
FN:303,_ZNSt3__115__list_iteratorIN6quad_F12one_intervalEPvEC1EPNS_16__list_node_baseIS2_S3_EE
FN:303,_ZNSt3__115__list_iteratorI13min_Eout_infoPvEC1EPNS_16__list_node_baseIS1_S2_EE
FN:303,_ZNSt3__115__list_iteratorI15Vcm_quadBox_HitPvEC2EPNS_16__list_node_baseIS1_S2_EE
FN:303,_ZNSt3__115__list_iteratorI7ss_linkPvEC1EPNS_16__list_node_baseIS1_S2_EE
FN:303,_ZNSt3__115__list_iteratorIN4cmDD14one_joint_distEPvEC1EPNS_16__list_node_baseIS2_S3_EE
FN:303,_ZNSt3__115__list_iteratorI12Eprob_vectorPvEC2EPNS_16__list_node_baseIS1_S2_EE
FN:303,_ZNSt3__115__list_iteratorI11coef_vectorPvEC2EPNS_16__list_node_baseIS1_S2_EE
FN:303,_ZNSt3__115__list_iteratorI21cumulative_prob_entryPvEC2EPNS_16__list_node_baseIS1_S2_EE
FN:303,_ZNSt3__115__list_iteratorI14one_joint_distPvEC1EPNS_16__list_node_baseIS1_S2_EE
FN:303,_ZNSt3__115__list_iteratorIN4cmDD14one_joint_distEPvEC2EPNS_16__list_node_baseIS2_S3_EE
FN:303,_ZNSt3__115__list_iteratorI15Kalbach_one_EinPvEC1EPNS_16__list_node_baseIS1_S2_EE
FN:303,_ZNSt3__115__list_iteratorI11Ein_Eta_HitPvEC2EPNS_16__list_node_baseIS1_S2_EE
FN:303,_ZNSt3__115__list_iteratorI7ss_linkPvEC2EPNS_16__list_node_baseIS1_S2_EE
FN:303,_ZNSt3__115__list_iteratorI14one_joint_distPvEC2EPNS_16__list_node_baseIS1_S2_EE
FN:303,_ZNSt3__115__list_iteratorI15Boundary_cornerPvEC2EPNS_16__list_node_baseIS1_S2_EE
FN:303,_ZNSt3__115__list_iteratorIN4cmDD8one_EoutEPvEC1EPNS_16__list_node_baseIS2_S3_EE
FN:308,_ZNSt3__14listI11coef_vectorNS_9allocatorIS1_EEED2Ev
FN:308,_ZNSt3__14listI18cm_Legendre_vectorNS_9allocatorIS1_EEED2Ev
FN:308,_ZNSt3__14listI11coef_vectorNS_9allocatorIS1_EEED1Ev
FN:319,_ZNSt3__115__list_iteratorI24standard_Legendre_vectorPvEC1Ev
FN:319,_ZNSt3__115__list_iteratorI9dd_vectorPvEC2Ev
FN:319,_ZNSt3__115__list_iteratorIN4cmDD8one_EoutEPvEC1Ev
FN:319,_ZNSt3__115__list_iteratorI14Legendre_coefsPvEC2Ev
FN:319,_ZNSt3__115__list_iteratorI14one_joint_distPvEC1Ev
FN:319,_ZNSt3__115__list_iteratorI15Kalbach_one_EinPvEC2Ev
FN:319,_ZNSt3__115__list_iteratorIN4cmDD14one_joint_distEPvEC1Ev
FN:319,_ZNSt3__115__list_iteratorI11coef_vectorPvEC1Ev
FN:319,_ZNSt3__115__list_iteratorI7ss_linkPvEC1Ev
FN:319,_ZNSt3__115__list_iteratorI6one_muPvEC1Ev
FN:319,_ZNSt3__115__list_iteratorI18cm_Legendre_vectorPvEC1Ev
FN:319,_ZNSt3__115__list_iteratorI15Boundary_cornerPvEC1Ev
FN:319,_ZNSt3__115__list_iteratorI12Eprob_vectorPvEC1Ev
FN:319,_ZNSt3__115__list_iteratorI24standard_Legendre_vectorPvEC2Ev
FN:319,_ZNSt3__115__list_iteratorI12Eprob_vectorPvEC2Ev
FN:319,_ZNSt3__115__list_iteratorIN4cmDD8one_EoutEPvEC2Ev
FN:319,_ZNSt3__115__list_iteratorI18cm_Legendre_vectorPvEC2Ev
FN:319,_ZNSt3__115__list_iteratorI7ss_linkPvEC2Ev
FN:319,_ZNSt3__115__list_iteratorI15Kalbach_one_EinPvEC1Ev
FN:319,_ZNSt3__115__list_iteratorI11coef_vectorPvEC2Ev
FN:319,_ZNSt3__115__list_iteratorI21cumulative_prob_entryPvEC1Ev
FN:319,_ZNSt3__115__list_iteratorI21cumulative_prob_entryPvEC2Ev
FN:319,_ZNSt3__115__list_iteratorI15Boundary_cornerPvEC2Ev
FN:319,_ZNSt3__115__list_iteratorI6one_muPvEC2Ev
FN:319,_ZNSt3__115__list_iteratorI14one_joint_distPvEC2Ev
FN:319,_ZNSt3__115__list_iteratorI9dd_vectorPvEC1Ev
FN:319,_ZNSt3__115__list_iteratorIN4cmDD14one_joint_distEPvEC2Ev
FN:319,_ZNSt3__115__list_iteratorI14Legendre_coefsPvEC1Ev
FN:355,_ZNKSt3__115__list_iteratorI13weight_vectorPvEdeEv
FN:355,_ZNKSt3__115__list_iteratorI14one_joint_distPvEdeEv
FN:355,_ZNKSt3__115__list_iteratorI11coef_vectorPvEdeEv
FN:355,_ZNKSt3__115__list_iteratorIN4cmDD8one_EoutEPvEdeEv
FN:355,_ZNKSt3__115__list_iteratorI24standard_Legendre_vectorPvEdeEv
FN:355,_ZNKSt3__115__list_iteratorI9dd_vectorPvEdeEv
FN:355,_ZNKSt3__115__list_iteratorI15Vcm_quadBox_HitPvEdeEv
FN:355,_ZNKSt3__115__list_iteratorI14Legendre_coefsPvEdeEv
FN:355,_ZNKSt3__115__list_iteratorI6one_muPvEdeEv
FN:355,_ZNKSt3__115__list_iteratorIdPvEdeEv
FN:355,_ZNKSt3__115__list_iteratorI15Kalbach_one_EinPvEdeEv
FN:364,_ZNKSt3__115__list_iteratorI9dd_vectorPvEptEv
FN:364,_ZNKSt3__115__list_iteratorI14one_joint_distPvEptEv
FN:364,_ZNKSt3__115__list_iteratorI15Boundary_cornerPvEptEv
FN:364,_ZNKSt3__115__list_iteratorI24standard_Legendre_vectorPvEptEv
FN:364,_ZNKSt3__115__list_iteratorI18cm_Legendre_vectorPvEptEv
FN:364,_ZNKSt3__115__list_iteratorI21cumulative_prob_entryPvEptEv
FN:364,_ZNKSt3__115__list_iteratorIN6quad_F12one_intervalEPvEptEv
FN:364,_ZNKSt3__115__list_iteratorI7ss_linkPvEptEv
FN:364,_ZNKSt3__115__list_iteratorIN4cmDD8one_EoutEPvEptEv
FN:364,_ZNKSt3__115__list_iteratorI11coef_vectorPvEptEv
FN:364,_ZNKSt3__115__list_iteratorI12Eprob_vectorPvEptEv
FN:364,_ZNKSt3__115__list_iteratorI15Kalbach_one_EinPvEptEv
FN:364,_ZNKSt3__115__list_iteratorI13weight_vectorPvEptEv
FN:364,_ZNKSt3__115__list_iteratorIN4cmDD14one_joint_distEPvEptEv
FN:364,_ZNKSt3__115__list_iteratorI14Legendre_coefsPvEptEv
FN:364,_ZNKSt3__115__list_iteratorI11Ein_Eta_HitPvEptEv
FN:364,_ZNKSt3__115__list_iteratorI6one_muPvEptEv
FN:364,_ZNKSt3__115__list_iteratorI13min_Eout_infoPvEptEv
FN:374,_ZNSt3__115__list_iteratorI14one_joint_distPvEppEv
FN:374,_ZNSt3__115__list_iteratorI11Ein_Eta_HitPvEppEv
FN:374,_ZNSt3__115__list_iteratorI7ss_linkPvEppEv
FN:374,_ZNSt3__115__list_iteratorI21cumulative_prob_entryPvEppEv
FN:374,_ZNSt3__115__list_iteratorIdPvEppEv
FN:374,_ZNSt3__115__list_iteratorIN4cmDD8one_EoutEPvEppEv
FN:374,_ZNSt3__115__list_iteratorI12Eprob_vectorPvEppEv
FN:374,_ZNSt3__115__list_iteratorIN6quad_F12one_intervalEPvEppEv
FN:374,_ZNSt3__115__list_iteratorI14Legendre_coefsPvEppEv
FN:374,_ZNSt3__115__list_iteratorI6one_muPvEppEv
FN:374,_ZNSt3__115__list_iteratorI24standard_Legendre_vectorPvEppEv
FN:374,_ZNSt3__115__list_iteratorIN4cmDD14one_joint_distEPvEppEv
FN:374,_ZNSt3__115__list_iteratorI11coef_vectorPvEppEv
FN:374,_ZNSt3__115__list_iteratorI15Vcm_quadBox_HitPvEppEv
FN:374,_ZNSt3__115__list_iteratorI15Kalbach_one_EinPvEppEv
FN:374,_ZNSt3__115__list_iteratorI13min_Eout_infoPvEppEv
FN:374,_ZNSt3__115__list_iteratorI9dd_vectorPvEppEv
FN:374,_ZNSt3__115__list_iteratorI13weight_vectorPvEppEv
FN:387,_ZNSt3__115__list_iteratorI11Ein_Eta_HitPvEmmEv
FN:387,_ZNSt3__115__list_iteratorI15Boundary_cornerPvEmmEv
FN:387,_ZNSt3__115__list_iteratorI21cumulative_prob_entryPvEmmEv
FN:387,_ZNSt3__115__list_iteratorI6one_muPvEmmEv
FN:387,_ZNSt3__115__list_iteratorI15Vcm_quadBox_HitPvEmmEv
FN:387,_ZNSt3__115__list_iteratorI13min_Eout_infoPvEmmEv
FN:387,_ZNSt3__115__list_iteratorIdPvEmmEv
FN:387,_ZNSt3__115__list_iteratorI11coef_vectorPvEmmEv
FN:387,_ZNSt3__115__list_iteratorI14Legendre_coefsPvEmmEv
FN:387,_ZNSt3__115__list_iteratorI15Kalbach_one_EinPvEmmEv
FN:387,_ZNSt3__115__list_iteratorIN4cmDD8one_EoutEPvEmmEv
FN:400,_ZNSt3__1eqERKNS_15__list_iteratorIN4cmDD8one_EoutEPvEES6_
FN:400,_ZNSt3__1eqERKNS_15__list_iteratorI12Eprob_vectorPvEES5_
FN:400,_ZNSt3__1eqERKNS_15__list_iteratorI7ss_linkPvEES5_
FN:400,_ZNSt3__1eqERKNS_15__list_iteratorI24standard_Legendre_vectorPvEES5_
FN:400,_ZNSt3__1eqERKNS_15__list_iteratorIdPvEES4_
FN:400,_ZNSt3__1eqERKNS_15__list_iteratorI15Kalbach_one_EinPvEES5_
FN:400,_ZNSt3__1eqERKNS_15__list_iteratorI14Legendre_coefsPvEES5_
FN:400,_ZNSt3__1eqERKNS_15__list_iteratorI21cumulative_prob_entryPvEES5_
FN:400,_ZNSt3__1eqERKNS_15__list_iteratorI15Vcm_quadBox_HitPvEES5_
FN:400,_ZNSt3__1eqERKNS_15__list_iteratorI13min_Eout_infoPvEES5_
FN:400,_ZNSt3__1eqERKNS_15__list_iteratorI9dd_vectorPvEES5_
FN:400,_ZNSt3__1eqERKNS_15__list_iteratorIN4cmDD14one_joint_distEPvEES6_
FN:400,_ZNSt3__1eqERKNS_15__list_iteratorI6one_muPvEES5_
FN:400,_ZNSt3__1eqERKNS_15__list_iteratorI14one_joint_distPvEES5_
FN:400,_ZNSt3__1eqERKNS_15__list_iteratorI11Ein_Eta_HitPvEES5_
FN:400,_ZNSt3__1eqERKNS_15__list_iteratorIN6quad_F12one_intervalEPvEES6_
FN:405,_ZNSt3__1neERKNS_15__list_iteratorI7ss_linkPvEES5_
FN:405,_ZNSt3__1neERKNS_15__list_iteratorI14one_joint_distPvEES5_
FN:405,_ZNSt3__1neERKNS_15__list_iteratorIN6quad_F12one_intervalEPvEES6_
FN:405,_ZNSt3__1neERKNS_15__list_iteratorI21cumulative_prob_entryPvEES5_
FN:405,_ZNSt3__1neERKNS_15__list_iteratorI15Kalbach_one_EinPvEES5_
FN:405,_ZNSt3__1neERKNS_15__list_iteratorI14Legendre_coefsPvEES5_
FN:405,_ZNSt3__1neERKNS_15__list_iteratorI15Vcm_quadBox_HitPvEES5_
FN:405,_ZNSt3__1neERKNS_15__list_iteratorI12Eprob_vectorPvEES5_
FN:405,_ZNSt3__1neERKNS_15__list_iteratorIdPvEES4_
FN:405,_ZNSt3__1neERKNS_15__list_iteratorI13min_Eout_infoPvEES5_
FN:405,_ZNSt3__1neERKNS_15__list_iteratorI11Ein_Eta_HitPvEES5_
FN:405,_ZNSt3__1neERKNS_15__list_iteratorIN4cmDD14one_joint_distEPvEES6_
FN:405,_ZNSt3__1neERKNS_15__list_iteratorI9dd_vectorPvEES5_
FN:405,_ZNSt3__1neERKNS_15__list_iteratorI6one_muPvEES5_
FN:405,_ZNSt3__1neERKNS_15__list_iteratorIN4cmDD8one_EoutEPvEES6_
FN:405,_ZNSt3__1neERKNS_15__list_iteratorI24standard_Legendre_vectorPvEES5_
FN:426,_ZNSt3__121__list_const_iteratorI14Legendre_coefsPvEC2EPNS_16__list_node_baseIS1_S2_EE
FN:426,_ZNSt3__121__list_const_iteratorI21cumulative_prob_entryPvEC1EPNS_16__list_node_baseIS1_S2_EE
FN:426,_ZNSt3__121__list_const_iteratorI14Legendre_coefsPvEC1EPNS_16__list_node_baseIS1_S2_EE
FN:426,_ZNSt3__121__list_const_iteratorIN4cmDD8one_EoutEPvEC2EPNS_16__list_node_baseIS2_S3_EE
FN:426,_ZNSt3__121__list_const_iteratorI21cumulative_prob_entryPvEC2EPNS_16__list_node_baseIS1_S2_EE
FN:426,_ZNSt3__121__list_const_iteratorI6one_muPvEC1EPNS_16__list_node_baseIS1_S2_EE
FN:426,_ZNSt3__121__list_const_iteratorIN4cmDD8one_EoutEPvEC1EPNS_16__list_node_baseIS2_S3_EE
FN:426,_ZNSt3__121__list_const_iteratorI6one_muPvEC2EPNS_16__list_node_baseIS1_S2_EE
FN:426,_ZNSt3__121__list_const_iteratorI15Boundary_cornerPvEC1EPNS_16__list_node_baseIS1_S2_EE
FN:426,_ZNSt3__121__list_const_iteratorI15Boundary_cornerPvEC2EPNS_16__list_node_baseIS1_S2_EE
FN:429,_ZNSt3__14listI15Vcm_quadBox_HitNS_9allocatorIS1_EEED1Ev
FN:429,_ZNSt3__14listI14one_joint_distNS_9allocatorIS1_EEED2Ev
FN:429,_ZNSt3__14listIN6quad_F12one_intervalENS_9allocatorIS2_EEED2Ev
FN:429,_ZNSt3__14listIN4cmDD14one_joint_distENS_9allocatorIS2_EEED2Ev
FN:429,_ZNSt3__14listI15Vcm_quadBox_HitNS_9allocatorIS1_EEED2Ev
FN:429,_ZNSt3__14listIN4cmDD8one_EoutENS_9allocatorIS2_EEED2Ev
FN:429,_ZNSt3__14listI13min_Eout_infoNS_9allocatorIS1_EEED2Ev
FN:429,_ZNSt3__14listI9dd_vectorNS_9allocatorIS1_EEED2Ev
FN:429,_ZNSt3__14listI6one_muNS_9allocatorIS1_EEED2Ev
FN:429,_ZNSt3__14listI15Boundary_cornerNS_9allocatorIS1_EEED2Ev
FN:429,_ZNSt3__14listI12Eprob_vectorNS_9allocatorIS1_EEED2Ev
FN:429,_ZNSt3__14listI21cumulative_prob_entryNS_9allocatorIS1_EEED2Ev
FN:429,_ZNSt3__14listIdNS_9allocatorIdEEED2Ev
FN:429,_ZNSt3__14listI24standard_Legendre_vectorNS_9allocatorIS1_EEED2Ev
FN:429,_ZNSt3__14listI15Kalbach_one_EinNS_9allocatorIS1_EEED2Ev
FN:429,_ZNSt3__14listIdNS_9allocatorIdEEED1Ev
FN:439,_ZNSt3__121__list_const_iteratorI15Boundary_cornerPvEC2Ev
FN:439,_ZNSt3__121__list_const_iteratorI14Legendre_coefsPvEC1Ev
FN:439,_ZNSt3__121__list_const_iteratorIdPvEC1Ev
FN:439,_ZNSt3__121__list_const_iteratorI21cumulative_prob_entryPvEC2Ev
FN:439,_ZNSt3__121__list_const_iteratorI13min_Eout_infoPvEC2Ev
FN:439,_ZNSt3__121__list_const_iteratorIN4cmDD14one_joint_distEPvEC1Ev
FN:439,_ZNSt3__121__list_const_iteratorI9dd_vectorPvEC2Ev
FN:439,_ZNSt3__121__list_const_iteratorI21cumulative_prob_entryPvEC1Ev
FN:439,_ZNSt3__121__list_const_iteratorIN4cmDD14one_joint_distEPvEC2Ev
FN:439,_ZNSt3__121__list_const_iteratorI13min_Eout_infoPvEC1Ev
FN:439,_ZNSt3__121__list_const_iteratorI12Eprob_vectorPvEC2Ev
FN:439,_ZNSt3__121__list_const_iteratorIN4cmDD8one_EoutEPvEC1Ev
FN:439,_ZNSt3__121__list_const_iteratorIN4cmDD8one_EoutEPvEC2Ev
FN:439,_ZNSt3__121__list_const_iteratorI18cm_Legendre_vectorPvEC1Ev
FN:439,_ZNSt3__121__list_const_iteratorI12Eprob_vectorPvEC1Ev
FN:439,_ZNSt3__121__list_const_iteratorI14Legendre_coefsPvEC2Ev
FN:439,_ZNSt3__121__list_const_iteratorI9dd_vectorPvEC1Ev
FN:439,_ZNSt3__121__list_const_iteratorI18cm_Legendre_vectorPvEC2Ev
FN:439,_ZNSt3__121__list_const_iteratorI15Boundary_cornerPvEC1Ev
FN:439,_ZNSt3__121__list_const_iteratorIdPvEC2Ev
FN:446,_ZNSt3__121__list_const_iteratorI15Vcm_quadBox_HitPvEC2ERKNS_15__list_iteratorIS1_S2_EE
FN:446,_ZNSt3__121__list_const_iteratorIN6quad_F12one_intervalEPvEC1ERKNS_15__list_iteratorIS2_S3_EE
FN:446,_ZNSt3__121__list_const_iteratorI9dd_vectorPvEC1ERKNS_15__list_iteratorIS1_S2_EE
FN:446,_ZNSt3__121__list_const_iteratorI7ss_linkPvEC1ERKNS_15__list_iteratorIS1_S2_EE
FN:446,_ZNSt3__121__list_const_iteratorI9dd_vectorPvEC2ERKNS_15__list_iteratorIS1_S2_EE
FN:446,_ZNSt3__121__list_const_iteratorI18cm_Legendre_vectorPvEC2ERKNS_15__list_iteratorIS1_S2_EE
FN:446,_ZNSt3__121__list_const_iteratorI13min_Eout_infoPvEC1ERKNS_15__list_iteratorIS1_S2_EE
FN:446,_ZNSt3__121__list_const_iteratorI11coef_vectorPvEC2ERKNS_15__list_iteratorIS1_S2_EE
FN:446,_ZNSt3__121__list_const_iteratorI15Vcm_quadBox_HitPvEC1ERKNS_15__list_iteratorIS1_S2_EE
FN:446,_ZNSt3__121__list_const_iteratorI14one_joint_distPvEC1ERKNS_15__list_iteratorIS1_S2_EE
FN:446,_ZNSt3__121__list_const_iteratorIN4cmDD14one_joint_distEPvEC1ERKNS_15__list_iteratorIS2_S3_EE
FN:446,_ZNSt3__121__list_const_iteratorI11coef_vectorPvEC1ERKNS_15__list_iteratorIS1_S2_EE
FN:446,_ZNSt3__121__list_const_iteratorI15Kalbach_one_EinPvEC1ERKNS_15__list_iteratorIS1_S2_EE
FN:446,_ZNSt3__121__list_const_iteratorI11Ein_Eta_HitPvEC2ERKNS_15__list_iteratorIS1_S2_EE
FN:446,_ZNSt3__121__list_const_iteratorI15Boundary_cornerPvEC2ERKNS_15__list_iteratorIS1_S2_EE
FN:446,_ZNSt3__121__list_const_iteratorI12Eprob_vectorPvEC2ERKNS_15__list_iteratorIS1_S2_EE
FN:446,_ZNSt3__121__list_const_iteratorI14Legendre_coefsPvEC2ERKNS_15__list_iteratorIS1_S2_EE
FN:446,_ZNSt3__121__list_const_iteratorIdPvEC1ERKNS_15__list_iteratorIdS1_EE
FN:446,_ZNSt3__121__list_const_iteratorI12Eprob_vectorPvEC1ERKNS_15__list_iteratorIS1_S2_EE
FN:446,_ZNSt3__121__list_const_iteratorI14Legendre_coefsPvEC1ERKNS_15__list_iteratorIS1_S2_EE
FN:446,_ZNSt3__121__list_const_iteratorI24standard_Legendre_vectorPvEC2ERKNS_15__list_iteratorIS1_S2_EE
FN:446,_ZNSt3__121__list_const_iteratorI21cumulative_prob_entryPvEC2ERKNS_15__list_iteratorIS1_S2_EE
FN:446,_ZNSt3__121__list_const_iteratorI11Ein_Eta_HitPvEC1ERKNS_15__list_iteratorIS1_S2_EE
FN:446,_ZNSt3__121__list_const_iteratorI15Boundary_cornerPvEC1ERKNS_15__list_iteratorIS1_S2_EE
FN:446,_ZNSt3__121__list_const_iteratorIN4cmDD8one_EoutEPvEC1ERKNS_15__list_iteratorIS2_S3_EE
FN:446,_ZNSt3__121__list_const_iteratorI18cm_Legendre_vectorPvEC1ERKNS_15__list_iteratorIS1_S2_EE
FN:446,_ZNSt3__121__list_const_iteratorIdPvEC2ERKNS_15__list_iteratorIdS1_EE
FN:446,_ZNSt3__121__list_const_iteratorI13weight_vectorPvEC2ERKNS_15__list_iteratorIS1_S2_EE
FN:446,_ZNSt3__121__list_const_iteratorIN6quad_F12one_intervalEPvEC2ERKNS_15__list_iteratorIS2_S3_EE
FN:446,_ZNSt3__121__list_const_iteratorI13weight_vectorPvEC1ERKNS_15__list_iteratorIS1_S2_EE
FN:446,_ZNSt3__121__list_const_iteratorI21cumulative_prob_entryPvEC1ERKNS_15__list_iteratorIS1_S2_EE
FN:446,_ZNSt3__121__list_const_iteratorIN4cmDD8one_EoutEPvEC2ERKNS_15__list_iteratorIS2_S3_EE
FN:446,_ZNSt3__121__list_const_iteratorI24standard_Legendre_vectorPvEC1ERKNS_15__list_iteratorIS1_S2_EE
FN:446,_ZNSt3__121__list_const_iteratorI14one_joint_distPvEC2ERKNS_15__list_iteratorIS1_S2_EE
FN:446,_ZNSt3__121__list_const_iteratorI15Kalbach_one_EinPvEC2ERKNS_15__list_iteratorIS1_S2_EE
FN:446,_ZNSt3__121__list_const_iteratorIN4cmDD14one_joint_distEPvEC2ERKNS_15__list_iteratorIS2_S3_EE
FN:446,_ZNSt3__121__list_const_iteratorI6one_muPvEC2ERKNS_15__list_iteratorIS1_S2_EE
FN:446,_ZNSt3__121__list_const_iteratorI7ss_linkPvEC2ERKNS_15__list_iteratorIS1_S2_EE
FN:446,_ZNSt3__121__list_const_iteratorI13min_Eout_infoPvEC2ERKNS_15__list_iteratorIS1_S2_EE
FN:446,_ZNSt3__121__list_const_iteratorI6one_muPvEC1ERKNS_15__list_iteratorIS1_S2_EE
FN:482,_ZNKSt3__121__list_const_iteratorIN4cmDD8one_EoutEPvEdeEv
FN:482,_ZNKSt3__121__list_const_iteratorI14Legendre_coefsPvEdeEv
FN:482,_ZNKSt3__121__list_const_iteratorI15Vcm_quadBox_HitPvEdeEv
FN:482,_ZNKSt3__121__list_const_iteratorI12Eprob_vectorPvEdeEv
FN:482,_ZNKSt3__121__list_const_iteratorI21cumulative_prob_entryPvEdeEv
FN:482,_ZNKSt3__121__list_const_iteratorIdPvEdeEv
FN:482,_ZNKSt3__121__list_const_iteratorI6one_muPvEdeEv
FN:491,_ZNKSt3__121__list_const_iteratorI15Boundary_cornerPvEptEv
FN:491,_ZNKSt3__121__list_const_iteratorIN4cmDD8one_EoutEPvEptEv
FN:491,_ZNKSt3__121__list_const_iteratorI15Vcm_quadBox_HitPvEptEv
FN:491,_ZNKSt3__121__list_const_iteratorI9dd_vectorPvEptEv
FN:491,_ZNKSt3__121__list_const_iteratorI14one_joint_distPvEptEv
FN:491,_ZNKSt3__121__list_const_iteratorI14Legendre_coefsPvEptEv
FN:491,_ZNKSt3__121__list_const_iteratorI15Kalbach_one_EinPvEptEv
FN:491,_ZNKSt3__121__list_const_iteratorI11coef_vectorPvEptEv
FN:491,_ZNKSt3__121__list_const_iteratorIN4cmDD14one_joint_distEPvEptEv
FN:491,_ZNKSt3__121__list_const_iteratorI6one_muPvEptEv
FN:491,_ZNKSt3__121__list_const_iteratorI21cumulative_prob_entryPvEptEv
FN:491,_ZNKSt3__121__list_const_iteratorI18cm_Legendre_vectorPvEptEv
FN:491,_ZNKSt3__121__list_const_iteratorI11Ein_Eta_HitPvEptEv
FN:491,_ZNKSt3__121__list_const_iteratorI13min_Eout_infoPvEptEv
FN:491,_ZNKSt3__121__list_const_iteratorI12Eprob_vectorPvEptEv
FN:491,_ZNKSt3__121__list_const_iteratorI24standard_Legendre_vectorPvEptEv
FN:501,_ZNSt3__121__list_const_iteratorI9dd_vectorPvEppEv
FN:501,_ZNSt3__121__list_const_iteratorI15Vcm_quadBox_HitPvEppEv
FN:501,_ZNSt3__121__list_const_iteratorI13min_Eout_infoPvEppEv
FN:501,_ZNSt3__121__list_const_iteratorIN6quad_F12one_intervalEPvEppEv
FN:501,_ZNSt3__121__list_const_iteratorIN4cmDD14one_joint_distEPvEppEv
FN:501,_ZNSt3__121__list_const_iteratorI11Ein_Eta_HitPvEppEv
FN:501,_ZNSt3__121__list_const_iteratorI21cumulative_prob_entryPvEppEv
FN:501,_ZNSt3__121__list_const_iteratorIdPvEppEv
FN:501,_ZNSt3__121__list_const_iteratorI12Eprob_vectorPvEppEv
FN:501,_ZNSt3__121__list_const_iteratorI6one_muPvEppEv
FN:501,_ZNSt3__121__list_const_iteratorI15Boundary_cornerPvEppEv
FN:501,_ZNSt3__121__list_const_iteratorIN4cmDD8one_EoutEPvEppEv
FN:501,_ZNSt3__121__list_const_iteratorI18cm_Legendre_vectorPvEppEv
FN:501,_ZNSt3__121__list_const_iteratorI14Legendre_coefsPvEppEv
FN:501,_ZNSt3__121__list_const_iteratorI11coef_vectorPvEppEv
FN:514,_ZNSt3__121__list_const_iteratorI15Boundary_cornerPvEmmEv
FN:514,_ZNSt3__121__list_const_iteratorI9dd_vectorPvEmmEv
FN:514,_ZNSt3__121__list_const_iteratorI12Eprob_vectorPvEmmEv
FN:514,_ZNSt3__121__list_const_iteratorI14Legendre_coefsPvEmmEv
FN:514,_ZNSt3__121__list_const_iteratorIN4cmDD14one_joint_distEPvEmmEv
FN:514,_ZNSt3__121__list_const_iteratorI24standard_Legendre_vectorPvEmmEv
FN:514,_ZNSt3__121__list_const_iteratorI14one_joint_distPvEmmEv
FN:514,_ZNSt3__121__list_const_iteratorI15Kalbach_one_EinPvEmmEv
FN:514,_ZNSt3__121__list_const_iteratorI18cm_Legendre_vectorPvEmmEv
FN:527,_ZNSt3__1eqERKNS_21__list_const_iteratorIN4cmDD14one_joint_distEPvEES6_
FN:527,_ZNSt3__1eqERKNS_21__list_const_iteratorI9dd_vectorPvEES5_
FN:527,_ZNSt3__1eqERKNS_21__list_const_iteratorI11Ein_Eta_HitPvEES5_
FN:527,_ZNSt3__1eqERKNS_21__list_const_iteratorI18cm_Legendre_vectorPvEES5_
FN:527,_ZNSt3__1eqERKNS_21__list_const_iteratorI15Boundary_cornerPvEES5_
FN:527,_ZNSt3__1eqERKNS_21__list_const_iteratorI11coef_vectorPvEES5_
FN:527,_ZNSt3__1eqERKNS_21__list_const_iteratorI13min_Eout_infoPvEES5_
FN:527,_ZNSt3__1eqERKNS_21__list_const_iteratorIN4cmDD8one_EoutEPvEES6_
FN:527,_ZNSt3__1eqERKNS_21__list_const_iteratorIN6quad_F12one_intervalEPvEES6_
FN:527,_ZNSt3__1eqERKNS_21__list_const_iteratorIdPvEES4_
FN:527,_ZNSt3__1eqERKNS_21__list_const_iteratorI15Vcm_quadBox_HitPvEES5_
FN:527,_ZNSt3__1eqERKNS_21__list_const_iteratorI21cumulative_prob_entryPvEES5_
FN:527,_ZNSt3__1eqERKNS_21__list_const_iteratorI6one_muPvEES5_
FN:527,_ZNSt3__1eqERKNS_21__list_const_iteratorI12Eprob_vectorPvEES5_
FN:527,_ZNSt3__1eqERKNS_21__list_const_iteratorI14Legendre_coefsPvEES5_
FN:532,_ZNSt3__1neERKNS_21__list_const_iteratorI14Legendre_coefsPvEES5_
FN:532,_ZNSt3__1neERKNS_21__list_const_iteratorI15Vcm_quadBox_HitPvEES5_
FN:532,_ZNSt3__1neERKNS_21__list_const_iteratorI11Ein_Eta_HitPvEES5_
FN:532,_ZNSt3__1neERKNS_21__list_const_iteratorI21cumulative_prob_entryPvEES5_
FN:532,_ZNSt3__1neERKNS_21__list_const_iteratorIN6quad_F12one_intervalEPvEES6_
FN:532,_ZNSt3__1neERKNS_21__list_const_iteratorI15Boundary_cornerPvEES5_
FN:532,_ZNSt3__1neERKNS_21__list_const_iteratorI9dd_vectorPvEES5_
FN:532,_ZNSt3__1neERKNS_21__list_const_iteratorIdPvEES4_
FN:532,_ZNSt3__1neERKNS_21__list_const_iteratorI11coef_vectorPvEES5_
FN:532,_ZNSt3__1neERKNS_21__list_const_iteratorIN4cmDD8one_EoutEPvEES6_
FN:532,_ZNSt3__1neERKNS_21__list_const_iteratorI6one_muPvEES5_
FN:573,_ZNKSt3__110__list_impI13weight_vectorNS_9allocatorIS1_EEE13__end_as_linkEv
FN:573,_ZNKSt3__110__list_impI24standard_Legendre_vectorNS_9allocatorIS1_EEE13__end_as_linkEv
FN:573,_ZNKSt3__110__list_impI14Legendre_coefsNS_9allocatorIS1_EEE13__end_as_linkEv
FN:573,_ZNKSt3__110__list_impIdNS_9allocatorIdEEE13__end_as_linkEv
FN:573,_ZNKSt3__110__list_impI9dd_vectorNS_9allocatorIS1_EEE13__end_as_linkEv
FN:573,_ZNKSt3__110__list_impI11coef_vectorNS_9allocatorIS1_EEE13__end_as_linkEv
FN:573,_ZNKSt3__110__list_impI13min_Eout_infoNS_9allocatorIS1_EEE13__end_as_linkEv
FN:573,_ZNKSt3__110__list_impI7ss_linkNS_9allocatorIS1_EEE13__end_as_linkEv
FN:573,_ZNKSt3__110__list_impI15Kalbach_one_EinNS_9allocatorIS1_EEE13__end_as_linkEv
FN:573,_ZNKSt3__110__list_impI12Eprob_vectorNS_9allocatorIS1_EEE13__end_as_linkEv
FN:573,_ZNKSt3__110__list_impI6one_muNS_9allocatorIS1_EEE13__end_as_linkEv
FN:573,_ZNKSt3__110__list_impI11Ein_Eta_HitNS_9allocatorIS1_EEE13__end_as_linkEv
FN:573,_ZNKSt3__110__list_impIN6quad_F12one_intervalENS_9allocatorIS2_EEE13__end_as_linkEv
FN:573,_ZNKSt3__110__list_impI14one_joint_distNS_9allocatorIS1_EEE13__end_as_linkEv
FN:573,_ZNKSt3__110__list_impI15Boundary_cornerNS_9allocatorIS1_EEE13__end_as_linkEv
FN:573,_ZNKSt3__110__list_impIN4cmDD14one_joint_distENS_9allocatorIS2_EEE13__end_as_linkEv
FN:573,_ZNKSt3__110__list_impIN4cmDD8one_EoutENS_9allocatorIS2_EEE13__end_as_linkEv
FN:573,_ZNKSt3__110__list_impI21cumulative_prob_entryNS_9allocatorIS1_EEE13__end_as_linkEv
FN:573,_ZNKSt3__110__list_impI18cm_Legendre_vectorNS_9allocatorIS1_EEE13__end_as_linkEv
FN:573,_ZNKSt3__110__list_impI15Vcm_quadBox_HitNS_9allocatorIS1_EEE13__end_as_linkEv
FN:579,_ZNSt3__110__list_impIN4cmDD14one_joint_distENS_9allocatorIS2_EEE4__szEv
FN:579,_ZNSt3__110__list_impI15Vcm_quadBox_HitNS_9allocatorIS1_EEE4__szEv
FN:579,_ZNSt3__110__list_impI18cm_Legendre_vectorNS_9allocatorIS1_EEE4__szEv
FN:579,_ZNSt3__110__list_impI24standard_Legendre_vectorNS_9allocatorIS1_EEE4__szEv
FN:579,_ZNSt3__110__list_impIN6quad_F12one_intervalENS_9allocatorIS2_EEE4__szEv
FN:579,_ZNSt3__110__list_impI13min_Eout_infoNS_9allocatorIS1_EEE4__szEv
FN:579,_ZNSt3__110__list_impI21cumulative_prob_entryNS_9allocatorIS1_EEE4__szEv
FN:579,_ZNSt3__110__list_impI14one_joint_distNS_9allocatorIS1_EEE4__szEv
FN:579,_ZNSt3__110__list_impI9dd_vectorNS_9allocatorIS1_EEE4__szEv
FN:579,_ZNSt3__110__list_impI14Legendre_coefsNS_9allocatorIS1_EEE4__szEv
FN:579,_ZNSt3__110__list_impIN4cmDD8one_EoutENS_9allocatorIS2_EEE4__szEv
FN:579,_ZNSt3__110__list_impIdNS_9allocatorIdEEE4__szEv
FN:579,_ZNSt3__110__list_impI15Boundary_cornerNS_9allocatorIS1_EEE4__szEv
FN:579,_ZNSt3__110__list_impI7ss_linkNS_9allocatorIS1_EEE4__szEv
FN:579,_ZNSt3__110__list_impI6one_muNS_9allocatorIS1_EEE4__szEv
FN:579,_ZNSt3__110__list_impI12Eprob_vectorNS_9allocatorIS1_EEE4__szEv
FN:579,_ZNSt3__110__list_impI15Kalbach_one_EinNS_9allocatorIS1_EEE4__szEv
FN:579,_ZNSt3__110__list_impI11coef_vectorNS_9allocatorIS1_EEE4__szEv
FN:579,_ZNSt3__110__list_impI13weight_vectorNS_9allocatorIS1_EEE4__szEv
FN:579,_ZNSt3__110__list_impI11Ein_Eta_HitNS_9allocatorIS1_EEE4__szEv
FN:581,_ZNKSt3__110__list_impI11coef_vectorNS_9allocatorIS1_EEE4__szEv
FN:581,_ZNKSt3__110__list_impI13weight_vectorNS_9allocatorIS1_EEE4__szEv
FN:581,_ZNKSt3__110__list_impI15Kalbach_one_EinNS_9allocatorIS1_EEE4__szEv
FN:581,_ZNKSt3__110__list_impIN4cmDD8one_EoutENS_9allocatorIS2_EEE4__szEv
FN:581,_ZNKSt3__110__list_impI14Legendre_coefsNS_9allocatorIS1_EEE4__szEv
FN:581,_ZNKSt3__110__list_impI21cumulative_prob_entryNS_9allocatorIS1_EEE4__szEv
FN:581,_ZNKSt3__110__list_impIdNS_9allocatorIdEEE4__szEv
FN:581,_ZNKSt3__110__list_impI24standard_Legendre_vectorNS_9allocatorIS1_EEE4__szEv
FN:581,_ZNKSt3__110__list_impI12Eprob_vectorNS_9allocatorIS1_EEE4__szEv
FN:581,_ZNKSt3__110__list_impI13min_Eout_infoNS_9allocatorIS1_EEE4__szEv
FN:581,_ZNKSt3__110__list_impI6one_muNS_9allocatorIS1_EEE4__szEv
FN:581,_ZNKSt3__110__list_impI7ss_linkNS_9allocatorIS1_EEE4__szEv
FN:581,_ZNKSt3__110__list_impI15Vcm_quadBox_HitNS_9allocatorIS1_EEE4__szEv
FN:581,_ZNKSt3__110__list_impIN6quad_F12one_intervalENS_9allocatorIS2_EEE4__szEv
FN:581,_ZNKSt3__110__list_impIN4cmDD14one_joint_distENS_9allocatorIS2_EEE4__szEv
FN:581,_ZNKSt3__110__list_impI15Boundary_cornerNS_9allocatorIS1_EEE4__szEv
FN:581,_ZNKSt3__110__list_impI9dd_vectorNS_9allocatorIS1_EEE4__szEv
FN:581,_ZNKSt3__110__list_impI14one_joint_distNS_9allocatorIS1_EEE4__szEv
FN:581,_ZNKSt3__110__list_impI18cm_Legendre_vectorNS_9allocatorIS1_EEE4__szEv
FN:581,_ZNKSt3__110__list_impI11Ein_Eta_HitNS_9allocatorIS1_EEE4__szEv
FN:584,_ZNSt3__110__list_impI12Eprob_vectorNS_9allocatorIS1_EEE12__node_allocEv
FN:584,_ZNSt3__110__list_impI13min_Eout_infoNS_9allocatorIS1_EEE12__node_allocEv
FN:584,_ZNSt3__110__list_impI24standard_Legendre_vectorNS_9allocatorIS1_EEE12__node_allocEv
FN:584,_ZNSt3__110__list_impIN4cmDD14one_joint_distENS_9allocatorIS2_EEE12__node_allocEv
FN:584,_ZNSt3__110__list_impI18cm_Legendre_vectorNS_9allocatorIS1_EEE12__node_allocEv
FN:584,_ZNSt3__110__list_impIN6quad_F12one_intervalENS_9allocatorIS2_EEE12__node_allocEv
FN:584,_ZNSt3__110__list_impI21cumulative_prob_entryNS_9allocatorIS1_EEE12__node_allocEv
FN:584,_ZNSt3__110__list_impI6one_muNS_9allocatorIS1_EEE12__node_allocEv
FN:584,_ZNSt3__110__list_impI9dd_vectorNS_9allocatorIS1_EEE12__node_allocEv
FN:584,_ZNSt3__110__list_impI15Boundary_cornerNS_9allocatorIS1_EEE12__node_allocEv
FN:584,_ZNSt3__110__list_impI14Legendre_coefsNS_9allocatorIS1_EEE12__node_allocEv
FN:584,_ZNSt3__110__list_impI7ss_linkNS_9allocatorIS1_EEE12__node_allocEv
FN:584,_ZNSt3__110__list_impI14one_joint_distNS_9allocatorIS1_EEE12__node_allocEv
FN:584,_ZNSt3__110__list_impI13weight_vectorNS_9allocatorIS1_EEE12__node_allocEv
FN:584,_ZNSt3__110__list_impI11coef_vectorNS_9allocatorIS1_EEE12__node_allocEv
FN:584,_ZNSt3__110__list_impI15Vcm_quadBox_HitNS_9allocatorIS1_EEE12__node_allocEv
FN:584,_ZNSt3__110__list_impI15Kalbach_one_EinNS_9allocatorIS1_EEE12__node_allocEv
FN:584,_ZNSt3__110__list_impIdNS_9allocatorIdEEE12__node_allocEv
FN:584,_ZNSt3__110__list_impIN4cmDD8one_EoutENS_9allocatorIS2_EEE12__node_allocEv
FN:584,_ZNSt3__110__list_impI11Ein_Eta_HitNS_9allocatorIS1_EEE12__node_allocEv
FN:587,_ZNKSt3__110__list_impIN4cmDD8one_EoutENS_9allocatorIS2_EEE12__node_allocEv
FN:587,_ZNKSt3__110__list_impI6one_muNS_9allocatorIS1_EEE12__node_allocEv
FN:587,_ZNKSt3__110__list_impI21cumulative_prob_entryNS_9allocatorIS1_EEE12__node_allocEv
FN:587,_ZNKSt3__110__list_impI14Legendre_coefsNS_9allocatorIS1_EEE12__node_allocEv
FN:610,_ZNKSt3__110__list_impI6one_muNS_9allocatorIS1_EEE5emptyEv
FN:610,_ZNKSt3__110__list_impI13min_Eout_infoNS_9allocatorIS1_EEE5emptyEv
FN:610,_ZNKSt3__110__list_impI14Legendre_coefsNS_9allocatorIS1_EEE5emptyEv
FN:610,_ZNKSt3__110__list_impIdNS_9allocatorIdEEE5emptyEv
FN:610,_ZNKSt3__110__list_impI18cm_Legendre_vectorNS_9allocatorIS1_EEE5emptyEv
FN:610,_ZNKSt3__110__list_impI13weight_vectorNS_9allocatorIS1_EEE5emptyEv
FN:610,_ZNKSt3__110__list_impI15Kalbach_one_EinNS_9allocatorIS1_EEE5emptyEv
FN:610,_ZNKSt3__110__list_impI12Eprob_vectorNS_9allocatorIS1_EEE5emptyEv
FN:610,_ZNKSt3__110__list_impI15Boundary_cornerNS_9allocatorIS1_EEE5emptyEv
FN:610,_ZNKSt3__110__list_impI24standard_Legendre_vectorNS_9allocatorIS1_EEE5emptyEv
FN:610,_ZNKSt3__110__list_impI21cumulative_prob_entryNS_9allocatorIS1_EEE5emptyEv
FN:610,_ZNKSt3__110__list_impI15Vcm_quadBox_HitNS_9allocatorIS1_EEE5emptyEv
FN:610,_ZNKSt3__110__list_impIN4cmDD14one_joint_distENS_9allocatorIS2_EEE5emptyEv
FN:610,_ZNKSt3__110__list_impI11coef_vectorNS_9allocatorIS1_EEE5emptyEv
FN:610,_ZNKSt3__110__list_impIN6quad_F12one_intervalENS_9allocatorIS2_EEE5emptyEv
FN:610,_ZNKSt3__110__list_impI9dd_vectorNS_9allocatorIS1_EEE5emptyEv
FN:610,_ZNKSt3__110__list_impI11Ein_Eta_HitNS_9allocatorIS1_EEE5emptyEv
FN:610,_ZNKSt3__110__list_impIN4cmDD8one_EoutENS_9allocatorIS2_EEE5emptyEv
FN:610,_ZNKSt3__110__list_impI14one_joint_distNS_9allocatorIS1_EEE5emptyEv
FN:610,_ZNKSt3__110__list_impI7ss_linkNS_9allocatorIS1_EEE5emptyEv
FN:613,_ZNSt3__110__list_impIdNS_9allocatorIdEEE5beginEv
FN:613,_ZNSt3__110__list_impI15Kalbach_one_EinNS_9allocatorIS1_EEE5beginEv
FN:613,_ZNSt3__110__list_impI9dd_vectorNS_9allocatorIS1_EEE5beginEv
FN:613,_ZNSt3__110__list_impI11coef_vectorNS_9allocatorIS1_EEE5beginEv
FN:613,_ZNSt3__110__list_impI15Vcm_quadBox_HitNS_9allocatorIS1_EEE5beginEv
FN:613,_ZNSt3__110__list_impI13weight_vectorNS_9allocatorIS1_EEE5beginEv
FN:613,_ZNSt3__110__list_impI14Legendre_coefsNS_9allocatorIS1_EEE5beginEv
FN:613,_ZNSt3__110__list_impI12Eprob_vectorNS_9allocatorIS1_EEE5beginEv
FN:613,_ZNSt3__110__list_impI18cm_Legendre_vectorNS_9allocatorIS1_EEE5beginEv
FN:613,_ZNSt3__110__list_impI7ss_linkNS_9allocatorIS1_EEE5beginEv
FN:613,_ZNSt3__110__list_impI13min_Eout_infoNS_9allocatorIS1_EEE5beginEv
FN:613,_ZNSt3__110__list_impIN6quad_F12one_intervalENS_9allocatorIS2_EEE5beginEv
FN:613,_ZNSt3__110__list_impI24standard_Legendre_vectorNS_9allocatorIS1_EEE5beginEv
FN:613,_ZNSt3__110__list_impIN4cmDD14one_joint_distENS_9allocatorIS2_EEE5beginEv
FN:613,_ZNSt3__110__list_impI15Boundary_cornerNS_9allocatorIS1_EEE5beginEv
FN:613,_ZNSt3__110__list_impIN4cmDD8one_EoutENS_9allocatorIS2_EEE5beginEv
FN:613,_ZNSt3__110__list_impI6one_muNS_9allocatorIS1_EEE5beginEv
FN:613,_ZNSt3__110__list_impI11Ein_Eta_HitNS_9allocatorIS1_EEE5beginEv
FN:613,_ZNSt3__110__list_impI14one_joint_distNS_9allocatorIS1_EEE5beginEv
FN:613,_ZNSt3__110__list_impI21cumulative_prob_entryNS_9allocatorIS1_EEE5beginEv
FN:622,_ZNKSt3__110__list_impIN4cmDD8one_EoutENS_9allocatorIS2_EEE5beginEv
FN:622,_ZNKSt3__110__list_impI14Legendre_coefsNS_9allocatorIS1_EEE5beginEv
FN:622,_ZNKSt3__110__list_impI6one_muNS_9allocatorIS1_EEE5beginEv
FN:622,_ZNKSt3__110__list_impI21cumulative_prob_entryNS_9allocatorIS1_EEE5beginEv
FN:631,_ZNSt3__110__list_impI24standard_Legendre_vectorNS_9allocatorIS1_EEE3endEv
FN:631,_ZNSt3__110__list_impI14one_joint_distNS_9allocatorIS1_EEE3endEv
FN:631,_ZNSt3__110__list_impIN4cmDD14one_joint_distENS_9allocatorIS2_EEE3endEv
FN:631,_ZNSt3__110__list_impI6one_muNS_9allocatorIS1_EEE3endEv
FN:631,_ZNSt3__110__list_impIN4cmDD8one_EoutENS_9allocatorIS2_EEE3endEv
FN:631,_ZNSt3__110__list_impI14Legendre_coefsNS_9allocatorIS1_EEE3endEv
FN:631,_ZNSt3__110__list_impI13min_Eout_infoNS_9allocatorIS1_EEE3endEv
FN:631,_ZNSt3__110__list_impIN6quad_F12one_intervalENS_9allocatorIS2_EEE3endEv
FN:631,_ZNSt3__110__list_impI11Ein_Eta_HitNS_9allocatorIS1_EEE3endEv
FN:631,_ZNSt3__110__list_impI18cm_Legendre_vectorNS_9allocatorIS1_EEE3endEv
FN:631,_ZNSt3__110__list_impI11coef_vectorNS_9allocatorIS1_EEE3endEv
FN:631,_ZNSt3__110__list_impI13weight_vectorNS_9allocatorIS1_EEE3endEv
FN:631,_ZNSt3__110__list_impI9dd_vectorNS_9allocatorIS1_EEE3endEv
FN:631,_ZNSt3__110__list_impI21cumulative_prob_entryNS_9allocatorIS1_EEE3endEv
FN:631,_ZNSt3__110__list_impI15Boundary_cornerNS_9allocatorIS1_EEE3endEv
FN:631,_ZNSt3__110__list_impI12Eprob_vectorNS_9allocatorIS1_EEE3endEv
FN:631,_ZNSt3__110__list_impIdNS_9allocatorIdEEE3endEv
FN:631,_ZNSt3__110__list_impI15Vcm_quadBox_HitNS_9allocatorIS1_EEE3endEv
FN:631,_ZNSt3__110__list_impI15Kalbach_one_EinNS_9allocatorIS1_EEE3endEv
FN:631,_ZNSt3__110__list_impI7ss_linkNS_9allocatorIS1_EEE3endEv
FN:640,_ZNKSt3__110__list_impI6one_muNS_9allocatorIS1_EEE3endEv
FN:640,_ZNKSt3__110__list_impI21cumulative_prob_entryNS_9allocatorIS1_EEE3endEv
FN:640,_ZNKSt3__110__list_impI15Boundary_cornerNS_9allocatorIS1_EEE3endEv
FN:640,_ZNKSt3__110__list_impI14Legendre_coefsNS_9allocatorIS1_EEE3endEv
FN:640,_ZNKSt3__110__list_impIN4cmDD8one_EoutENS_9allocatorIS2_EEE3endEv
FN:696,_ZNSt3__110__list_impI14one_joint_distNS_9allocatorIS1_EEE26__invalidate_all_iteratorsEv
FN:696,_ZNSt3__110__list_impI18cm_Legendre_vectorNS_9allocatorIS1_EEE26__invalidate_all_iteratorsEv
FN:696,_ZNSt3__110__list_impI12Eprob_vectorNS_9allocatorIS1_EEE26__invalidate_all_iteratorsEv
FN:696,_ZNSt3__110__list_impI13min_Eout_infoNS_9allocatorIS1_EEE26__invalidate_all_iteratorsEv
FN:696,_ZNSt3__110__list_impI14Legendre_coefsNS_9allocatorIS1_EEE26__invalidate_all_iteratorsEv
FN:696,_ZNSt3__110__list_impI11Ein_Eta_HitNS_9allocatorIS1_EEE26__invalidate_all_iteratorsEv
FN:696,_ZNSt3__110__list_impI7ss_linkNS_9allocatorIS1_EEE26__invalidate_all_iteratorsEv
FN:696,_ZNSt3__110__list_impIN4cmDD8one_EoutENS_9allocatorIS2_EEE26__invalidate_all_iteratorsEv
FN:696,_ZNSt3__110__list_impI15Boundary_cornerNS_9allocatorIS1_EEE26__invalidate_all_iteratorsEv
FN:696,_ZNSt3__110__list_impI6one_muNS_9allocatorIS1_EEE26__invalidate_all_iteratorsEv
FN:696,_ZNSt3__110__list_impIdNS_9allocatorIdEEE26__invalidate_all_iteratorsEv
FN:696,_ZNSt3__110__list_impI15Vcm_quadBox_HitNS_9allocatorIS1_EEE26__invalidate_all_iteratorsEv
FN:696,_ZNSt3__110__list_impI11coef_vectorNS_9allocatorIS1_EEE26__invalidate_all_iteratorsEv
FN:696,_ZNSt3__110__list_impI13weight_vectorNS_9allocatorIS1_EEE26__invalidate_all_iteratorsEv
FN:696,_ZNSt3__110__list_impIN4cmDD14one_joint_distENS_9allocatorIS2_EEE26__invalidate_all_iteratorsEv
FN:696,_ZNSt3__110__list_impI21cumulative_prob_entryNS_9allocatorIS1_EEE26__invalidate_all_iteratorsEv
FN:696,_ZNSt3__110__list_impI15Kalbach_one_EinNS_9allocatorIS1_EEE26__invalidate_all_iteratorsEv
FN:696,_ZNSt3__110__list_impIN6quad_F12one_intervalENS_9allocatorIS2_EEE26__invalidate_all_iteratorsEv
FN:696,_ZNSt3__110__list_impI9dd_vectorNS_9allocatorIS1_EEE26__invalidate_all_iteratorsEv
FN:696,_ZNSt3__110__list_impI24standard_Legendre_vectorNS_9allocatorIS1_EEE26__invalidate_all_iteratorsEv
FN:707,_ZNSt3__110__list_impI7ss_linkNS_9allocatorIS1_EEE14__unlink_nodesEPNS_16__list_node_baseIS1_PvEES8_
FN:707,_ZNSt3__110__list_impIdNS_9allocatorIdEEE14__unlink_nodesEPNS_16__list_node_baseIdPvEES7_
FN:707,_ZNSt3__110__list_impIN4cmDD14one_joint_distENS_9allocatorIS2_EEE14__unlink_nodesEPNS_16__list_node_baseIS2_PvEES9_
FN:707,_ZNSt3__110__list_impI14Legendre_coefsNS_9allocatorIS1_EEE14__unlink_nodesEPNS_16__list_node_baseIS1_PvEES8_
FN:707,_ZNSt3__110__list_impIN4cmDD8one_EoutENS_9allocatorIS2_EEE14__unlink_nodesEPNS_16__list_node_baseIS2_PvEES9_
FN:707,_ZNSt3__110__list_impI15Vcm_quadBox_HitNS_9allocatorIS1_EEE14__unlink_nodesEPNS_16__list_node_baseIS1_PvEES8_
FN:707,_ZNSt3__110__list_impI13weight_vectorNS_9allocatorIS1_EEE14__unlink_nodesEPNS_16__list_node_baseIS1_PvEES8_
FN:707,_ZNSt3__110__list_impI11Ein_Eta_HitNS_9allocatorIS1_EEE14__unlink_nodesEPNS_16__list_node_baseIS1_PvEES8_
FN:707,_ZNSt3__110__list_impI12Eprob_vectorNS_9allocatorIS1_EEE14__unlink_nodesEPNS_16__list_node_baseIS1_PvEES8_
FN:707,_ZNSt3__110__list_impI6one_muNS_9allocatorIS1_EEE14__unlink_nodesEPNS_16__list_node_baseIS1_PvEES8_
FN:707,_ZNSt3__110__list_impI11coef_vectorNS_9allocatorIS1_EEE14__unlink_nodesEPNS_16__list_node_baseIS1_PvEES8_
FN:707,_ZNSt3__110__list_impI15Boundary_cornerNS_9allocatorIS1_EEE14__unlink_nodesEPNS_16__list_node_baseIS1_PvEES8_
FN:707,_ZNSt3__110__list_impIN6quad_F12one_intervalENS_9allocatorIS2_EEE14__unlink_nodesEPNS_16__list_node_baseIS2_PvEES9_
FN:707,_ZNSt3__110__list_impI13min_Eout_infoNS_9allocatorIS1_EEE14__unlink_nodesEPNS_16__list_node_baseIS1_PvEES8_
FN:707,_ZNSt3__110__list_impI18cm_Legendre_vectorNS_9allocatorIS1_EEE14__unlink_nodesEPNS_16__list_node_baseIS1_PvEES8_
FN:707,_ZNSt3__110__list_impI9dd_vectorNS_9allocatorIS1_EEE14__unlink_nodesEPNS_16__list_node_baseIS1_PvEES8_
FN:707,_ZNSt3__110__list_impI14one_joint_distNS_9allocatorIS1_EEE14__unlink_nodesEPNS_16__list_node_baseIS1_PvEES8_
FN:707,_ZNSt3__110__list_impI15Kalbach_one_EinNS_9allocatorIS1_EEE14__unlink_nodesEPNS_16__list_node_baseIS1_PvEES8_
FN:707,_ZNSt3__110__list_impI21cumulative_prob_entryNS_9allocatorIS1_EEE14__unlink_nodesEPNS_16__list_node_baseIS1_PvEES8_
FN:707,_ZNSt3__110__list_impI24standard_Legendre_vectorNS_9allocatorIS1_EEE14__unlink_nodesEPNS_16__list_node_baseIS1_PvEES8_
FN:716,_ZNSt3__110__list_impIN4cmDD14one_joint_distENS_9allocatorIS2_EEEC2Ev
FN:716,_ZNSt3__110__list_impI15Boundary_cornerNS_9allocatorIS1_EEEC2Ev
FN:716,_ZNSt3__110__list_impI21cumulative_prob_entryNS_9allocatorIS1_EEEC2Ev
FN:716,_ZNSt3__110__list_impIN4cmDD8one_EoutENS_9allocatorIS2_EEEC2Ev
FN:716,_ZNSt3__110__list_impIdNS_9allocatorIdEEEC2Ev
FN:716,_ZNSt3__110__list_impI12Eprob_vectorNS_9allocatorIS1_EEEC2Ev
FN:716,_ZNSt3__110__list_impI11coef_vectorNS_9allocatorIS1_EEEC2Ev
FN:716,_ZNSt3__110__list_impI9dd_vectorNS_9allocatorIS1_EEEC2Ev
FN:716,_ZNSt3__110__list_impI18cm_Legendre_vectorNS_9allocatorIS1_EEEC2Ev
FN:716,_ZNSt3__110__list_impI7ss_linkNS_9allocatorIS1_EEEC2Ev
FN:716,_ZNSt3__110__list_impI6one_muNS_9allocatorIS1_EEEC2Ev
FN:716,_ZNSt3__110__list_impI13weight_vectorNS_9allocatorIS1_EEEC2Ev
FN:716,_ZNSt3__110__list_impI14one_joint_distNS_9allocatorIS1_EEEC2Ev
FN:716,_ZNSt3__110__list_impI15Kalbach_one_EinNS_9allocatorIS1_EEEC2Ev
FN:716,_ZNSt3__110__list_impIN6quad_F12one_intervalENS_9allocatorIS2_EEEC2Ev
FN:716,_ZNSt3__110__list_impI24standard_Legendre_vectorNS_9allocatorIS1_EEEC2Ev
FN:716,_ZNSt3__110__list_impI14Legendre_coefsNS_9allocatorIS1_EEEC2Ev
FN:716,_ZNSt3__110__list_impI13min_Eout_infoNS_9allocatorIS1_EEEC2Ev
FN:716,_ZNSt3__110__list_impI11Ein_Eta_HitNS_9allocatorIS1_EEEC2Ev
FN:716,_ZNSt3__110__list_impI15Vcm_quadBox_HitNS_9allocatorIS1_EEEC2Ev
FN:730,_ZNSt3__110__list_impI6one_muNS_9allocatorIS1_EEEC2ERKNS2_INS_11__list_nodeIS1_PvEEEE
FN:730,_ZNSt3__110__list_impI14Legendre_coefsNS_9allocatorIS1_EEEC2ERKNS2_INS_11__list_nodeIS1_PvEEEE
FN:730,_ZNSt3__110__list_impI21cumulative_prob_entryNS_9allocatorIS1_EEEC2ERKNS2_INS_11__list_nodeIS1_PvEEEE
FN:730,_ZNSt3__110__list_impIN4cmDD8one_EoutENS_9allocatorIS2_EEEC2ERKNS3_INS_11__list_nodeIS2_PvEEEE
FN:740,_ZNSt3__110__list_impI9dd_vectorNS_9allocatorIS1_EEED2Ev
FN:740,_ZNSt3__110__list_impIN6quad_F12one_intervalENS_9allocatorIS2_EEED2Ev
FN:740,_ZNSt3__110__list_impI7ss_linkNS_9allocatorIS1_EEED2Ev
FN:740,_ZNSt3__110__list_impIdNS_9allocatorIdEEED2Ev
FN:740,_ZNSt3__110__list_impI13min_Eout_infoNS_9allocatorIS1_EEED2Ev
FN:740,_ZNSt3__110__list_impI15Kalbach_one_EinNS_9allocatorIS1_EEED2Ev
FN:740,_ZNSt3__110__list_impI11coef_vectorNS_9allocatorIS1_EEED2Ev
FN:740,_ZNSt3__110__list_impI11Ein_Eta_HitNS_9allocatorIS1_EEED2Ev
FN:740,_ZNSt3__110__list_impI18cm_Legendre_vectorNS_9allocatorIS1_EEED2Ev
FN:740,_ZNSt3__110__list_impI14one_joint_distNS_9allocatorIS1_EEED2Ev
FN:740,_ZNSt3__110__list_impI12Eprob_vectorNS_9allocatorIS1_EEED2Ev
FN:740,_ZNSt3__110__list_impI13weight_vectorNS_9allocatorIS1_EEED2Ev
FN:740,_ZNSt3__110__list_impI15Vcm_quadBox_HitNS_9allocatorIS1_EEED2Ev
FN:740,_ZNSt3__110__list_impI24standard_Legendre_vectorNS_9allocatorIS1_EEED2Ev
FN:740,_ZNSt3__110__list_impIN4cmDD14one_joint_distENS_9allocatorIS2_EEED2Ev
FN:740,_ZNSt3__110__list_impI6one_muNS_9allocatorIS1_EEED2Ev
FN:740,_ZNSt3__110__list_impI15Boundary_cornerNS_9allocatorIS1_EEED2Ev
FN:740,_ZNSt3__110__list_impI21cumulative_prob_entryNS_9allocatorIS1_EEED2Ev
FN:740,_ZNSt3__110__list_impI14Legendre_coefsNS_9allocatorIS1_EEED2Ev
FN:740,_ZNSt3__110__list_impIN4cmDD8one_EoutENS_9allocatorIS2_EEED2Ev
FN:749,_ZNSt3__110__list_impI15Boundary_cornerNS_9allocatorIS1_EEE5clearEv
FN:749,_ZNSt3__110__list_impI11Ein_Eta_HitNS_9allocatorIS1_EEE5clearEv
FN:749,_ZNSt3__110__list_impIN6quad_F12one_intervalENS_9allocatorIS2_EEE5clearEv
FN:749,_ZNSt3__110__list_impI7ss_linkNS_9allocatorIS1_EEE5clearEv
FN:749,_ZNSt3__110__list_impI13weight_vectorNS_9allocatorIS1_EEE5clearEv
FN:749,_ZNSt3__110__list_impI6one_muNS_9allocatorIS1_EEE5clearEv
FN:749,_ZNSt3__110__list_impIN4cmDD8one_EoutENS_9allocatorIS2_EEE5clearEv
FN:749,_ZNSt3__110__list_impI9dd_vectorNS_9allocatorIS1_EEE5clearEv
FN:749,_ZNSt3__110__list_impI11coef_vectorNS_9allocatorIS1_EEE5clearEv
FN:749,_ZNSt3__110__list_impI12Eprob_vectorNS_9allocatorIS1_EEE5clearEv
FN:749,_ZNSt3__110__list_impI21cumulative_prob_entryNS_9allocatorIS1_EEE5clearEv
FN:749,_ZNSt3__110__list_impI13min_Eout_infoNS_9allocatorIS1_EEE5clearEv
FN:749,_ZNSt3__110__list_impIdNS_9allocatorIdEEE5clearEv
FN:749,_ZNSt3__110__list_impIN4cmDD14one_joint_distENS_9allocatorIS2_EEE5clearEv
FN:749,_ZNSt3__110__list_impI14one_joint_distNS_9allocatorIS1_EEE5clearEv
FN:749,_ZNSt3__110__list_impI14Legendre_coefsNS_9allocatorIS1_EEE5clearEv
FN:749,_ZNSt3__110__list_impI15Vcm_quadBox_HitNS_9allocatorIS1_EEE5clearEv
FN:749,_ZNSt3__110__list_impI24standard_Legendre_vectorNS_9allocatorIS1_EEE5clearEv
FN:749,_ZNSt3__110__list_impI15Kalbach_one_EinNS_9allocatorIS1_EEE5clearEv
FN:749,_ZNSt3__110__list_impI18cm_Legendre_vectorNS_9allocatorIS1_EEE5clearEv
FN:834,_ZNSt3__14listI14Legendre_coefsNS_9allocatorIS1_EEED2Ev
FN:834,_ZNSt3__14listI13weight_vectorNS_9allocatorIS1_EEED2Ev
FN:834,_ZNSt3__14listI11Ein_Eta_HitNS_9allocatorIS1_EEED2Ev
FN:834,_ZNSt3__14listI7ss_linkNS_9allocatorIS1_EEED2Ev
FN:863,_ZNSt3__14listIN4cmDD8one_EoutENS_9allocatorIS2_EEEC2Ev
FN:863,_ZNSt3__14listI15Kalbach_one_EinNS_9allocatorIS1_EEEC2Ev
FN:863,_ZNSt3__14listI15Vcm_quadBox_HitNS_9allocatorIS1_EEEC1Ev
FN:863,_ZNSt3__14listI12Eprob_vectorNS_9allocatorIS1_EEEC2Ev
FN:863,_ZNSt3__14listIdNS_9allocatorIdEEEC1Ev
FN:863,_ZNSt3__14listI6one_muNS_9allocatorIS1_EEEC2Ev
FN:863,_ZNSt3__14listIN6quad_F12one_intervalENS_9allocatorIS2_EEEC2Ev
FN:863,_ZNSt3__14listI13min_Eout_infoNS_9allocatorIS1_EEEC2Ev
FN:863,_ZNSt3__14listI13weight_vectorNS_9allocatorIS1_EEEC2Ev
FN:863,_ZNSt3__14listI24standard_Legendre_vectorNS_9allocatorIS1_EEEC2Ev
FN:863,_ZNSt3__14listI7ss_linkNS_9allocatorIS1_EEEC2Ev
FN:863,_ZNSt3__14listI14Legendre_coefsNS_9allocatorIS1_EEEC2Ev
FN:863,_ZNSt3__14listI11Ein_Eta_HitNS_9allocatorIS1_EEEC2Ev
FN:863,_ZNSt3__14listI18cm_Legendre_vectorNS_9allocatorIS1_EEEC2Ev
FN:863,_ZNSt3__14listI11coef_vectorNS_9allocatorIS1_EEEC1Ev
FN:863,_ZNSt3__14listI15Boundary_cornerNS_9allocatorIS1_EEEC2Ev
FN:863,_ZNSt3__14listIN4cmDD14one_joint_distENS_9allocatorIS2_EEEC2Ev
FN:863,_ZNSt3__14listI21cumulative_prob_entryNS_9allocatorIS1_EEEC2Ev
FN:863,_ZNSt3__14listI9dd_vectorNS_9allocatorIS1_EEEC2Ev
FN:863,_ZNSt3__14listI15Vcm_quadBox_HitNS_9allocatorIS1_EEEC2Ev
FN:863,_ZNSt3__14listI14one_joint_distNS_9allocatorIS1_EEEC2Ev
FN:863,_ZNSt3__14listI11coef_vectorNS_9allocatorIS1_EEEC2Ev
FN:863,_ZNSt3__14listIdNS_9allocatorIdEEEC2Ev
FN:927,_ZNKSt3__14listI15Boundary_cornerNS_9allocatorIS1_EEE4sizeEv
FN:927,_ZNKSt3__14listI11coef_vectorNS_9allocatorIS1_EEE4sizeEv
FN:927,_ZNKSt3__14listIN6quad_F12one_intervalENS_9allocatorIS2_EEE4sizeEv
FN:927,_ZNKSt3__14listI11Ein_Eta_HitNS_9allocatorIS1_EEE4sizeEv
FN:927,_ZNKSt3__14listI9dd_vectorNS_9allocatorIS1_EEE4sizeEv
FN:927,_ZNKSt3__14listI15Vcm_quadBox_HitNS_9allocatorIS1_EEE4sizeEv
FN:929,_ZNKSt3__14listI9dd_vectorNS_9allocatorIS1_EEE5emptyEv
FN:929,_ZNKSt3__14listIN6quad_F12one_intervalENS_9allocatorIS2_EEE5emptyEv
FN:929,_ZNKSt3__14listI14Legendre_coefsNS_9allocatorIS1_EEE5emptyEv
FN:929,_ZNKSt3__14listIdNS_9allocatorIdEEE5emptyEv
FN:929,_ZNKSt3__14listI11Ein_Eta_HitNS_9allocatorIS1_EEE5emptyEv
FN:939,_ZNSt3__14listI18cm_Legendre_vectorNS_9allocatorIS1_EEE5beginEv
FN:939,_ZNSt3__14listI9dd_vectorNS_9allocatorIS1_EEE5beginEv
FN:939,_ZNSt3__14listIN4cmDD14one_joint_distENS_9allocatorIS2_EEE5beginEv
FN:939,_ZNSt3__14listI15Kalbach_one_EinNS_9allocatorIS1_EEE5beginEv
FN:939,_ZNSt3__14listI14one_joint_distNS_9allocatorIS1_EEE5beginEv
FN:939,_ZNSt3__14listI12Eprob_vectorNS_9allocatorIS1_EEE5beginEv
FN:939,_ZNSt3__14listI11Ein_Eta_HitNS_9allocatorIS1_EEE5beginEv
FN:939,_ZNSt3__14listI15Vcm_quadBox_HitNS_9allocatorIS1_EEE5beginEv
FN:939,_ZNSt3__14listI21cumulative_prob_entryNS_9allocatorIS1_EEE5beginEv
FN:939,_ZNSt3__14listI24standard_Legendre_vectorNS_9allocatorIS1_EEE5beginEv
FN:939,_ZNSt3__14listI13min_Eout_infoNS_9allocatorIS1_EEE5beginEv
FN:939,_ZNSt3__14listI15Boundary_cornerNS_9allocatorIS1_EEE5beginEv
FN:939,_ZNSt3__14listI14Legendre_coefsNS_9allocatorIS1_EEE5beginEv
FN:939,_ZNSt3__14listIN4cmDD8one_EoutENS_9allocatorIS2_EEE5beginEv
FN:939,_ZNSt3__14listIN6quad_F12one_intervalENS_9allocatorIS2_EEE5beginEv
FN:939,_ZNSt3__14listI13weight_vectorNS_9allocatorIS1_EEE5beginEv
FN:939,_ZNSt3__14listI11coef_vectorNS_9allocatorIS1_EEE5beginEv
FN:939,_ZNSt3__14listI6one_muNS_9allocatorIS1_EEE5beginEv
FN:939,_ZNSt3__14listI7ss_linkNS_9allocatorIS1_EEE5beginEv
FN:939,_ZNSt3__14listIdNS_9allocatorIdEEE5beginEv
FN:941,_ZNKSt3__14listI6one_muNS_9allocatorIS1_EEE5beginEv
FN:941,_ZNKSt3__14listI14Legendre_coefsNS_9allocatorIS1_EEE5beginEv
FN:941,_ZNKSt3__14listIN4cmDD8one_EoutENS_9allocatorIS2_EEE5beginEv
FN:941,_ZNKSt3__14listI21cumulative_prob_entryNS_9allocatorIS1_EEE5beginEv
FN:943,_ZNSt3__14listIN4cmDD14one_joint_distENS_9allocatorIS2_EEE3endEv
FN:943,_ZNSt3__14listI11coef_vectorNS_9allocatorIS1_EEE3endEv
FN:943,_ZNSt3__14listI13weight_vectorNS_9allocatorIS1_EEE3endEv
FN:943,_ZNSt3__14listI11Ein_Eta_HitNS_9allocatorIS1_EEE3endEv
FN:943,_ZNSt3__14listI12Eprob_vectorNS_9allocatorIS1_EEE3endEv
FN:943,_ZNSt3__14listI6one_muNS_9allocatorIS1_EEE3endEv
FN:943,_ZNSt3__14listI7ss_linkNS_9allocatorIS1_EEE3endEv
FN:943,_ZNSt3__14listIdNS_9allocatorIdEEE3endEv
FN:943,_ZNSt3__14listI15Vcm_quadBox_HitNS_9allocatorIS1_EEE3endEv
FN:943,_ZNSt3__14listI24standard_Legendre_vectorNS_9allocatorIS1_EEE3endEv
FN:943,_ZNSt3__14listI9dd_vectorNS_9allocatorIS1_EEE3endEv
FN:943,_ZNSt3__14listIN4cmDD8one_EoutENS_9allocatorIS2_EEE3endEv
FN:943,_ZNSt3__14listI13min_Eout_infoNS_9allocatorIS1_EEE3endEv
FN:943,_ZNSt3__14listIN6quad_F12one_intervalENS_9allocatorIS2_EEE3endEv
FN:943,_ZNSt3__14listI14Legendre_coefsNS_9allocatorIS1_EEE3endEv
FN:943,_ZNSt3__14listI15Kalbach_one_EinNS_9allocatorIS1_EEE3endEv
FN:943,_ZNSt3__14listI18cm_Legendre_vectorNS_9allocatorIS1_EEE3endEv
FN:943,_ZNSt3__14listI14one_joint_distNS_9allocatorIS1_EEE3endEv
FN:943,_ZNSt3__14listI21cumulative_prob_entryNS_9allocatorIS1_EEE3endEv
FN:943,_ZNSt3__14listI15Boundary_cornerNS_9allocatorIS1_EEE3endEv
FN:945,_ZNKSt3__14listI15Boundary_cornerNS_9allocatorIS1_EEE3endEv
FN:945,_ZNKSt3__14listI14Legendre_coefsNS_9allocatorIS1_EEE3endEv
FN:945,_ZNKSt3__14listIN4cmDD8one_EoutENS_9allocatorIS2_EEE3endEv
FN:945,_ZNKSt3__14listI6one_muNS_9allocatorIS1_EEE3endEv
FN:945,_ZNKSt3__14listI21cumulative_prob_entryNS_9allocatorIS1_EEE3endEv
FN:1107,_ZNSt3__14listI11coef_vectorNS_9allocatorIS1_EEE15__allocate_nodeERNS2_INS_11__list_nodeIS1_PvEEEE
FN:1107,_ZNSt3__14listI15Kalbach_one_EinNS_9allocatorIS1_EEE15__allocate_nodeERNS2_INS_11__list_nodeIS1_PvEEEE
FN:1107,_ZNSt3__14listIN6quad_F12one_intervalENS_9allocatorIS2_EEE15__allocate_nodeERNS3_INS_11__list_nodeIS2_PvEEEE
FN:1107,_ZNSt3__14listI21cumulative_prob_entryNS_9allocatorIS1_EEE15__allocate_nodeERNS2_INS_11__list_nodeIS1_PvEEEE
FN:1107,_ZNSt3__14listI18cm_Legendre_vectorNS_9allocatorIS1_EEE15__allocate_nodeERNS2_INS_11__list_nodeIS1_PvEEEE
FN:1107,_ZNSt3__14listI14Legendre_coefsNS_9allocatorIS1_EEE15__allocate_nodeERNS2_INS_11__list_nodeIS1_PvEEEE
FN:1107,_ZNSt3__14listI7ss_linkNS_9allocatorIS1_EEE15__allocate_nodeERNS2_INS_11__list_nodeIS1_PvEEEE
FN:1107,_ZNSt3__14listIN4cmDD8one_EoutENS_9allocatorIS2_EEE15__allocate_nodeERNS3_INS_11__list_nodeIS2_PvEEEE
FN:1107,_ZNSt3__14listI15Boundary_cornerNS_9allocatorIS1_EEE15__allocate_nodeERNS2_INS_11__list_nodeIS1_PvEEEE
FN:1107,_ZNSt3__14listI9dd_vectorNS_9allocatorIS1_EEE15__allocate_nodeERNS2_INS_11__list_nodeIS1_PvEEEE
FN:1107,_ZNSt3__14listI12Eprob_vectorNS_9allocatorIS1_EEE15__allocate_nodeERNS2_INS_11__list_nodeIS1_PvEEEE
FN:1107,_ZNSt3__14listI6one_muNS_9allocatorIS1_EEE15__allocate_nodeERNS2_INS_11__list_nodeIS1_PvEEEE
FN:1107,_ZNSt3__14listI24standard_Legendre_vectorNS_9allocatorIS1_EEE15__allocate_nodeERNS2_INS_11__list_nodeIS1_PvEEEE
FN:1107,_ZNSt3__14listIdNS_9allocatorIdEEE15__allocate_nodeERNS1_INS_11__list_nodeIdPvEEEE
FN:1107,_ZNSt3__14listIN4cmDD14one_joint_distENS_9allocatorIS2_EEE15__allocate_nodeERNS3_INS_11__list_nodeIS2_PvEEEE
FN:1107,_ZNSt3__14listI11Ein_Eta_HitNS_9allocatorIS1_EEE15__allocate_nodeERNS2_INS_11__list_nodeIS1_PvEEEE
FN:1107,_ZNSt3__14listI13min_Eout_infoNS_9allocatorIS1_EEE15__allocate_nodeERNS2_INS_11__list_nodeIS1_PvEEEE
FN:1107,_ZNSt3__14listI15Vcm_quadBox_HitNS_9allocatorIS1_EEE15__allocate_nodeERNS2_INS_11__list_nodeIS1_PvEEEE
FN:1107,_ZNSt3__14listI13weight_vectorNS_9allocatorIS1_EEE15__allocate_nodeERNS2_INS_11__list_nodeIS1_PvEEEE
FN:1107,_ZNSt3__14listI14one_joint_distNS_9allocatorIS1_EEE15__allocate_nodeERNS2_INS_11__list_nodeIS1_PvEEEE
FN:1158,_ZNSt3__14listI12Eprob_vectorNS_9allocatorIS1_EEE12__link_nodesEPNS_16__list_node_baseIS1_PvEES8_S8_
FN:1158,_ZNSt3__14listIN6quad_F12one_intervalENS_9allocatorIS2_EEE12__link_nodesEPNS_16__list_node_baseIS2_PvEES9_S9_
FN:1158,_ZNSt3__14listI13weight_vectorNS_9allocatorIS1_EEE12__link_nodesEPNS_16__list_node_baseIS1_PvEES8_S8_
FN:1158,_ZNSt3__14listIN4cmDD8one_EoutENS_9allocatorIS2_EEE12__link_nodesEPNS_16__list_node_baseIS2_PvEES9_S9_
FN:1158,_ZNSt3__14listIdNS_9allocatorIdEEE12__link_nodesEPNS_16__list_node_baseIdPvEES7_S7_
FN:1158,_ZNSt3__14listI15Vcm_quadBox_HitNS_9allocatorIS1_EEE12__link_nodesEPNS_16__list_node_baseIS1_PvEES8_S8_
FN:1158,_ZNSt3__14listI9dd_vectorNS_9allocatorIS1_EEE12__link_nodesEPNS_16__list_node_baseIS1_PvEES8_S8_
FN:1158,_ZNSt3__14listIN4cmDD14one_joint_distENS_9allocatorIS2_EEE12__link_nodesEPNS_16__list_node_baseIS2_PvEES9_S9_
FN:1158,_ZNSt3__14listI6one_muNS_9allocatorIS1_EEE12__link_nodesEPNS_16__list_node_baseIS1_PvEES8_S8_
FN:1158,_ZNSt3__14listI21cumulative_prob_entryNS_9allocatorIS1_EEE12__link_nodesEPNS_16__list_node_baseIS1_PvEES8_S8_
FN:1158,_ZNSt3__14listI15Kalbach_one_EinNS_9allocatorIS1_EEE12__link_nodesEPNS_16__list_node_baseIS1_PvEES8_S8_
FN:1158,_ZNSt3__14listI7ss_linkNS_9allocatorIS1_EEE12__link_nodesEPNS_16__list_node_baseIS1_PvEES8_S8_
FN:1158,_ZNSt3__14listI14one_joint_distNS_9allocatorIS1_EEE12__link_nodesEPNS_16__list_node_baseIS1_PvEES8_S8_
FN:1158,_ZNSt3__14listI14Legendre_coefsNS_9allocatorIS1_EEE12__link_nodesEPNS_16__list_node_baseIS1_PvEES8_S8_
FN:1158,_ZNSt3__14listI24standard_Legendre_vectorNS_9allocatorIS1_EEE12__link_nodesEPNS_16__list_node_baseIS1_PvEES8_S8_
FN:1158,_ZNSt3__14listI11Ein_Eta_HitNS_9allocatorIS1_EEE12__link_nodesEPNS_16__list_node_baseIS1_PvEES8_S8_
FN:1158,_ZNSt3__14listI18cm_Legendre_vectorNS_9allocatorIS1_EEE12__link_nodesEPNS_16__list_node_baseIS1_PvEES8_S8_
FN:1170,_ZNSt3__14listI15Vcm_quadBox_HitNS_9allocatorIS1_EEE21__link_nodes_at_frontEPNS_16__list_node_baseIS1_PvEES8_
FN:1170,_ZNSt3__14listI11Ein_Eta_HitNS_9allocatorIS1_EEE21__link_nodes_at_frontEPNS_16__list_node_baseIS1_PvEES8_
FN:1182,_ZNSt3__14listI14Legendre_coefsNS_9allocatorIS1_EEE20__link_nodes_at_backEPNS_16__list_node_baseIS1_PvEES8_
FN:1182,_ZNSt3__14listI21cumulative_prob_entryNS_9allocatorIS1_EEE20__link_nodes_at_backEPNS_16__list_node_baseIS1_PvEES8_
FN:1182,_ZNSt3__14listI15Boundary_cornerNS_9allocatorIS1_EEE20__link_nodes_at_backEPNS_16__list_node_baseIS1_PvEES8_
FN:1182,_ZNSt3__14listI13min_Eout_infoNS_9allocatorIS1_EEE20__link_nodes_at_backEPNS_16__list_node_baseIS1_PvEES8_
FN:1182,_ZNSt3__14listI6one_muNS_9allocatorIS1_EEE20__link_nodes_at_backEPNS_16__list_node_baseIS1_PvEES8_
FN:1182,_ZNSt3__14listIdNS_9allocatorIdEEE20__link_nodes_at_backEPNS_16__list_node_baseIdPvEES7_
FN:1182,_ZNSt3__14listI11coef_vectorNS_9allocatorIS1_EEE20__link_nodes_at_backEPNS_16__list_node_baseIS1_PvEES8_
FN:1182,_ZNSt3__14listIN4cmDD8one_EoutENS_9allocatorIS2_EEE20__link_nodes_at_backEPNS_16__list_node_baseIS2_PvEES9_
FN:1182,_ZNSt3__14listI15Vcm_quadBox_HitNS_9allocatorIS1_EEE20__link_nodes_at_backEPNS_16__list_node_baseIS1_PvEES8_
FN:1182,_ZNSt3__14listI11Ein_Eta_HitNS_9allocatorIS1_EEE20__link_nodes_at_backEPNS_16__list_node_baseIS1_PvEES8_
FN:1273,_ZNSt3__14listI21cumulative_prob_entryNS_9allocatorIS1_EEEC2ERKS4_
FN:1273,_ZNSt3__14listIN4cmDD8one_EoutENS_9allocatorIS2_EEEC2ERKS5_
FN:1273,_ZNSt3__14listI6one_muNS_9allocatorIS1_EEEC2ERKS4_
FN:1273,_ZNSt3__14listI14Legendre_coefsNS_9allocatorIS1_EEEC2ERKS4_
FN:1443,_ZNSt3__14listI21cumulative_prob_entryNS_9allocatorIS1_EEE6insertENS_21__list_const_iteratorIS1_PvEERKS1_
FN:1443,_ZNSt3__14listI14one_joint_distNS_9allocatorIS1_EEE6insertENS_21__list_const_iteratorIS1_PvEERKS1_
FN:1443,_ZNSt3__14listI13weight_vectorNS_9allocatorIS1_EEE6insertENS_21__list_const_iteratorIS1_PvEERKS1_
FN:1443,_ZNSt3__14listI15Kalbach_one_EinNS_9allocatorIS1_EEE6insertENS_21__list_const_iteratorIS1_PvEERKS1_
FN:1443,_ZNSt3__14listIN4cmDD14one_joint_distENS_9allocatorIS2_EEE6insertENS_21__list_const_iteratorIS2_PvEERKS2_
FN:1443,_ZNSt3__14listI24standard_Legendre_vectorNS_9allocatorIS1_EEE6insertENS_21__list_const_iteratorIS1_PvEERKS1_
FN:1443,_ZNSt3__14listI7ss_linkNS_9allocatorIS1_EEE6insertENS_21__list_const_iteratorIS1_PvEERKS1_
FN:1443,_ZNSt3__14listIN6quad_F12one_intervalENS_9allocatorIS2_EEE6insertENS_21__list_const_iteratorIS2_PvEERKS2_
FN:1443,_ZNSt3__14listIN4cmDD8one_EoutENS_9allocatorIS2_EEE6insertENS_21__list_const_iteratorIS2_PvEERKS2_
FN:1443,_ZNSt3__14listI9dd_vectorNS_9allocatorIS1_EEE6insertENS_21__list_const_iteratorIS1_PvEERKS1_
FN:1443,_ZNSt3__14listI11Ein_Eta_HitNS_9allocatorIS1_EEE6insertENS_21__list_const_iteratorIS1_PvEERKS1_
FN:1443,_ZNSt3__14listI18cm_Legendre_vectorNS_9allocatorIS1_EEE6insertENS_21__list_const_iteratorIS1_PvEERKS1_
FN:1443,_ZNSt3__14listI6one_muNS_9allocatorIS1_EEE6insertENS_21__list_const_iteratorIS1_PvEERKS1_
FN:1443,_ZNSt3__14listI14Legendre_coefsNS_9allocatorIS1_EEE6insertENS_21__list_const_iteratorIS1_PvEERKS1_
FN:1443,_ZNSt3__14listI12Eprob_vectorNS_9allocatorIS1_EEE6insertENS_21__list_const_iteratorIS1_PvEERKS1_
FN:1594,_ZNSt3__14listI15Vcm_quadBox_HitNS_9allocatorIS1_EEE10push_frontERKS1_
FN:1594,_ZNSt3__14listI11Ein_Eta_HitNS_9allocatorIS1_EEE10push_frontERKS1_
FN:1607,_ZNSt3__14listI11Ein_Eta_HitNS_9allocatorIS1_EEE9push_backERKS1_
FN:1607,_ZNSt3__14listI21cumulative_prob_entryNS_9allocatorIS1_EEE9push_backERKS1_
FN:1607,_ZNSt3__14listIdNS_9allocatorIdEEE9push_backERKd
FN:1607,_ZNSt3__14listIN4cmDD8one_EoutENS_9allocatorIS2_EEE9push_backERKS2_
FN:1607,_ZNSt3__14listI14Legendre_coefsNS_9allocatorIS1_EEE9push_backERKS1_
FN:1607,_ZNSt3__14listI15Boundary_cornerNS_9allocatorIS1_EEE9push_backERKS1_
FN:1607,_ZNSt3__14listI11coef_vectorNS_9allocatorIS1_EEE9push_backERKS1_
FN:1607,_ZNSt3__14listI13min_Eout_infoNS_9allocatorIS1_EEE9push_backERKS1_
FN:1607,_ZNSt3__14listI15Vcm_quadBox_HitNS_9allocatorIS1_EEE9push_backERKS1_
FN:1607,_ZNSt3__14listI6one_muNS_9allocatorIS1_EEE9push_backERKS1_
FN:1795,_ZNSt3__14listIN6quad_F12one_intervalENS_9allocatorIS2_EEE5eraseENS_21__list_const_iteratorIS2_PvEE
FN:1836,_ZNSt3__14listI11Ein_Eta_HitNS_9allocatorIS1_EEE5eraseENS_21__list_const_iteratorIS1_PvEES7_
FN:1836,_ZNSt3__14listI14Legendre_coefsNS_9allocatorIS1_EEE5eraseENS_21__list_const_iteratorIS1_PvEES7_
FN:1836,_ZNSt3__14listIdNS_9allocatorIdEEE5eraseENS_21__list_const_iteratorIdPvEES6_
FN:1836,_ZNSt3__14listIN6quad_F12one_intervalENS_9allocatorIS2_EEE5eraseENS_21__list_const_iteratorIS2_PvEES8_
FN:1836,_ZNSt3__14listI15Boundary_cornerNS_9allocatorIS1_EEE5eraseENS_21__list_const_iteratorIS1_PvEES7_
FN:1836,_ZNSt3__14listI15Vcm_quadBox_HitNS_9allocatorIS1_EEE5eraseENS_21__list_const_iteratorIS1_PvEES7_
FN:1836,_ZNSt3__14listI9dd_vectorNS_9allocatorIS1_EEE5eraseENS_21__list_const_iteratorIS1_PvEES7_
FN:1999,_ZNSt3__14listIdNS_9allocatorIdEEE6spliceENS_21__list_const_iteratorIdPvEERS3_
FN:2184,_ZNSt3__14listIdNS_9allocatorIdEEE6uniqueEv
FN:2192,_ZNSt3__14listIdNS_9allocatorIdEEE6uniqueINS_10__equal_toIddEEEEvT_
FN:2207,_ZNSt3__14listIdNS_9allocatorIdEEE5mergeERS3_
FN:2215,_ZNSt3__14listIdNS_9allocatorIdEEE5mergeINS_6__lessIddEEEEvRS3_T_
FN:2269,_ZNSt3__14listIdNS_9allocatorIdEEE4sortEv
FN:2278,_ZNSt3__14listIdNS_9allocatorIdEEE4sortINS_6__lessIddEEEEvT_
FN:2278,_ZNSt3__14listI15Vcm_quadBox_HitNS_9allocatorIS1_EEE4sortIPFbS1_S1_EEEvT_
FN:2286,_ZNSt3__14listI15Vcm_quadBox_HitNS_9allocatorIS1_EEE6__sortIPFbS1_S1_EEENS_15__list_iteratorIS1_PvEESA_SA_mRT_
FN:2286,_ZNSt3__14listIdNS_9allocatorIdEEE6__sortINS_6__lessIddEEEENS_15__list_iteratorIdPvEES9_S9_mRT_
FNDA:86,_ZNSt3__14listI12Eprob_vectorNS_9allocatorIS1_EEEC2Ev
FNDA:3732,_ZNSt3__121__list_const_iteratorI21cumulative_prob_entryPvEC1EPNS_16__list_node_baseIS1_S2_EE
FNDA:1,_ZNSt3__115__list_iteratorIN4cmDD8one_EoutEPvEC1Ev
FNDA:208,_ZNKSt3__110__list_impI13min_Eout_infoNS_9allocatorIS1_EEE5emptyEv
FNDA:74839757,_ZNSt3__110__list_impIN6quad_F12one_intervalENS_9allocatorIS2_EEED2Ev
FNDA:120380946,_ZNSt3__14listIN6quad_F12one_intervalENS_9allocatorIS2_EEE5eraseENS_21__list_const_iteratorIS2_PvEE
FNDA:86,_ZNSt3__110__list_impI7ss_linkNS_9allocatorIS1_EEED2Ev
FNDA:690166669,_ZNSt3__1neERKNS_21__list_const_iteratorI11Ein_Eta_HitPvEES5_
FNDA:229,_ZNSt3__110__list_impI15Kalbach_one_EinNS_9allocatorIS1_EEE5beginEv
FNDA:179830,_ZNKSt3__115__list_iteratorI24standard_Legendre_vectorPvEptEv
FNDA:38627991,_ZNKSt3__121__list_const_iteratorI15Vcm_quadBox_HitPvEptEv
FNDA:61,_ZNSt3__110__list_impIN4cmDD14one_joint_distENS_9allocatorIS2_EEE3endEv
FNDA:8124,_ZNSt3__14listI13weight_vectorNS_9allocatorIS1_EEE3endEv
FNDA:21,_ZNSt3__14listIN4cmDD14one_joint_distENS_9allocatorIS2_EEE5beginEv
FNDA:17523,_ZNSt3__115__list_iteratorI6one_muPvEC2EPNS_16__list_node_baseIS1_S2_EE
FNDA:110,_ZNKSt3__14listI14Legendre_coefsNS_9allocatorIS1_EEE5emptyEv
FNDA:17616,_ZNSt3__126__list_node_pointer_traitsIN4cmDD8one_EoutEPvE26__unsafe_link_pointer_castEPNS_16__list_node_baseIS2_S3_EE
FNDA:372,_ZNKSt3__115__list_iteratorI18cm_Legendre_vectorPvEptEv
FNDA:1110,_ZNSt3__14listIdNS_9allocatorIdEEEC1Ev
FNDA:32893,_ZNSt3__126__list_node_pointer_traitsI21cumulative_prob_entryPvE26__unsafe_link_pointer_castEPNS_16__list_node_baseIS1_S2_EE
FNDA:46585,_ZNSt3__116__list_node_baseI11Ein_Eta_HitPvEC2Ev
FNDA:1,_ZNSt3__110__list_impIN4cmDD14one_joint_distENS_9allocatorIS2_EEE14__unlink_nodesEPNS_16__list_node_baseIS2_PvEES9_
FNDA:76,_ZNSt3__14listI6one_muNS_9allocatorIS1_EEEC2Ev
FNDA:77,_ZNKSt3__14listI6one_muNS_9allocatorIS1_EEE5beginEv
FNDA:1709,_ZNSt3__1neERKNS_21__list_const_iteratorI21cumulative_prob_entryPvEES5_
FNDA:74045,_ZNSt3__1neERKNS_15__list_iteratorI7ss_linkPvEES5_
FNDA:74839757,_ZNKSt3__14listIN6quad_F12one_intervalENS_9allocatorIS2_EEE4sizeEv
FNDA:19683,_ZNSt3__14listIdNS_9allocatorIdEEE9push_backERKd
FNDA:86,_ZNKSt3__110__list_impI13weight_vectorNS_9allocatorIS1_EEE4__szEv
FNDA:367327,_ZNSt3__121__list_const_iteratorI14Legendre_coefsPvEC1EPNS_16__list_node_baseIS1_S2_EE
FNDA:1110,_ZNSt3__110__list_impIdNS_9allocatorIdEEED2Ev
FNDA:86,_ZNSt3__116__list_node_baseI12Eprob_vectorPvEC1Ev
FNDA:294,_ZNSt3__110__list_impI24standard_Legendre_vectorNS_9allocatorIS1_EEE12__node_allocEv
FNDA:16285,_ZNSt3__115__list_iteratorI14Legendre_coefsPvEC2Ev
FNDA:1110,_ZNSt3__110__list_impIdNS_9allocatorIdEEEC2Ev
FNDA:15,_ZNSt3__110__list_impIN4cmDD8one_EoutENS_9allocatorIS2_EEEC2Ev
FNDA:610,_ZNSt3__126__list_node_pointer_traitsI11coef_vectorPvE26__unsafe_link_pointer_castEPNS_16__list_node_baseIS1_S2_EE
FNDA:86,_ZNKSt3__110__list_impI15Kalbach_one_EinNS_9allocatorIS1_EEE4__szEv
FNDA:7157,_ZNSt3__14listI21cumulative_prob_entryNS_9allocatorIS1_EEE15__allocate_nodeERNS2_INS_11__list_nodeIS1_PvEEEE
FNDA:23643,_ZNSt3__115__list_iteratorIdPvEC1EPNS_16__list_node_baseIdS1_EE
FNDA:15,_ZNSt3__14listIN4cmDD8one_EoutENS_9allocatorIS2_EEEC2ERKS5_
FNDA:151642510,_ZNKSt3__14listI11Ein_Eta_HitNS_9allocatorIS1_EEE4sizeEv
FNDA:74839757,_ZNSt3__14listIN6quad_F12one_intervalENS_9allocatorIS2_EEEC2Ev
FNDA:76,_ZNSt3__115__list_iteratorI6one_muPvEmmEv
FNDA:76,_ZNSt3__14listI14Legendre_coefsNS_9allocatorIS1_EEE5eraseENS_21__list_const_iteratorIS1_PvEES7_
FNDA:77,_ZNKSt3__110__list_impIN4cmDD8one_EoutENS_9allocatorIS2_EEE5beginEv
FNDA:1049481067,_ZNSt3__115__list_iteratorI11Ein_Eta_HitPvEppEv
FNDA:133116,_ZNKSt3__121__list_const_iteratorI9dd_vectorPvEptEv
FNDA:351570687,_ZNSt3__126__list_node_pointer_traitsIN6quad_F12one_intervalEPvE26__unsafe_link_pointer_castEPNS_16__list_node_baseIS2_S3_EE
FNDA:74839757,_ZNSt3__14listIN6quad_F12one_intervalENS_9allocatorIS2_EEED2Ev
FNDA:1280001708,_ZNSt3__14listI11Ein_Eta_HitNS_9allocatorIS1_EEE3endEv
FNDA:205,_ZNSt3__1neERKNS_15__list_iteratorI14one_joint_distPvEES5_
FNDA:11000,_ZNSt3__115__list_iteratorIN4cmDD8one_EoutEPvEC2EPNS_16__list_node_baseIS2_S3_EE
FNDA:1380,_ZNSt3__111__list_nodeI9dd_vectorPvE9__as_linkEv
FNDA:208,_ZNSt3__110__list_impI13min_Eout_infoNS_9allocatorIS1_EEED2Ev
FNDA:74839757,_ZNSt3__116__list_node_baseIN6quad_F12one_intervalEPvEC2Ev
FNDA:94259,_ZNSt3__115__list_iteratorI14Legendre_coefsPvEC1EPNS_16__list_node_baseIS1_S2_EE
FNDA:553399617,_ZNSt3__115__list_iteratorIN6quad_F12one_intervalEPvEC2EPNS_16__list_node_baseIS2_S3_EE
FNDA:76,_ZNSt3__110__list_impI6one_muNS_9allocatorIS1_EEEC2ERKNS2_INS_11__list_nodeIS1_PvEEEE
FNDA:86,_ZNSt3__110__list_impI7ss_linkNS_9allocatorIS1_EEE5clearEv
FNDA:489488,_ZNSt3__121__list_const_iteratorI13min_Eout_infoPvEppEv
FNDA:24372,_ZNSt3__111__list_nodeI13weight_vectorPvE9__as_linkEv
FNDA:420,_ZNSt3__115__list_iteratorI15Kalbach_one_EinPvEC2Ev
FNDA:15402,_ZNSt3__110__list_impI6one_muNS_9allocatorIS1_EEE3endEv
FNDA:246,_ZNSt3__1eqERKNS_15__list_iteratorI24standard_Legendre_vectorPvEES5_
FNDA:2159,_ZNSt3__121__list_const_iteratorI7ss_linkPvEC1ERKNS_15__list_iteratorIS1_S2_EE
FNDA:395,_ZNSt3__115__list_iteratorI14one_joint_distPvEC1Ev
FNDA:6,_ZNSt3__110__list_impI18cm_Legendre_vectorNS_9allocatorIS1_EEE26__invalidate_all_iteratorsEv
FNDA:697,_ZNSt3__110__list_impI14Legendre_coefsNS_9allocatorIS1_EEE14__unlink_nodesEPNS_16__list_node_baseIS1_PvEES8_
FNDA:1920,_ZNSt3__116__list_node_baseI14Legendre_coefsPvEC1Ev
FNDA:27476,_ZNKSt3__110__list_impIdNS_9allocatorIdEEE13__end_as_linkEv
FNDA:2689790999,_ZNSt3__116__list_node_baseIN6quad_F12one_intervalEPvE9__as_nodeEv
FNDA:30,_ZNKSt3__110__list_impIN4cmDD8one_EoutENS_9allocatorIS2_EEE4__szEv
FNDA:112799,_ZNSt3__1eqERKNS_15__list_iteratorIdPvEES4_
FNDA:0,_ZNKSt3__121__list_const_iteratorIN4cmDD8one_EoutEPvEdeEv
FNDA:22907040,_ZNKSt3__115__list_iteratorI11coef_vectorPvEdeEv
FNDA:86,_ZNSt3__14listIN4cmDD14one_joint_distENS_9allocatorIS2_EEED2Ev
FNDA:2976,_ZNSt3__121__list_const_iteratorI21cumulative_prob_entryPvEC2Ev
FNDA:11,_ZNSt3__110__list_impI12Eprob_vectorNS_9allocatorIS1_EEE26__invalidate_all_iteratorsEv
FNDA:127028103,_ZNSt3__1neERKNS_15__list_iteratorIN6quad_F12one_intervalEPvEES6_
FNDA:229,_ZNSt3__14listI15Kalbach_one_EinNS_9allocatorIS1_EEE5beginEv
FNDA:1120,_ZNSt3__126__list_node_pointer_traitsI18cm_Legendre_vectorPvE26__unsafe_link_pointer_castEPNS_16__list_node_baseIS1_S2_EE
FNDA:55165,_ZNKSt3__115__list_iteratorI21cumulative_prob_entryPvEptEv
FNDA:1,_ZNKSt3__115__list_iteratorI14one_joint_distPvEdeEv
FNDA:50256,_ZNSt3__14listI15Boundary_cornerNS_9allocatorIS1_EEE20__link_nodes_at_backEPNS_16__list_node_baseIS1_PvEES8_
FNDA:1901,_ZNSt3__121__list_const_iteratorI9dd_vectorPvEC2ERKNS_15__list_iteratorIS1_S2_EE
FNDA:208,_ZNSt3__14listI13min_Eout_infoNS_9allocatorIS1_EEEC2Ev
FNDA:208,_ZNSt3__116__list_node_baseI9dd_vectorPvEC1Ev
FNDA:86,_ZNSt3__110__list_impI13weight_vectorNS_9allocatorIS1_EEE5clearEv
FNDA:86,_ZNSt3__110__list_impI15Kalbach_one_EinNS_9allocatorIS1_EEED2Ev
FNDA:1015,_ZNSt3__110__list_impI9dd_vectorNS_9allocatorIS1_EEE5beginEv
FNDA:4358,_ZNKSt3__115__list_iteratorIN4cmDD8one_EoutEPvEdeEv
FNDA:288,_ZNSt3__111__list_nodeI11coef_vectorPvE9__as_linkEv
FNDA:86,_ZNSt3__110__list_impI11coef_vectorNS_9allocatorIS1_EEED2Ev
FNDA:8842,_ZNSt3__121__list_const_iteratorIN4cmDD8one_EoutEPvEC2EPNS_16__list_node_baseIS2_S3_EE
FNDA:86,_ZNSt3__116__list_node_baseI14one_joint_distPvEC2Ev
FNDA:158119804,_ZNSt3__116__list_node_baseIN4cmDD8one_EoutEPvE6__selfEv
FNDA:86,_ZNSt3__116__list_node_baseIN4cmDD14one_joint_distEPvEC2Ev
FNDA:93,_ZNSt3__14listI18cm_Legendre_vectorNS_9allocatorIS1_EEE15__allocate_nodeERNS2_INS_11__list_nodeIS1_PvEEEE
FNDA:86,_ZNSt3__116__list_node_baseI14one_joint_distPvEC1Ev
FNDA:1485,_ZNSt3__115__list_iteratorI12Eprob_vectorPvEC1EPNS_16__list_node_baseIS1_S2_EE
FNDA:86,_ZNSt3__116__list_node_baseI13weight_vectorPvEC1Ev
FNDA:160087,_ZNSt3__116__list_node_baseI7ss_linkPvE6__selfEv
FNDA:16,_ZNSt3__110__list_impIN4cmDD14one_joint_distENS_9allocatorIS2_EEE12__node_allocEv
FNDA:9179597,_ZNSt3__116__list_node_baseI6one_muPvE6__selfEv
FNDA:42,_ZNSt3__1eqERKNS_15__list_iteratorI12Eprob_vectorPvEES5_
FNDA:20195,_ZNSt3__121__list_const_iteratorI9dd_vectorPvEppEv
FNDA:5084415503,_ZNSt3__116__list_node_baseI11Ein_Eta_HitPvE6__selfEv
FNDA:6582,_ZNSt3__1eqERKNS_15__list_iteratorIN4cmDD8one_EoutEPvEES6_
FNDA:0,_ZNSt3__14listI14Legendre_coefsNS_9allocatorIS1_EEE20__link_nodes_at_backEPNS_16__list_node_baseIS1_PvEES8_
FNDA:834,_ZNSt3__111__list_nodeI24standard_Legendre_vectorPvE9__as_linkEv
FNDA:16501,_ZNSt3__121__list_const_iteratorI15Boundary_cornerPvEmmEv
FNDA:36601920,_ZNSt3__121__list_const_iteratorI15Vcm_quadBox_HitPvEppEv
FNDA:162,_ZNSt3__14listI18cm_Legendre_vectorNS_9allocatorIS1_EEE5beginEv
FNDA:12287,_ZNKSt3__110__list_impI11coef_vectorNS_9allocatorIS1_EEE4__szEv
FNDA:303286904,_ZNSt3__14listI11Ein_Eta_HitNS_9allocatorIS1_EEE9push_backERKS1_
FNDA:7909,_ZNKSt3__115__list_iteratorI9dd_vectorPvEptEv
FNDA:80,_ZNSt3__110__list_impI15Boundary_cornerNS_9allocatorIS1_EEE5clearEv
FNDA:1015,_ZNSt3__14listI9dd_vectorNS_9allocatorIS1_EEE5beginEv
FNDA:86,_ZNSt3__110__list_impIN4cmDD14one_joint_distENS_9allocatorIS2_EEEC2Ev
FNDA:116,_ZNSt3__14listI12Eprob_vectorNS_9allocatorIS1_EEE12__link_nodesEPNS_16__list_node_baseIS1_PvEES8_S8_
FNDA:144,_ZNSt3__14listI11coef_vectorNS_9allocatorIS1_EEE15__allocate_nodeERNS2_INS_11__list_nodeIS1_PvEEEE
FNDA:16752,_ZNKSt3__14listI15Boundary_cornerNS_9allocatorIS1_EEE4sizeEv
FNDA:25859932,_ZNSt3__121__list_const_iteratorI15Vcm_quadBox_HitPvEC2ERKNS_15__list_iteratorIS1_S2_EE
FNDA:16,_ZNSt3__110__list_impIN4cmDD14one_joint_distENS_9allocatorIS2_EEE4__szEv
FNDA:240785205,_ZNSt3__121__list_const_iteratorIN6quad_F12one_intervalEPvEC1ERKNS_15__list_iteratorIS2_S3_EE
FNDA:79,_ZNKSt3__110__list_impI6one_muNS_9allocatorIS1_EEE3endEv
FNDA:86,_ZNSt3__110__list_impI7ss_linkNS_9allocatorIS1_EEE14__unlink_nodesEPNS_16__list_node_baseIS1_PvEES8_
FNDA:34785874,_ZNSt3__115__list_iteratorI11Ein_Eta_HitPvEmmEv
FNDA:15,_ZNSt3__14listIN4cmDD8one_EoutENS_9allocatorIS2_EEEC2Ev
FNDA:61,_ZNSt3__14listIN4cmDD14one_joint_distENS_9allocatorIS2_EEE3endEv
FNDA:46585,_ZNSt3__110__list_impI11Ein_Eta_HitNS_9allocatorIS1_EEE5clearEv
FNDA:1489,_ZNSt3__115__list_iteratorI15Kalbach_one_EinPvEC2EPNS_16__list_node_baseIS1_S2_EE
FNDA:38328,_ZNSt3__1neERKNS_21__list_const_iteratorI14Legendre_coefsPvEES5_
FNDA:1901,_ZNSt3__121__list_const_iteratorI9dd_vectorPvEC1ERKNS_15__list_iteratorIS1_S2_EE
FNDA:120404259,_ZNSt3__14listIN6quad_F12one_intervalENS_9allocatorIS2_EEE12__link_nodesEPNS_16__list_node_baseIS2_PvEES9_S9_
FNDA:889073,_ZNKSt3__121__list_const_iteratorI15Boundary_cornerPvEptEv
FNDA:86,_ZNSt3__14listI15Kalbach_one_EinNS_9allocatorIS1_EEEC2Ev
FNDA:920,_ZNSt3__14listI15Vcm_quadBox_HitNS_9allocatorIS1_EEED1Ev
FNDA:6,_ZNSt3__121__list_const_iteratorI9dd_vectorPvEmmEv
FNDA:16501,_ZNKSt3__14listI15Boundary_cornerNS_9allocatorIS1_EEE3endEv
FNDA:152,_ZNKSt3__110__list_impI6one_muNS_9allocatorIS1_EEE5emptyEv
FNDA:186,_ZNSt3__14listI15Kalbach_one_EinNS_9allocatorIS1_EEE15__allocate_nodeERNS2_INS_11__list_nodeIS1_PvEEEE
FNDA:80,_ZNSt3__110__list_impI15Boundary_cornerNS_9allocatorIS1_EEEC2Ev
FNDA:127,_ZNSt3__110__list_impI12Eprob_vectorNS_9allocatorIS1_EEE12__node_allocEv
FNDA:8376,_ZNSt3__115__list_iteratorI15Boundary_cornerPvEmmEv
FNDA:367327,_ZNSt3__121__list_const_iteratorI14Legendre_coefsPvEC2EPNS_16__list_node_baseIS1_S2_EE
FNDA:258,_ZNSt3__116__list_node_baseI24standard_Legendre_vectorPvEC2Ev
FNDA:8124,_ZNSt3__14listI13weight_vectorNS_9allocatorIS1_EEE12__link_nodesEPNS_16__list_node_baseIS1_PvEES8_S8_
FNDA:8210,_ZNKSt3__110__list_impI13weight_vectorNS_9allocatorIS1_EEE13__end_as_linkEv
FNDA:16420,_ZNSt3__115__list_iteratorI13weight_vectorPvEC1EPNS_16__list_node_baseIS1_S2_EE
FNDA:0,_ZNSt3__14listI21cumulative_prob_entryNS_9allocatorIS1_EEE20__link_nodes_at_backEPNS_16__list_node_baseIS1_PvEES8_
FNDA:2068,_ZNSt3__115__list_iteratorI14one_joint_distPvEppEv
FNDA:2,_ZNKSt3__14listI9dd_vectorNS_9allocatorIS1_EEE5emptyEv
FNDA:361212777,_ZNSt3__111__list_nodeIN6quad_F12one_intervalEPvE9__as_linkEv
FNDA:1692,_ZNSt3__14listI21cumulative_prob_entryNS_9allocatorIS1_EEEC2ERKS4_
FNDA:74045,_ZNSt3__1eqERKNS_15__list_iteratorI7ss_linkPvEES5_
FNDA:11,_ZNSt3__121__list_const_iteratorI12Eprob_vectorPvEmmEv
FNDA:920,_ZNSt3__14listI15Vcm_quadBox_HitNS_9allocatorIS1_EEEC1Ev
FNDA:1395,_ZNSt3__14listIdNS_9allocatorIdEEE6uniqueEv
FNDA:556,_ZNKSt3__110__list_impI24standard_Legendre_vectorNS_9allocatorIS1_EEE13__end_as_linkEv
FNDA:25110642,_ZNSt3__14listI15Vcm_quadBox_HitNS_9allocatorIS1_EEE6__sortIPFbS1_S1_EEENS_15__list_iteratorIS1_PvEESA_SA_mRT_
FNDA:43847242,_ZNSt3__1neERKNS_21__list_const_iteratorI15Vcm_quadBox_HitPvEES5_
FNDA:43852642,_ZNSt3__126__list_node_pointer_traitsI15Vcm_quadBox_HitPvE26__unsafe_link_pointer_castEPNS_16__list_node_baseIS1_S2_EE
FNDA:4015583,_ZNKSt3__115__list_iteratorI14one_joint_distPvEptEv
FNDA:866381,_ZNKSt3__115__list_iteratorI13weight_vectorPvEdeEv
FNDA:2676,_ZNSt3__110__list_impI21cumulative_prob_entryNS_9allocatorIS1_EEEC2Ev
FNDA:291,_ZNSt3__14listI11coef_vectorNS_9allocatorIS1_EEE3endEv
FNDA:27915,_ZNSt3__110__list_impIdNS_9allocatorIdEEE14__unlink_nodesEPNS_16__list_node_baseIdPvEES7_
FNDA:782,_ZNSt3__115__list_iteratorI24standard_Legendre_vectorPvEC1Ev
FNDA:540,_ZNSt3__110__list_impI24standard_Legendre_vectorNS_9allocatorIS1_EEE3endEv
FNDA:272764,_ZNKSt3__110__list_impI14Legendre_coefsNS_9allocatorIS1_EEE13__end_as_linkEv
FNDA:13,_ZNSt3__1eqERKNS_21__list_const_iteratorIN4cmDD14one_joint_distEPvEES6_
FNDA:1110,_ZNSt3__116__list_node_baseIdPvEC2Ev
FNDA:1104,_ZNSt3__14listIdNS_9allocatorIdEEE4sortINS_6__lessIddEEEEvT_
FNDA:1110,_ZNSt3__116__list_node_baseIdPvEC1Ev
FNDA:1197,_ZNSt3__115__list_iteratorI18cm_Legendre_vectorPvEC2EPNS_16__list_node_baseIS1_S2_EE
FNDA:160,_ZNSt3__121__list_const_iteratorI15Boundary_cornerPvEC2Ev
FNDA:208,_ZNSt3__110__list_impI9dd_vectorNS_9allocatorIS1_EEED2Ev
FNDA:129,_ZNSt3__110__list_impI13min_Eout_infoNS_9allocatorIS1_EEE12__node_allocEv
FNDA:319,_ZNSt3__121__list_const_iteratorI14Legendre_coefsPvEmmEv
FNDA:35979960,_ZNSt3__111__list_nodeI15Vcm_quadBox_HitPvE9__as_linkEv
FNDA:345,_ZNSt3__110__list_impI14one_joint_distNS_9allocatorIS1_EEE3endEv
FNDA:1050445,_ZNSt3__116__list_node_baseI13min_Eout_infoPvE6__selfEv
FNDA:110737723,_ZNKSt3__14listIN6quad_F12one_intervalENS_9allocatorIS2_EEE5emptyEv
FNDA:86,_ZNSt3__14listI14one_joint_distNS_9allocatorIS1_EEED2Ev
FNDA:273267,_ZNKSt3__115__list_iteratorI15Boundary_cornerPvEptEv
FNDA:46847053,_ZNSt3__110__list_impI15Vcm_quadBox_HitNS_9allocatorIS1_EEE4__szEv
FNDA:291,_ZNSt3__14listIdNS_9allocatorIdEEE6spliceENS_21__list_const_iteratorIdPvEERS3_
FNDA:12201,_ZNKSt3__14listI11coef_vectorNS_9allocatorIS1_EEE4sizeEv
FNDA:3,_ZNSt3__121__list_const_iteratorIdPvEC1Ev
FNDA:5,_ZNSt3__110__list_impI14one_joint_distNS_9allocatorIS1_EEE26__invalidate_all_iteratorsEv
FNDA:268,_ZNSt3__115__list_iteratorI21cumulative_prob_entryPvEmmEv
FNDA:583187,_ZNSt3__121__list_const_iteratorI14Legendre_coefsPvEC1Ev
FNDA:2179,_ZNSt3__14listIN4cmDD8one_EoutENS_9allocatorIS2_EEE12__link_nodesEPNS_16__list_node_baseIS2_PvEES9_S9_
FNDA:424632,_ZNSt3__116__list_node_baseI21cumulative_prob_entryPvE6__selfEv
FNDA:120404259,_ZNSt3__14listIN6quad_F12one_intervalENS_9allocatorIS2_EEE15__allocate_nodeERNS3_INS_11__list_nodeIS2_PvEEEE
FNDA:99,_ZNSt3__110__list_impI18cm_Legendre_vectorNS_9allocatorIS1_EEE4__szEv
FNDA:4188,_ZNSt3__110__list_impIdNS_9allocatorIdEEE5beginEv
FNDA:7157,_ZNSt3__14listI21cumulative_prob_entryNS_9allocatorIS1_EEE6insertENS_21__list_const_iteratorIS1_PvEERKS1_
FNDA:208,_ZNSt3__116__list_node_baseI13min_Eout_infoPvEC2Ev
FNDA:435,_ZNSt3__115__list_iteratorI9dd_vectorPvEC2Ev
FNDA:0,_ZNSt3__14listI21cumulative_prob_entryNS_9allocatorIS1_EEE9push_backERKS1_
FNDA:74839757,_ZNSt3__110__list_impIN6quad_F12one_intervalENS_9allocatorIS2_EEE5clearEv
FNDA:1,_ZNSt3__121__list_const_iteratorIN4cmDD14one_joint_distEPvEmmEv
FNDA:158030221,_ZNKSt3__121__list_const_iteratorIN4cmDD8one_EoutEPvEptEv
FNDA:151635625,_ZNSt3__14listI11Ein_Eta_HitNS_9allocatorIS1_EEE5eraseENS_21__list_const_iteratorIS1_PvEES7_
FNDA:228,_ZNSt3__111__list_nodeI14one_joint_distPvE9__as_linkEv
FNDA:7246212,_ZNSt3__14listI15Vcm_quadBox_HitNS_9allocatorIS1_EEE21__link_nodes_at_frontEPNS_16__list_node_baseIS1_PvEES8_
FNDA:240808518,_ZNSt3__110__list_impIN6quad_F12one_intervalENS_9allocatorIS2_EEE12__node_allocEv
FNDA:0,_ZNSt3__14listI14Legendre_coefsNS_9allocatorIS1_EEE9push_backERKS1_
FNDA:182266,_ZNSt3__116__list_node_baseI24standard_Legendre_vectorPvE6__selfEv
FNDA:28295,_ZNSt3__121__list_const_iteratorI21cumulative_prob_entryPvEppEv
FNDA:76204,_ZNSt3__14listI7ss_linkNS_9allocatorIS1_EEE3endEv
FNDA:227515,_ZNSt3__116__list_node_baseIdPvE6__selfEv
FNDA:155897,_ZNKSt3__14listI14Legendre_coefsNS_9allocatorIS1_EEE5beginEv
FNDA:6686,_ZNSt3__14listIdNS_9allocatorIdEEE3endEv
FNDA:7157,_ZNSt3__14listI21cumulative_prob_entryNS_9allocatorIS1_EEE12__link_nodesEPNS_16__list_node_baseIS1_PvEES8_S8_
FNDA:690166669,_ZNSt3__1eqERKNS_21__list_const_iteratorI11Ein_Eta_HitPvEES5_
FNDA:76,_ZNSt3__14listI6one_muNS_9allocatorIS1_EEEC2ERKS4_
FNDA:86,_ZNSt3__110__list_impI18cm_Legendre_vectorNS_9allocatorIS1_EEED2Ev
FNDA:1215,_ZNSt3__14listI21cumulative_prob_entryNS_9allocatorIS1_EEE5beginEv
FNDA:278,_ZNSt3__14listI24standard_Legendre_vectorNS_9allocatorIS1_EEE6insertENS_21__list_const_iteratorIS1_PvEERKS1_
FNDA:15861,_ZNSt3__126__list_node_pointer_traitsI6one_muPvE26__unsafe_link_pointer_castEPNS_16__list_node_baseIS1_S2_EE
FNDA:30,_ZNSt3__14listIN4cmDD8one_EoutENS_9allocatorIS2_EEED2Ev
FNDA:25859932,_ZNSt3__121__list_const_iteratorI15Vcm_quadBox_HitPvEC1ERKNS_15__list_iteratorIS1_S2_EE
FNDA:291,_ZNSt3__110__list_impI11coef_vectorNS_9allocatorIS1_EEE3endEv
FNDA:94259,_ZNSt3__115__list_iteratorI14Legendre_coefsPvEC2EPNS_16__list_node_baseIS1_S2_EE
FNDA:1080,_ZNKSt3__110__list_impI15Kalbach_one_EinNS_9allocatorIS1_EEE13__end_as_linkEv
FNDA:208,_ZNKSt3__110__list_impI13min_Eout_infoNS_9allocatorIS1_EEE4__szEv
FNDA:7428,_ZNSt3__110__list_impI21cumulative_prob_entryNS_9allocatorIS1_EEE4__szEv
FNDA:340,_ZNSt3__1eqERKNS_15__list_iteratorI9dd_vectorPvEES5_
FNDA:86,_ZNSt3__116__list_node_baseI11coef_vectorPvEC1Ev
FNDA:144,_ZNSt3__115__list_iteratorI11coef_vectorPvEmmEv
FNDA:291,_ZNSt3__14listIdNS_9allocatorIdEEE5mergeINS_6__lessIddEEEEvRS3_T_
FNDA:77,_ZNKSt3__14listIN4cmDD8one_EoutENS_9allocatorIS2_EEE5beginEv
FNDA:144,_ZNKSt3__121__list_const_iteratorI11coef_vectorPvEptEv
FNDA:19683,_ZNSt3__121__list_const_iteratorIdPvEppEv
FNDA:30203,_ZNSt3__14listI14Legendre_coefsNS_9allocatorIS1_EEE15__allocate_nodeERNS2_INS_11__list_nodeIS1_PvEEEE
FNDA:2964,_ZNSt3__115__list_iteratorI9dd_vectorPvEC1EPNS_16__list_node_baseIS1_S2_EE
FNDA:86,_ZNSt3__121__list_const_iteratorI14one_joint_distPvEC1ERKNS_15__list_iteratorIS1_S2_EE
FNDA:86,_ZNSt3__14listI13weight_vectorNS_9allocatorIS1_EEED2Ev
FNDA:165780,_ZNSt3__1neERKNS_21__list_const_iteratorI15Boundary_cornerPvEES5_
FNDA:1166,_ZNKSt3__110__list_impI12Eprob_vectorNS_9allocatorIS1_EEE13__end_as_linkEv
FNDA:152,_ZNKSt3__110__list_impI6one_muNS_9allocatorIS1_EEE4__szEv
FNDA:86,_ZNKSt3__110__list_impI7ss_linkNS_9allocatorIS1_EEE4__szEv
FNDA:86,_ZNKSt3__110__list_impI13weight_vectorNS_9allocatorIS1_EEE5emptyEv
FNDA:86,_ZNSt3__110__list_impI14one_joint_distNS_9allocatorIS1_EEED2Ev
FNDA:46585,_ZNSt3__14listI11Ein_Eta_HitNS_9allocatorIS1_EEEC2Ev
FNDA:2159,_ZNSt3__14listI7ss_linkNS_9allocatorIS1_EEE15__allocate_nodeERNS2_INS_11__list_nodeIS1_PvEEEE
FNDA:50256,_ZNSt3__14listI15Boundary_cornerNS_9allocatorIS1_EEE9push_backERKS1_
FNDA:120404259,_ZNSt3__14listIN6quad_F12one_intervalENS_9allocatorIS2_EEE6insertENS_21__list_const_iteratorIS2_PvEERKS2_
FNDA:2159,_ZNSt3__14listI7ss_linkNS_9allocatorIS1_EEE6insertENS_21__list_const_iteratorIS1_PvEERKS1_
FNDA:208,_ZNSt3__14listI13min_Eout_infoNS_9allocatorIS1_EEED2Ev
FNDA:86,_ZNKSt3__110__list_impI12Eprob_vectorNS_9allocatorIS1_EEE5emptyEv
FNDA:86,_ZNKSt3__110__list_impI15Kalbach_one_EinNS_9allocatorIS1_EEE5emptyEv
FNDA:76,_ZNSt3__110__list_impI6one_muNS_9allocatorIS1_EEE14__unlink_nodesEPNS_16__list_node_baseIS1_PvEES8_
FNDA:370268,_ZNSt3__116__list_node_baseI21cumulative_prob_entryPvE9__as_nodeEv
FNDA:208,_ZNSt3__116__list_node_baseI13min_Eout_infoPvEC1Ev
FNDA:144,_ZNSt3__14listI11coef_vectorNS_9allocatorIS1_EEE9push_backERKS1_
FNDA:6537,_ZNSt3__115__list_iteratorIN4cmDD8one_EoutEPvEppEv
FNDA:30,_ZNSt3__110__list_impIN4cmDD8one_EoutENS_9allocatorIS2_EEE5clearEv
FNDA:1692,_ZNKSt3__110__list_impI21cumulative_prob_entryNS_9allocatorIS1_EEE3endEv
FNDA:5629,_ZNSt3__115__list_iteratorI7ss_linkPvEC1Ev
FNDA:374,_ZNSt3__14listI24standard_Legendre_vectorNS_9allocatorIS1_EEE5beginEv
FNDA:291,_ZNSt3__14listIdNS_9allocatorIdEEE5mergeERS3_
FNDA:15557,_ZNKSt3__110__list_impI6one_muNS_9allocatorIS1_EEE13__end_as_linkEv
FNDA:16501,_ZNKSt3__110__list_impI15Boundary_cornerNS_9allocatorIS1_EEE3endEv
FNDA:208,_ZNSt3__14listI9dd_vectorNS_9allocatorIS1_EEED2Ev
FNDA:348,_ZNSt3__111__list_nodeI12Eprob_vectorPvE9__as_linkEv
FNDA:40338774,_ZNSt3__1neERKNS_15__list_iteratorI15Vcm_quadBox_HitPvEES5_
FNDA:23240,_ZNSt3__14listI13min_Eout_infoNS_9allocatorIS1_EEE5beginEv
FNDA:8124,_ZNSt3__110__list_impI13weight_vectorNS_9allocatorIS1_EEE3endEv
FNDA:81,_ZNSt3__110__list_impI14one_joint_distNS_9allocatorIS1_EEE4__szEv
FNDA:86,_ZNSt3__110__list_impI18cm_Legendre_vectorNS_9allocatorIS1_EEEC2Ev
FNDA:22237271,_ZNSt3__14listI15Vcm_quadBox_HitNS_9allocatorIS1_EEE3endEv
FNDA:220,_ZNKSt3__115__list_iteratorI24standard_Legendre_vectorPvEdeEv
FNDA:785,_ZNSt3__115__list_iteratorI6one_muPvEC1Ev
FNDA:16672,_ZNSt3__14listI15Boundary_cornerNS_9allocatorIS1_EEE5eraseENS_21__list_const_iteratorIS1_PvEES7_
FNDA:429,_ZNSt3__1neERKNS_21__list_const_iteratorI9dd_vectorPvEES5_
FNDA:2179,_ZNSt3__14listIN4cmDD8one_EoutENS_9allocatorIS2_EEE15__allocate_nodeERNS3_INS_11__list_nodeIS2_PvEEEE
FNDA:38,_ZNSt3__121__list_const_iteratorIN4cmDD14one_joint_distEPvEC1Ev
FNDA:515,_ZNSt3__110__list_impI9dd_vectorNS_9allocatorIS1_EEE4__szEv
FNDA:86,_ZNSt3__110__list_impI12Eprob_vectorNS_9allocatorIS1_EEED2Ev
FNDA:6,_ZNSt3__115__list_iteratorI18cm_Legendre_vectorPvEC1Ev
FNDA:86,_ZNSt3__110__list_impI7ss_linkNS_9allocatorIS1_EEE26__invalidate_all_iteratorsEv
FNDA:48,_ZNSt3__121__list_const_iteratorIN4cmDD14one_joint_distEPvEC1ERKNS_15__list_iteratorIS2_S3_EE
FNDA:920,_ZNSt3__116__list_node_baseI15Vcm_quadBox_HitPvEC2Ev
FNDA:7428,_ZNSt3__110__list_impI21cumulative_prob_entryNS_9allocatorIS1_EEE12__node_allocEv
FNDA:50256,_ZNSt3__14listI15Boundary_cornerNS_9allocatorIS1_EEE15__allocate_nodeERNS2_INS_11__list_nodeIS1_PvEEEE
FNDA:131437252,_ZNSt3__116__list_node_baseI14Legendre_coefsPvE6__selfEv
FNDA:46585,_ZNSt3__14listI11Ein_Eta_HitNS_9allocatorIS1_EEED2Ev
FNDA:1212596,_ZNSt3__116__list_node_baseI15Boundary_cornerPvE9__as_nodeEv
FNDA:3624026,_ZNKSt3__110__list_impI15Vcm_quadBox_HitNS_9allocatorIS1_EEE4__szEv
FNDA:22909224,_ZNSt3__116__list_node_baseI11coef_vectorPvE9__as_nodeEv
FNDA:332,_ZNKSt3__115__list_iteratorI9dd_vectorPvEdeEv
FNDA:260417237,_ZNKSt3__110__list_impIN6quad_F12one_intervalENS_9allocatorIS2_EEE4__szEv
FNDA:543,_ZNSt3__115__list_iteratorI11coef_vectorPvEC1EPNS_16__list_node_baseIS1_S2_EE
FNDA:58128,_ZNSt3__14listI15Boundary_cornerNS_9allocatorIS1_EEE5beginEv
FNDA:208,_ZNSt3__110__list_impI9dd_vectorNS_9allocatorIS1_EEE5clearEv
FNDA:16420,_ZNSt3__115__list_iteratorI13weight_vectorPvEC2EPNS_16__list_node_baseIS1_S2_EE
FNDA:0,_ZNSt3__14listI6one_muNS_9allocatorIS1_EEE20__link_nodes_at_backEPNS_16__list_node_baseIS1_PvEES8_
FNDA:738655444,_ZNSt3__111__list_nodeI11Ein_Eta_HitPvE9__as_linkEv
FNDA:152,_ZNSt3__116__list_node_baseI6one_muPvEC1Ev
FNDA:68330,_ZNSt3__115__list_iteratorI7ss_linkPvEppEv
FNDA:2569386740,_ZNKSt3__115__list_iteratorIN6quad_F12one_intervalEPvEptEv
FNDA:145085,_ZNSt3__116__list_node_baseI9dd_vectorPvE6__selfEv
FNDA:86,_ZNSt3__110__list_impI12Eprob_vectorNS_9allocatorIS1_EEEC2Ev
FNDA:14572,_ZNSt3__1neERKNS_15__list_iteratorI21cumulative_prob_entryPvEES5_
FNDA:86,_ZNSt3__116__list_node_baseI7ss_linkPvEC1Ev
FNDA:2030,_ZNKSt3__110__list_impI14Legendre_coefsNS_9allocatorIS1_EEE4__szEv
FNDA:126,_ZNSt3__14listI13min_Eout_infoNS_9allocatorIS1_EEE20__link_nodes_at_backEPNS_16__list_node_baseIS1_PvEES8_
FNDA:696,_ZNSt3__1eqERKNS_15__list_iteratorI15Kalbach_one_EinPvEES5_
FNDA:213,_ZNSt3__14listI14one_joint_distNS_9allocatorIS1_EEE5beginEv
FNDA:152,_ZNSt3__110__list_impI6one_muNS_9allocatorIS1_EEE5clearEv
FNDA:86,_ZNSt3__110__list_impI11coef_vectorNS_9allocatorIS1_EEEC2Ev
FNDA:15,_ZNKSt3__110__list_impIN4cmDD8one_EoutENS_9allocatorIS2_EEE12__node_allocEv
FNDA:17293017,_ZNSt3__110__list_impI15Vcm_quadBox_HitNS_9allocatorIS1_EEE14__unlink_nodesEPNS_16__list_node_baseIS1_PvEES8_
FNDA:74989,_ZNKSt3__115__list_iteratorI7ss_linkPvEptEv
FNDA:15,_ZNSt3__110__list_impIN4cmDD8one_EoutENS_9allocatorIS2_EEE14__unlink_nodesEPNS_16__list_node_baseIS2_PvEES9_
FNDA:14039,_ZNSt3__14listIdNS_9allocatorIdEEE12__link_nodesEPNS_16__list_node_baseIdPvEES7_S7_
FNDA:76,_ZNSt3__14listI14one_joint_distNS_9allocatorIS1_EEE6insertENS_21__list_const_iteratorIS1_PvEERKS1_
FNDA:1104,_ZNSt3__121__list_const_iteratorI18cm_Legendre_vectorPvEC2ERKNS_15__list_iteratorIS1_S2_EE
FNDA:512725,_ZNSt3__121__list_const_iteratorI13min_Eout_infoPvEC1ERKNS_15__list_iteratorIS1_S2_EE
FNDA:252,_ZNSt3__110__list_impI11coef_vectorNS_9allocatorIS1_EEE5beginEv
FNDA:10,_ZNKSt3__121__list_const_iteratorI14one_joint_distPvEptEv
FNDA:8776,_ZNSt3__110__list_impIN4cmDD8one_EoutENS_9allocatorIS2_EEE3endEv
FNDA:1472,_ZNKSt3__110__list_impI9dd_vectorNS_9allocatorIS1_EEE13__end_as_linkEv
FNDA:60713,_ZNSt3__110__list_impI14Legendre_coefsNS_9allocatorIS1_EEE3endEv
FNDA:1487571,_ZNSt3__116__list_node_baseI15Boundary_cornerPvE6__selfEv
FNDA:214,_ZNSt3__14listI12Eprob_vectorNS_9allocatorIS1_EEE5beginEv
FNDA:22435,_ZNSt3__1eqERKNS_15__list_iteratorI14Legendre_coefsPvEES5_
FNDA:1,_ZNSt3__115__list_iteratorIN4cmDD14one_joint_distEPvEC1Ev
FNDA:291,_ZNKSt3__14listIdNS_9allocatorIdEEE5emptyEv
FNDA:14528,_ZNSt3__115__list_iteratorI21cumulative_prob_entryPvEppEv
FNDA:86,_ZNSt3__110__list_impI13weight_vectorNS_9allocatorIS1_EEE14__unlink_nodesEPNS_16__list_node_baseIS1_PvEES8_
FNDA:694504216,_ZNSt3__14listI11Ein_Eta_HitNS_9allocatorIS1_EEE5beginEv
FNDA:6477,_ZNSt3__111__list_nodeI7ss_linkPvE9__as_linkEv
FNDA:126219130,_ZNKSt3__121__list_const_iteratorI14Legendre_coefsPvEdeEv
FNDA:0,_ZNSt3__121__list_const_iteratorIN6quad_F12one_intervalEPvEppEv
FNDA:438,_ZNKSt3__110__list_impI11coef_vectorNS_9allocatorIS1_EEE13__end_as_linkEv
FNDA:1920,_ZNSt3__116__list_node_baseI14Legendre_coefsPvEC2Ev
FNDA:50622,_ZNSt3__121__list_const_iteratorI13min_Eout_infoPvEC2Ev
FNDA:86,_ZNSt3__14listI11coef_vectorNS_9allocatorIS1_EEED2Ev
FNDA:3,_ZNSt3__110__list_impI13min_Eout_infoNS_9allocatorIS1_EEE26__invalidate_all_iteratorsEv
FNDA:151642510,_ZNSt3__110__list_impI11Ein_Eta_HitNS_9allocatorIS1_EEE14__unlink_nodesEPNS_16__list_node_baseIS1_PvEES8_
FNDA:16,_ZNSt3__121__list_const_iteratorI24standard_Legendre_vectorPvEmmEv
FNDA:150,_ZNSt3__121__list_const_iteratorI11coef_vectorPvEC2ERKNS_15__list_iteratorIS1_S2_EE
FNDA:13669911,_ZNSt3__14listI15Vcm_quadBox_HitNS_9allocatorIS1_EEE12__link_nodesEPNS_16__list_node_baseIS1_PvEES8_S8_
FNDA:4610950,_ZNKSt3__121__list_const_iteratorI14Legendre_coefsPvEptEv
FNDA:86,_ZNSt3__14listI13weight_vectorNS_9allocatorIS1_EEEC2Ev
FNDA:4368,_ZNSt3__116__list_node_baseI21cumulative_prob_entryPvEC1Ev
FNDA:1197,_ZNSt3__115__list_iteratorI18cm_Legendre_vectorPvEC1EPNS_16__list_node_baseIS1_S2_EE
FNDA:0,_ZNSt3__1neERKNS_21__list_const_iteratorIN6quad_F12one_intervalEPvEES6_
FNDA:14699,_ZNSt3__1eqERKNS_15__list_iteratorI21cumulative_prob_entryPvEES5_
FNDA:4368,_ZNKSt3__110__list_impI21cumulative_prob_entryNS_9allocatorIS1_EEE4__szEv
FNDA:46585,_ZNSt3__110__list_impI11Ein_Eta_HitNS_9allocatorIS1_EEED2Ev
FNDA:489740,_ZNSt3__110__list_impI13min_Eout_infoNS_9allocatorIS1_EEE3endEv
FNDA:550,_ZNSt3__1neERKNS_15__list_iteratorI15Kalbach_one_EinPvEES5_
FNDA:12769,_ZNSt3__14listIdNS_9allocatorIdEEE5eraseENS_21__list_const_iteratorIdPvEES6_
FNDA:294,_ZNSt3__110__list_impI24standard_Legendre_vectorNS_9allocatorIS1_EEE4__szEv
FNDA:201867860,_ZNSt3__110__list_impIN6quad_F12one_intervalENS_9allocatorIS2_EEE3endEv
FNDA:460,_ZNSt3__14listI9dd_vectorNS_9allocatorIS1_EEE12__link_nodesEPNS_16__list_node_baseIS1_PvEES8_S8_
FNDA:2030,_ZNKSt3__110__list_impI14Legendre_coefsNS_9allocatorIS1_EEE5emptyEv
FNDA:7246212,_ZNSt3__115__list_iteratorI15Vcm_quadBox_HitPvEmmEv
FNDA:489869,_ZNKSt3__110__list_impI13min_Eout_infoNS_9allocatorIS1_EEE13__end_as_linkEv
FNDA:128,_ZNSt3__121__list_const_iteratorIN4cmDD14one_joint_distEPvEppEv
FNDA:43621179,_ZNSt3__1eqERKNS_15__list_iteratorI15Vcm_quadBox_HitPvEES5_
FNDA:208,_ZNSt3__110__list_impI9dd_vectorNS_9allocatorIS1_EEEC2Ev
FNDA:1280001708,_ZNSt3__110__list_impI11Ein_Eta_HitNS_9allocatorIS1_EEE3endEv
FNDA:7246212,_ZNSt3__14listI15Vcm_quadBox_HitNS_9allocatorIS1_EEE10push_frontERKS1_
FNDA:0,_ZNSt3__14listIN4cmDD8one_EoutENS_9allocatorIS2_EEE9push_backERKS2_
FNDA:234,_ZNSt3__126__list_node_pointer_traitsIN4cmDD14one_joint_distEPvE26__unsafe_link_pointer_castEPNS_16__list_node_baseIS2_S3_EE
FNDA:2158471298,_ZNSt3__115__list_iteratorI11Ein_Eta_HitPvEC1EPNS_16__list_node_baseIS1_S2_EE
FNDA:426203,_ZNSt3__116__list_node_baseI12Eprob_vectorPvE9__as_nodeEv
FNDA:0,_ZNSt3__14listIN6quad_F12one_intervalENS_9allocatorIS2_EEE5eraseENS_21__list_const_iteratorIS2_PvEES8_
FNDA:99,_ZNSt3__110__list_impI18cm_Legendre_vectorNS_9allocatorIS1_EEE12__node_allocEv
FNDA:8124,_ZNSt3__14listI13weight_vectorNS_9allocatorIS1_EEE6insertENS_21__list_const_iteratorIS1_PvEERKS1_
FNDA:240808518,_ZNSt3__110__list_impIN6quad_F12one_intervalENS_9allocatorIS2_EEE4__szEv
FNDA:76290,_ZNKSt3__110__list_impI7ss_linkNS_9allocatorIS1_EEE13__end_as_linkEv
FNDA:1401,_ZNKSt3__110__list_impIdNS_9allocatorIdEEE4__szEv
FNDA:10868873,_ZNSt3__110__list_impI15Vcm_quadBox_HitNS_9allocatorIS1_EEE5beginEv
FNDA:46585,_ZNSt3__116__list_node_baseI11Ein_Eta_HitPvEC1Ev
FNDA:12,_ZNKSt3__121__list_const_iteratorI15Kalbach_one_EinPvEptEv
FNDA:126,_ZNSt3__115__list_iteratorI13min_Eout_infoPvEmmEv
FNDA:10868873,_ZNSt3__14listI15Vcm_quadBox_HitNS_9allocatorIS1_EEE5beginEv
FNDA:4416,_ZNSt3__115__list_iteratorIdPvEmmEv
FNDA:258,_ZNSt3__14listI24standard_Legendre_vectorNS_9allocatorIS1_EEEC2Ev
FNDA:58893,_ZNKSt3__115__list_iteratorIN4cmDD8one_EoutEPvEptEv
FNDA:211430,_ZNKSt3__14listI14Legendre_coefsNS_9allocatorIS1_EEE3endEv
FNDA:1401,_ZNKSt3__110__list_impIdNS_9allocatorIdEEE5emptyEv
FNDA:4170608,_ZNSt3__116__list_node_baseIN4cmDD14one_joint_distEPvE9__as_nodeEv
FNDA:39366,_ZNSt3__111__list_nodeIdPvE9__as_linkEv
FNDA:86,_ZNSt3__14listI7ss_linkNS_9allocatorIS1_EEEC2Ev
FNDA:244,_ZNSt3__115__list_iteratorI11coef_vectorPvEC1Ev
FNDA:15,_ZNSt3__14listIN4cmDD14one_joint_distENS_9allocatorIS2_EEE12__link_nodesEPNS_16__list_node_baseIS2_PvEES9_S9_
FNDA:172,_ZNSt3__110__list_impI13weight_vectorNS_9allocatorIS1_EEE5beginEv
FNDA:1155,_ZNSt3__14listI12Eprob_vectorNS_9allocatorIS1_EEE3endEv
FNDA:15402,_ZNSt3__14listI6one_muNS_9allocatorIS1_EEE3endEv
FNDA:1205,_ZNSt3__14listI6one_muNS_9allocatorIS1_EEE12__link_nodesEPNS_16__list_node_baseIS1_PvEES8_S8_
FNDA:381553213,_ZNSt3__121__list_const_iteratorI11Ein_Eta_HitPvEppEv
FNDA:621,_ZNSt3__110__list_impI14Legendre_coefsNS_9allocatorIS1_EEE26__invalidate_all_iteratorsEv
FNDA:186,_ZNSt3__14listI15Kalbach_one_EinNS_9allocatorIS1_EEE6insertENS_21__list_const_iteratorIS1_PvEERKS1_
FNDA:29696,_ZNSt3__126__list_node_pointer_traitsIdPvE26__unsafe_link_pointer_castEPNS_16__list_node_baseIdS1_EE
FNDA:86,_ZNKSt3__110__list_impI18cm_Legendre_vectorNS_9allocatorIS1_EEE5emptyEv
FNDA:76,_ZNKSt3__110__list_impI6one_muNS_9allocatorIS1_EEE12__node_allocEv
FNDA:23643,_ZNSt3__115__list_iteratorIdPvEC2EPNS_16__list_node_baseIdS1_EE
FNDA:15,_ZNSt3__14listIN4cmDD14one_joint_distENS_9allocatorIS2_EEE6insertENS_21__list_const_iteratorIS2_PvEERKS2_
FNDA:6885,_ZNSt3__110__list_impI11Ein_Eta_HitNS_9allocatorIS1_EEE26__invalidate_all_iteratorsEv
FNDA:11,_ZNSt3__110__list_impI12Eprob_vectorNS_9allocatorIS1_EEE14__unlink_nodesEPNS_16__list_node_baseIS1_PvEES8_
FNDA:920,_ZNSt3__14listI15Vcm_quadBox_HitNS_9allocatorIS1_EEED2Ev
FNDA:4368,_ZNSt3__116__list_node_baseI21cumulative_prob_entryPvEC2Ev
FNDA:87368,_ZNSt3__115__list_iteratorIdPvEppEv
FNDA:258,_ZNKSt3__110__list_impI24standard_Legendre_vectorNS_9allocatorIS1_EEE4__szEv
FNDA:3267,_ZNSt3__110__list_impI14Legendre_coefsNS_9allocatorIS1_EEE5beginEv
FNDA:942,_ZNSt3__110__list_impI18cm_Legendre_vectorNS_9allocatorIS1_EEE3endEv
FNDA:129,_ZNSt3__110__list_impI13min_Eout_infoNS_9allocatorIS1_EEE4__szEv
FNDA:1549,_ZNSt3__14listI14Legendre_coefsNS_9allocatorIS1_EEEC2Ev
FNDA:276604,_ZNSt3__126__list_node_pointer_traitsI14Legendre_coefsPvE26__unsafe_link_pointer_castEPNS_16__list_node_baseIS1_S2_EE
FNDA:22435,_ZNSt3__1neERKNS_15__list_iteratorI14Legendre_coefsPvEES5_
FNDA:759,_ZNSt3__1eqERKNS_21__list_const_iteratorI9dd_vectorPvEES5_
FNDA:9997972,_ZNKSt3__121__list_const_iteratorI15Vcm_quadBox_HitPvEdeEv
FNDA:1692,_ZNKSt3__110__list_impI21cumulative_prob_entryNS_9allocatorIS1_EEE12__node_allocEv
FNDA:214,_ZNSt3__110__list_impI12Eprob_vectorNS_9allocatorIS1_EEE5beginEv
FNDA:1920,_ZNSt3__14listI14Legendre_coefsNS_9allocatorIS1_EEED2Ev
FNDA:86,_ZNKSt3__110__list_impI12Eprob_vectorNS_9allocatorIS1_EEE4__szEv
FNDA:126,_ZNSt3__1eqERKNS_15__list_iteratorI13min_Eout_infoPvEES5_
FNDA:1,_ZNSt3__115__list_iteratorIN4cmDD8one_EoutEPvEC2Ev
FNDA:1618481056,_ZNSt3__126__list_node_pointer_traitsI11Ein_Eta_HitPvE26__unsafe_link_pointer_castEPNS_16__list_node_baseIS1_S2_EE
FNDA:8776,_ZNSt3__14listIN4cmDD8one_EoutENS_9allocatorIS2_EEE3endEv
FNDA:2964,_ZNSt3__115__list_iteratorI9dd_vectorPvEC2EPNS_16__list_node_baseIS1_S2_EE
FNDA:30,_ZNSt3__116__list_node_baseIN4cmDD8one_EoutEPvEC2Ev
FNDA:50622,_ZNSt3__121__list_const_iteratorI13min_Eout_infoPvEC1Ev
FNDA:258,_ZNSt3__110__list_impI24standard_Legendre_vectorNS_9allocatorIS1_EEED2Ev
FNDA:186,_ZNSt3__115__list_iteratorI15Kalbach_one_EinPvEmmEv
FNDA:72492758,_ZNKSt3__115__list_iteratorI15Vcm_quadBox_HitPvEdeEv
FNDA:1321,_ZNSt3__121__list_const_iteratorI12Eprob_vectorPvEC1ERKNS_15__list_iteratorIS1_S2_EE
FNDA:553399617,_ZNSt3__115__list_iteratorIN6quad_F12one_intervalEPvEC1EPNS_16__list_node_baseIS2_S3_EE
FNDA:182266,_ZNSt3__115__list_iteratorI15Boundary_cornerPvEC1EPNS_16__list_node_baseIS1_S2_EE
FNDA:4368,_ZNSt3__110__list_impI21cumulative_prob_entryNS_9allocatorIS1_EEE5clearEv
FNDA:185577480,_ZNKSt3__110__list_impIN6quad_F12one_intervalENS_9allocatorIS2_EEE5emptyEv
FNDA:512980,_ZNSt3__115__list_iteratorI13min_Eout_infoPvEC1EPNS_16__list_node_baseIS1_S2_EE
FNDA:1692,_ZNSt3__110__list_impI21cumulative_prob_entryNS_9allocatorIS1_EEEC2ERKNS2_INS_11__list_nodeIS1_PvEEEE
FNDA:15,_ZNSt3__115__list_iteratorIN4cmDD8one_EoutEPvEmmEv
FNDA:2194,_ZNSt3__110__list_impIN4cmDD8one_EoutENS_9allocatorIS2_EEE4__szEv
FNDA:174303,_ZNKSt3__110__list_impI15Boundary_cornerNS_9allocatorIS1_EEE13__end_as_linkEv
FNDA:86,_ZNSt3__110__list_impI13weight_vectorNS_9allocatorIS1_EEEC2Ev
FNDA:3354,_ZNSt3__115__list_iteratorI24standard_Legendre_vectorPvEppEv
FNDA:107466,_ZNSt3__110__list_impI15Boundary_cornerNS_9allocatorIS1_EEE3endEv
FNDA:6,_ZNSt3__115__list_iteratorI18cm_Legendre_vectorPvEC2Ev
FNDA:489740,_ZNSt3__14listI13min_Eout_infoNS_9allocatorIS1_EEE3endEv
FNDA:4166190,_ZNKSt3__121__list_const_iteratorIN4cmDD14one_joint_distEPvEptEv
FNDA:210,_ZNKSt3__110__list_impI9dd_vectorNS_9allocatorIS1_EEE5emptyEv
FNDA:86,_ZNSt3__110__list_impIN4cmDD14one_joint_distENS_9allocatorIS2_EEED2Ev
FNDA:515,_ZNSt3__110__list_impI9dd_vectorNS_9allocatorIS1_EEE12__node_allocEv
FNDA:156,_ZNSt3__121__list_const_iteratorI6one_muPvEC1EPNS_16__list_node_baseIS1_S2_EE
FNDA:152,_ZNSt3__110__list_impI6one_muNS_9allocatorIS1_EEED2Ev
FNDA:40797,_ZNSt3__121__list_const_iteratorI14Legendre_coefsPvEC1ERKNS_15__list_iteratorIS1_S2_EE
FNDA:279,_ZNSt3__111__list_nodeI18cm_Legendre_vectorPvE9__as_linkEv
FNDA:144,_ZNSt3__14listI11coef_vectorNS_9allocatorIS1_EEE20__link_nodes_at_backEPNS_16__list_node_baseIS1_PvEES8_
FNDA:30,_ZNSt3__115__list_iteratorIN4cmDD14one_joint_distEPvEppEv
FNDA:36728805,_ZNSt3__115__list_iteratorI15Vcm_quadBox_HitPvEC2EPNS_16__list_node_baseIS1_S2_EE
FNDA:32329749,_ZNSt3__14listI11Ein_Eta_HitNS_9allocatorIS1_EEE6insertENS_21__list_const_iteratorIS1_PvEERKS1_
FNDA:67008,_ZNSt3__110__list_impI15Boundary_cornerNS_9allocatorIS1_EEE12__node_allocEv
FNDA:6,_ZNSt3__110__list_impI18cm_Legendre_vectorNS_9allocatorIS1_EEE14__unlink_nodesEPNS_16__list_node_baseIS1_PvEES8_
FNDA:8842,_ZNSt3__121__list_const_iteratorIN4cmDD8one_EoutEPvEC1EPNS_16__list_node_baseIS2_S3_EE
FNDA:416,_ZNSt3__121__list_const_iteratorI12Eprob_vectorPvEC2Ev
FNDA:0,_ZNSt3__14listIN4cmDD8one_EoutENS_9allocatorIS2_EEE20__link_nodes_at_backEPNS_16__list_node_baseIS2_PvEES9_
FNDA:1205,_ZNSt3__14listI6one_muNS_9allocatorIS1_EEE15__allocate_nodeERNS2_INS_11__list_nodeIS1_PvEEEE
FNDA:76,_ZNSt3__110__list_impI6one_muNS_9allocatorIS1_EEE26__invalidate_all_iteratorsEv
FNDA:2727279003,_ZNSt3__116__list_node_baseI11Ein_Eta_HitPvE9__as_nodeEv
FNDA:158453,_ZNSt3__116__list_node_baseIdPvE9__as_nodeEv
FNDA:147,_ZNSt3__1neERKNS_21__list_const_iteratorI11coef_vectorPvEES5_
FNDA:258,_ZNSt3__116__list_node_baseI24standard_Legendre_vectorPvEC1Ev
FNDA:1155,_ZNSt3__110__list_impI12Eprob_vectorNS_9allocatorIS1_EEE3endEv
FNDA:310,_ZNSt3__121__list_const_iteratorI24standard_Legendre_vectorPvEC2ERKNS_15__list_iteratorIS1_S2_EE
FNDA:80,_ZNSt3__116__list_node_baseI15Boundary_cornerPvEC2Ev
FNDA:14127,_ZNSt3__1eqERKNS_15__list_iteratorI6one_muPvEES5_
FNDA:110746552,_ZNSt3__110__list_impIN6quad_F12one_intervalENS_9allocatorIS2_EEE5beginEv
FNDA:8006,_ZNSt3__121__list_const_iteratorI21cumulative_prob_entryPvEC2ERKNS_15__list_iteratorIS1_S2_EE
FNDA:30759996,_ZNSt3__121__list_const_iteratorIN4cmDD8one_EoutEPvEC1Ev
FNDA:86,_ZNSt3__116__list_node_baseIN4cmDD14one_joint_distEPvEC1Ev
FNDA:60512,_ZNSt3__110__list_impIdNS_9allocatorIdEEE4__szEv
FNDA:80,_ZNSt3__14listI15Boundary_cornerNS_9allocatorIS1_EEED2Ev
FNDA:8,_ZNKSt3__14listI9dd_vectorNS_9allocatorIS1_EEE4sizeEv
FNDA:278,_ZNSt3__14listI24standard_Legendre_vectorNS_9allocatorIS1_EEE15__allocate_nodeERNS2_INS_11__list_nodeIS1_PvEEEE
FNDA:187298166,_ZNKSt3__14listI11Ein_Eta_HitNS_9allocatorIS1_EEE5emptyEv
FNDA:14366874,_ZNSt3__14listI15Vcm_quadBox_HitNS_9allocatorIS1_EEE20__link_nodes_at_backEPNS_16__list_node_baseIS1_PvEES8_
FNDA:1107,_ZNSt3__110__list_impIdNS_9allocatorIdEEE26__invalidate_all_iteratorsEv
FNDA:11952,_ZNSt3__115__list_iteratorI11coef_vectorPvEppEv
FNDA:445,_ZNSt3__110__list_impI15Vcm_quadBox_HitNS_9allocatorIS1_EEE26__invalidate_all_iteratorsEv
FNDA:480,_ZNKSt3__121__list_const_iteratorI6one_muPvEptEv
FNDA:165780,_ZNSt3__1eqERKNS_21__list_const_iteratorI15Boundary_cornerPvEES5_
FNDA:3623106,_ZNKSt3__14listI15Vcm_quadBox_HitNS_9allocatorIS1_EEE4sizeEv
FNDA:84078,_ZNSt3__115__list_iteratorI7ss_linkPvEC1EPNS_16__list_node_baseIS1_S2_EE
FNDA:252,_ZNSt3__111__list_nodeI13min_Eout_infoPvE9__as_linkEv
FNDA:4403,_ZNKSt3__115__list_iteratorIN4cmDD14one_joint_distEPvEptEv
FNDA:5629,_ZNSt3__115__list_iteratorI7ss_linkPvEC2Ev
FNDA:3,_ZNSt3__110__list_impI11coef_vectorNS_9allocatorIS1_EEE26__invalidate_all_iteratorsEv
FNDA:1104,_ZNSt3__14listIdNS_9allocatorIdEEE4sortEv
FNDA:1395,_ZNSt3__14listIdNS_9allocatorIdEEE6uniqueINS_10__equal_toIddEEEEvT_
FNDA:3623106,_ZNSt3__14listI15Vcm_quadBox_HitNS_9allocatorIS1_EEE4sortIPFbS1_S1_EEEvT_
FNDA:86,_ZNSt3__110__list_impI13weight_vectorNS_9allocatorIS1_EEE26__invalidate_all_iteratorsEv
FNDA:86,_ZNSt3__110__list_impI15Kalbach_one_EinNS_9allocatorIS1_EEEC2Ev
FNDA:86,_ZNSt3__110__list_impI14one_joint_distNS_9allocatorIS1_EEEC2Ev
FNDA:201867860,_ZNSt3__14listIN6quad_F12one_intervalENS_9allocatorIS2_EEE3endEv
FNDA:69699,_ZNKSt3__115__list_iteratorI14Legendre_coefsPvEptEv
FNDA:100354,_ZNSt3__110__list_impI15Boundary_cornerNS_9allocatorIS1_EEE4__szEv
FNDA:265,_ZNSt3__1eqERKNS_15__list_iteratorI14one_joint_distPvEES5_
FNDA:558,_ZNSt3__111__list_nodeI15Kalbach_one_EinPvE9__as_linkEv
FNDA:97,_ZNSt3__115__list_iteratorIN4cmDD14one_joint_distEPvEC1EPNS_16__list_node_baseIS2_S3_EE
FNDA:74839757,_ZNSt3__110__list_impIN6quad_F12one_intervalENS_9allocatorIS2_EEEC2Ev
FNDA:77,_ZNKSt3__110__list_impI6one_muNS_9allocatorIS1_EEE5beginEv
FNDA:1077378641,_ZNSt3__1eqERKNS_15__list_iteratorI11Ein_Eta_HitPvEES5_
FNDA:19683,_ZNSt3__14listIdNS_9allocatorIdEEE15__allocate_nodeERNS1_INS_11__list_nodeIdPvEEEE
FNDA:100512,_ZNSt3__111__list_nodeI15Boundary_cornerPvE9__as_linkEv
FNDA:30900,_ZNSt3__110__list_impI14Legendre_coefsNS_9allocatorIS1_EEE12__node_allocEv
FNDA:16832,_ZNKSt3__110__list_impI15Boundary_cornerNS_9allocatorIS1_EEE4__szEv
FNDA:218,_ZNKSt3__110__list_impI9dd_vectorNS_9allocatorIS1_EEE4__szEv
FNDA:15,_ZNSt3__14listIN4cmDD14one_joint_distENS_9allocatorIS2_EEE15__allocate_nodeERNS3_INS_11__list_nodeIS2_PvEEEE
FNDA:187344751,_ZNKSt3__110__list_impI11Ein_Eta_HitNS_9allocatorIS1_EEE5emptyEv
FNDA:30759996,_ZNSt3__121__list_const_iteratorIN4cmDD8one_EoutEPvEC2Ev
FNDA:357144773,_ZNSt3__121__list_const_iteratorI11Ein_Eta_HitPvEC1ERKNS_15__list_iteratorIS1_S2_EE
FNDA:2245,_ZNSt3__110__list_impI7ss_linkNS_9allocatorIS1_EEE12__node_allocEv
FNDA:86,_ZNSt3__14listI12Eprob_vectorNS_9allocatorIS1_EEED2Ev
FNDA:324,_ZNSt3__121__list_const_iteratorI18cm_Legendre_vectorPvEC1Ev
FNDA:370709042,_ZNSt3__14listI11Ein_Eta_HitNS_9allocatorIS1_EEE15__allocate_nodeERNS2_INS_11__list_nodeIS1_PvEEEE
FNDA:2245,_ZNSt3__110__list_impI7ss_linkNS_9allocatorIS1_EEE4__szEv
FNDA:60713,_ZNSt3__14listI14Legendre_coefsNS_9allocatorIS1_EEE3endEv
FNDA:162,_ZNSt3__110__list_impI18cm_Legendre_vectorNS_9allocatorIS1_EEE5beginEv
FNDA:36728805,_ZNSt3__115__list_iteratorI15Vcm_quadBox_HitPvEC1EPNS_16__list_node_baseIS1_S2_EE
FNDA:80,_ZNKSt3__110__list_impI15Boundary_cornerNS_9allocatorIS1_EEE5emptyEv
FNDA:42,_ZNSt3__1neERKNS_15__list_iteratorI12Eprob_vectorPvEES5_
FNDA:150,_ZNSt3__121__list_const_iteratorI11coef_vectorPvEC1ERKNS_15__list_iteratorIS1_S2_EE
FNDA:80,_ZNSt3__115__list_iteratorI15Boundary_cornerPvEC1Ev
FNDA:1338,_ZNSt3__126__list_node_pointer_traitsI12Eprob_vectorPvE26__unsafe_link_pointer_castEPNS_16__list_node_baseIS1_S2_EE
FNDA:258,_ZNKSt3__110__list_impI24standard_Legendre_vectorNS_9allocatorIS1_EEE5emptyEv
FNDA:109485,_ZNSt3__1neERKNS_15__list_iteratorIdPvEES4_
FNDA:1453,_ZNSt3__110__list_impI9dd_vectorNS_9allocatorIS1_EEE3endEv
FNDA:46328,_ZNSt3__1neERKNS_21__list_const_iteratorIdPvEES4_
FNDA:2179,_ZNSt3__14listIN4cmDD8one_EoutENS_9allocatorIS2_EEE6insertENS_21__list_const_iteratorIS2_PvEERKS2_
FNDA:1896,_ZNKSt3__115__list_iteratorI11coef_vectorPvEptEv
FNDA:86,_ZNSt3__14listI18cm_Legendre_vectorNS_9allocatorIS1_EEEC2Ev
FNDA:371,_ZNSt3__110__list_impI14Legendre_coefsNS_9allocatorIS1_EEEC2ERKNS2_INS_11__list_nodeIS1_PvEEEE
FNDA:3,_ZNSt3__110__list_impI11coef_vectorNS_9allocatorIS1_EEE14__unlink_nodesEPNS_16__list_node_baseIS1_PvEES8_
FNDA:36,_ZNSt3__115__list_iteratorI12Eprob_vectorPvEppEv
FNDA:8765,_ZNKSt3__14listIN4cmDD8one_EoutENS_9allocatorIS2_EEE3endEv
FNDA:86,_ZNSt3__110__list_impI13weight_vectorNS_9allocatorIS1_EEED2Ev
FNDA:17523,_ZNSt3__115__list_iteratorI6one_muPvEC1EPNS_16__list_node_baseIS1_S2_EE
FNDA:198,_ZNSt3__121__list_const_iteratorI15Kalbach_one_EinPvEC1ERKNS_15__list_iteratorIS1_S2_EE
FNDA:222564409,_ZNSt3__116__list_node_baseI15Vcm_quadBox_HitPvE6__selfEv
FNDA:86,_ZNSt3__110__list_impI11coef_vectorNS_9allocatorIS1_EEE5clearEv
FNDA:3402574463,_ZNSt3__116__list_node_baseIN6quad_F12one_intervalEPvE6__selfEv
FNDA:19401,_ZNSt3__116__list_node_baseI15Kalbach_one_EinPvE6__selfEv
FNDA:86,_ZNKSt3__110__list_impIN4cmDD14one_joint_distENS_9allocatorIS2_EEE4__szEv
FNDA:11,_ZNSt3__115__list_iteratorI12Eprob_vectorPvEC1Ev
FNDA:4368,_ZNKSt3__110__list_impI21cumulative_prob_entryNS_9allocatorIS1_EEE5emptyEv
FNDA:16752,_ZNSt3__110__list_impI15Boundary_cornerNS_9allocatorIS1_EEE14__unlink_nodesEPNS_16__list_node_baseIS1_PvEES8_
FNDA:357144773,_ZNSt3__121__list_const_iteratorI11Ein_Eta_HitPvEC2ERKNS_15__list_iteratorIS1_S2_EE
FNDA:1192,_ZNSt3__115__list_iteratorI24standard_Legendre_vectorPvEC2EPNS_16__list_node_baseIS1_S2_EE
FNDA:86,_ZNSt3__14listI11coef_vectorNS_9allocatorIS1_EEEC1Ev
FNDA:1618387886,_ZNKSt3__110__list_impI11Ein_Eta_HitNS_9allocatorIS1_EEE13__end_as_linkEv
FNDA:3442,_ZNKSt3__115__list_iteratorI12Eprob_vectorPvEptEv
FNDA:148842,_ZNSt3__121__list_const_iteratorI15Boundary_cornerPvEC2ERKNS_15__list_iteratorIS1_S2_EE
FNDA:142731807,_ZNSt3__116__list_node_baseI15Vcm_quadBox_HitPvE9__as_nodeEv
FNDA:3732,_ZNSt3__121__list_const_iteratorI21cumulative_prob_entryPvEC2EPNS_16__list_node_baseIS1_S2_EE
FNDA:186,_ZNSt3__14listI15Kalbach_one_EinNS_9allocatorIS1_EEE12__link_nodesEPNS_16__list_node_baseIS1_PvEES8_S8_
FNDA:152,_ZNSt3__14listI6one_muNS_9allocatorIS1_EEED2Ev
FNDA:540,_ZNSt3__14listI24standard_Legendre_vectorNS_9allocatorIS1_EEE3endEv
FNDA:155897,_ZNKSt3__110__list_impI14Legendre_coefsNS_9allocatorIS1_EEE5beginEv
FNDA:1453,_ZNSt3__14listI9dd_vectorNS_9allocatorIS1_EEE3endEv
FNDA:116,_ZNSt3__14listI12Eprob_vectorNS_9allocatorIS1_EEE15__allocate_nodeERNS2_INS_11__list_nodeIS1_PvEEEE
FNDA:782,_ZNSt3__115__list_iteratorI24standard_Legendre_vectorPvEC2Ev
FNDA:120404259,_ZNSt3__110__list_impIN6quad_F12one_intervalENS_9allocatorIS2_EEE14__unlink_nodesEPNS_16__list_node_baseIS2_PvEES9_
FNDA:30566,_ZNSt3__115__list_iteratorI21cumulative_prob_entryPvEC1EPNS_16__list_node_baseIS1_S2_EE
FNDA:460,_ZNSt3__14listI9dd_vectorNS_9allocatorIS1_EEE15__allocate_nodeERNS2_INS_11__list_nodeIS1_PvEEEE
FNDA:86,_ZNSt3__110__list_impI7ss_linkNS_9allocatorIS1_EEEC2Ev
FNDA:2159,_ZNSt3__14listI7ss_linkNS_9allocatorIS1_EEE12__link_nodesEPNS_16__list_node_baseIS1_PvEES8_S8_
FNDA:920,_ZNSt3__110__list_impI15Vcm_quadBox_HitNS_9allocatorIS1_EEED2Ev
FNDA:40797,_ZNSt3__121__list_const_iteratorI14Legendre_coefsPvEC2ERKNS_15__list_iteratorIS1_S2_EE
FNDA:15,_ZNSt3__110__list_impIN4cmDD8one_EoutENS_9allocatorIS2_EEE26__invalidate_all_iteratorsEv
FNDA:11,_ZNSt3__115__list_iteratorI12Eprob_vectorPvEC2Ev
FNDA:1321,_ZNSt3__121__list_const_iteratorI12Eprob_vectorPvEC2ERKNS_15__list_iteratorIS1_S2_EE
FNDA:180360,_ZNSt3__116__list_node_baseI24standard_Legendre_vectorPvE9__as_nodeEv
FNDA:17261,_ZNKSt3__115__list_iteratorI15Kalbach_one_EinPvEptEv
FNDA:201891173,_ZNKSt3__110__list_impIN6quad_F12one_intervalENS_9allocatorIS2_EEE13__end_as_linkEv
FNDA:80,_ZNSt3__110__list_impI15Boundary_cornerNS_9allocatorIS1_EEE26__invalidate_all_iteratorsEv
FNDA:1426,_ZNSt3__121__list_const_iteratorI9dd_vectorPvEC2Ev
FNDA:187,_ZNSt3__115__list_iteratorI14Legendre_coefsPvEmmEv
FNDA:920,_ZNKSt3__110__list_impI15Vcm_quadBox_HitNS_9allocatorIS1_EEE5emptyEv
FNDA:512980,_ZNSt3__115__list_iteratorI13min_Eout_infoPvEC2EPNS_16__list_node_baseIS1_S2_EE
FNDA:86,_ZNSt3__116__list_node_baseI15Kalbach_one_EinPvEC1Ev
FNDA:3,_ZNSt3__110__list_impI13min_Eout_infoNS_9allocatorIS1_EEE14__unlink_nodesEPNS_16__list_node_baseIS1_PvEES8_
FNDA:3622661,_ZNSt3__14listI15Vcm_quadBox_HitNS_9allocatorIS1_EEE5eraseENS_21__list_const_iteratorIS1_PvEES7_
FNDA:76,_ZNSt3__110__list_impI6one_muNS_9allocatorIS1_EEEC2Ev
FNDA:460,_ZNSt3__14listI9dd_vectorNS_9allocatorIS1_EEE6insertENS_21__list_const_iteratorIS1_PvEERKS1_
FNDA:2976,_ZNSt3__121__list_const_iteratorI21cumulative_prob_entryPvEC1Ev
FNDA:21471,_ZNSt3__111__list_nodeI21cumulative_prob_entryPvE9__as_linkEv
FNDA:127028103,_ZNSt3__115__list_iteratorIN6quad_F12one_intervalEPvEppEv
FNDA:8056,_ZNSt3__14listIdNS_9allocatorIdEEE6__sortINS_6__lessIddEEEENS_15__list_iteratorIdPvEES9_S9_mRT_
FNDA:21967,_ZNSt3__115__list_iteratorI14Legendre_coefsPvEppEv
FNDA:30541,_ZNSt3__121__list_const_iteratorIdPvEC1ERKNS_15__list_iteratorIdS1_EE
FNDA:1183,_ZNSt3__121__list_const_iteratorI12Eprob_vectorPvEppEv
FNDA:843,_ZNSt3__1eqERKNS_21__list_const_iteratorI18cm_Legendre_vectorPvEES5_
FNDA:22194,_ZNSt3__110__list_impI21cumulative_prob_entryNS_9allocatorIS1_EEE3endEv
FNDA:126,_ZNSt3__1neERKNS_15__list_iteratorI13min_Eout_infoPvEES5_
FNDA:2,_ZNSt3__121__list_const_iteratorI6one_muPvEppEv
FNDA:86,_ZNKSt3__110__list_impIN4cmDD14one_joint_distENS_9allocatorIS2_EEE5emptyEv
FNDA:24372,_ZNKSt3__115__list_iteratorI13weight_vectorPvEptEv
FNDA:350,_ZNKSt3__110__list_impI14one_joint_distNS_9allocatorIS1_EEE13__end_as_linkEv
FNDA:80,_ZNSt3__14listI15Boundary_cornerNS_9allocatorIS1_EEEC2Ev
FNDA:14284,_ZNSt3__115__list_iteratorI6one_muPvEppEv
FNDA:38,_ZNSt3__121__list_const_iteratorIN4cmDD14one_joint_distEPvEC2Ev
FNDA:1281,_ZNSt3__110__list_impI6one_muNS_9allocatorIS1_EEE12__node_allocEv
FNDA:86,_ZNSt3__14listIN4cmDD14one_joint_distENS_9allocatorIS2_EEEC2Ev
FNDA:76,_ZNSt3__14listI14one_joint_distNS_9allocatorIS1_EEE12__link_nodesEPNS_16__list_node_baseIS1_PvEES8_S8_
FNDA:5715,_ZNSt3__110__list_impI7ss_linkNS_9allocatorIS1_EEE5beginEv
FNDA:23240,_ZNSt3__110__list_impI13min_Eout_infoNS_9allocatorIS1_EEE5beginEv
FNDA:86,_ZNSt3__110__list_impI12Eprob_vectorNS_9allocatorIS1_EEE5clearEv
FNDA:4170887,_ZNSt3__116__list_node_baseIN4cmDD14one_joint_distEPvE6__selfEv
FNDA:371,_ZNSt3__14listI14Legendre_coefsNS_9allocatorIS1_EEEC2ERKS4_
FNDA:22910122,_ZNSt3__116__list_node_baseI11coef_vectorPvE6__selfEv
FNDA:920,_ZNSt3__116__list_node_baseI15Vcm_quadBox_HitPvEC1Ev
FNDA:86,_ZNSt3__116__list_node_baseI11coef_vectorPvEC2Ev
FNDA:5,_ZNSt3__121__list_const_iteratorI14one_joint_distPvEmmEv
FNDA:36129,_ZNSt3__110__list_impI14Legendre_coefsNS_9allocatorIS1_EEE4__szEv
FNDA:3267,_ZNSt3__14listI14Legendre_coefsNS_9allocatorIS1_EEE5beginEv
FNDA:1192,_ZNSt3__115__list_iteratorI24standard_Legendre_vectorPvEC1EPNS_16__list_node_baseIS1_S2_EE
FNDA:1071368930,_ZNSt3__1neERKNS_15__list_iteratorI11Ein_Eta_HitPvEES5_
FNDA:6,_ZNSt3__121__list_const_iteratorI15Kalbach_one_EinPvEmmEv
FNDA:86,_ZNSt3__14listI18cm_Legendre_vectorNS_9allocatorIS1_EEED2Ev
FNDA:32,_ZNSt3__1eqERKNS_15__list_iteratorIN4cmDD14one_joint_distEPvEES6_
FNDA:19683,_ZNSt3__14listIdNS_9allocatorIdEEE20__link_nodes_at_backEPNS_16__list_node_baseIdPvEES7_
FNDA:86,_ZNKSt3__110__list_impI11coef_vectorNS_9allocatorIS1_EEE5emptyEv
FNDA:1252,_ZNSt3__126__list_node_pointer_traitsI15Kalbach_one_EinPvE26__unsafe_link_pointer_castEPNS_16__list_node_baseIS1_S2_EE
FNDA:172,_ZNSt3__14listI13weight_vectorNS_9allocatorIS1_EEE5beginEv
FNDA:435,_ZNSt3__115__list_iteratorI9dd_vectorPvEC1Ev
FNDA:559199,_ZNKSt3__121__list_const_iteratorI13min_Eout_infoPvEptEv
FNDA:6,_ZNSt3__110__list_impI15Kalbach_one_EinNS_9allocatorIS1_EEE26__invalidate_all_iteratorsEv
FNDA:160,_ZNSt3__121__list_const_iteratorI15Boundary_cornerPvEC1Ev
FNDA:43847242,_ZNSt3__1eqERKNS_21__list_const_iteratorI15Vcm_quadBox_HitPvEES5_
FNDA:8006,_ZNSt3__121__list_const_iteratorI21cumulative_prob_entryPvEC1ERKNS_15__list_iteratorIS1_S2_EE
FNDA:8124,_ZNSt3__121__list_const_iteratorI13weight_vectorPvEC1ERKNS_15__list_iteratorIS1_S2_EE
FNDA:6,_ZNSt3__110__list_impI15Kalbach_one_EinNS_9allocatorIS1_EEE14__unlink_nodesEPNS_16__list_node_baseIS1_PvEES8_
FNDA:45,_ZNSt3__110__list_impIN4cmDD8one_EoutENS_9allocatorIS2_EEE5beginEv
FNDA:8210,_ZNSt3__110__list_impI13weight_vectorNS_9allocatorIS1_EEE4__szEv
FNDA:999,_ZNSt3__121__list_const_iteratorI18cm_Legendre_vectorPvEppEv
FNDA:1692,_ZNKSt3__14listI21cumulative_prob_entryNS_9allocatorIS1_EEE3endEv
FNDA:490285,_ZNSt3__126__list_node_pointer_traitsI13min_Eout_infoPvE26__unsafe_link_pointer_castEPNS_16__list_node_baseIS1_S2_EE
FNDA:345,_ZNSt3__14listI14one_joint_distNS_9allocatorIS1_EEE3endEv
FNDA:25236192,_ZNSt3__110__list_impI15Vcm_quadBox_HitNS_9allocatorIS1_EEE12__node_allocEv
FNDA:86,_ZNSt3__116__list_node_baseI18cm_Legendre_vectorPvEC2Ev
FNDA:240785205,_ZNSt3__121__list_const_iteratorIN6quad_F12one_intervalEPvEC2ERKNS_15__list_iteratorIS2_S3_EE
FNDA:1,_ZNSt3__115__list_iteratorIN4cmDD14one_joint_distEPvEC2Ev
FNDA:192,_ZNSt3__110__list_impI15Kalbach_one_EinNS_9allocatorIS1_EEE12__node_allocEv
FNDA:931631,_ZNSt3__116__list_node_baseI13weight_vectorPvE6__selfEv
FNDA:5,_ZNSt3__110__list_impI14one_joint_distNS_9allocatorIS1_EEE14__unlink_nodesEPNS_16__list_node_baseIS1_PvEES8_
FNDA:1920,_ZNSt3__110__list_impI14Legendre_coefsNS_9allocatorIS1_EEE5clearEv
FNDA:22194,_ZNSt3__14listI21cumulative_prob_entryNS_9allocatorIS1_EEE3endEv
FNDA:2040,_ZNKSt3__110__list_impI21cumulative_prob_entryNS_9allocatorIS1_EEE5beginEv
FNDA:76204,_ZNSt3__110__list_impI7ss_linkNS_9allocatorIS1_EEE3endEv
FNDA:634,_ZNSt3__115__list_iteratorI14one_joint_distPvEC1EPNS_16__list_node_baseIS1_S2_EE
FNDA:35092389,_ZNSt3__14listI11Ein_Eta_HitNS_9allocatorIS1_EEE21__link_nodes_at_frontEPNS_16__list_node_baseIS1_PvEES8_
FNDA:51082542,_ZNSt3__115__list_iteratorI15Vcm_quadBox_HitPvEppEv
FNDA:79,_ZNSt3__1neERKNS_21__list_const_iteratorI6one_muPvEES5_
FNDA:258,_ZNSt3__14listI24standard_Legendre_vectorNS_9allocatorIS1_EEED2Ev
FNDA:2498,_ZNKSt3__121__list_const_iteratorIdPvEdeEv
FNDA:252,_ZNSt3__14listI11coef_vectorNS_9allocatorIS1_EEE5beginEv
FNDA:14366874,_ZNSt3__14listI15Vcm_quadBox_HitNS_9allocatorIS1_EEE9push_backERKS1_
FNDA:920,_ZNSt3__110__list_impI15Vcm_quadBox_HitNS_9allocatorIS1_EEE5clearEv
FNDA:303286904,_ZNSt3__14listI11Ein_Eta_HitNS_9allocatorIS1_EEE20__link_nodes_at_backEPNS_16__list_node_baseIS1_PvEES8_
FNDA:371,_ZNKSt3__110__list_impI14Legendre_coefsNS_9allocatorIS1_EEE12__node_allocEv
FNDA:35092389,_ZNSt3__14listI11Ein_Eta_HitNS_9allocatorIS1_EEE10push_frontERKS1_
FNDA:422583,_ZNKSt3__121__list_const_iteratorI12Eprob_vectorPvEptEv
FNDA:1709,_ZNSt3__1eqERKNS_21__list_const_iteratorI21cumulative_prob_entryPvEES5_
FNDA:5907,_ZNSt3__1neERKNS_15__list_iteratorI6one_muPvEES5_
FNDA:583,_ZNKSt3__115__list_iteratorI13min_Eout_infoPvEptEv
FNDA:916,_ZNSt3__14listI6one_muNS_9allocatorIS1_EEE5beginEv
FNDA:76,_ZNSt3__14listI14one_joint_distNS_9allocatorIS1_EEE15__allocate_nodeERNS2_INS_11__list_nodeIS1_PvEEEE
FNDA:2179,_ZNSt3__121__list_const_iteratorIN4cmDD8one_EoutEPvEC2ERKNS_15__list_iteratorIS2_S3_EE
FNDA:310,_ZNSt3__121__list_const_iteratorI24standard_Legendre_vectorPvEC1ERKNS_15__list_iteratorIS1_S2_EE
FNDA:86,_ZNSt3__121__list_const_iteratorI14one_joint_distPvEC2ERKNS_15__list_iteratorIS1_S2_EE
FNDA:79,_ZNSt3__1eqERKNS_21__list_const_iteratorI6one_muPvEES5_
FNDA:36,_ZNSt3__14listI9dd_vectorNS_9allocatorIS1_EEE5eraseENS_21__list_const_iteratorIS1_PvEES7_
FNDA:48,_ZNSt3__121__list_const_iteratorIN4cmDD14one_joint_distEPvEC2ERKNS_15__list_iteratorIS2_S3_EE
FNDA:74839757,_ZNSt3__116__list_node_baseIN6quad_F12one_intervalEPvEC1Ev
FNDA:986,_ZNSt3__1eqERKNS_21__list_const_iteratorI12Eprob_vectorPvEES5_
FNDA:3,_ZNSt3__121__list_const_iteratorIdPvEC2Ev
FNDA:258,_ZNSt3__110__list_impI24standard_Legendre_vectorNS_9allocatorIS1_EEE5clearEv
FNDA:522,_ZNSt3__126__list_node_pointer_traitsI14one_joint_distPvE26__unsafe_link_pointer_castEPNS_16__list_node_baseIS1_S2_EE
FNDA:198,_ZNSt3__121__list_const_iteratorI15Kalbach_one_EinPvEC2ERKNS_15__list_iteratorIS1_S2_EE
FNDA:97,_ZNSt3__115__list_iteratorIN4cmDD14one_joint_distEPvEC2EPNS_16__list_node_baseIS2_S3_EE
FNDA:116757,_ZNSt3__1eqERKNS_21__list_const_iteratorI14Legendre_coefsPvEES5_
FNDA:32329749,_ZNSt3__14listI11Ein_Eta_HitNS_9allocatorIS1_EEE12__link_nodesEPNS_16__list_node_baseIS1_PvEES8_S8_
FNDA:136272,_ZNKSt3__115__list_iteratorIdPvEdeEv
FNDA:313468,_ZNSt3__121__list_const_iteratorI14Legendre_coefsPvEppEv
FNDA:86,_ZNSt3__110__list_impI15Kalbach_one_EinNS_9allocatorIS1_EEE5clearEv
FNDA:152,_ZNSt3__116__list_node_baseI6one_muPvEC2Ev
FNDA:948,_ZNKSt3__110__list_impI18cm_Legendre_vectorNS_9allocatorIS1_EEE13__end_as_linkEv
FNDA:2158471298,_ZNSt3__115__list_iteratorI11Ein_Eta_HitPvEC2EPNS_16__list_node_baseIS1_S2_EE
FNDA:86,_ZNSt3__116__list_node_baseI18cm_Legendre_vectorPvEC1Ev
FNDA:1397,_ZNSt3__121__list_const_iteratorI6one_muPvEC2ERKNS_15__list_iteratorIS1_S2_EE
FNDA:1489,_ZNSt3__115__list_iteratorI15Kalbach_one_EinPvEC1EPNS_16__list_node_baseIS1_S2_EE
FNDA:5316,_ZNSt3__115__list_iteratorI15Kalbach_one_EinPvEppEv
FNDA:24157,_ZNKSt3__110__list_impI21cumulative_prob_entryNS_9allocatorIS1_EEE13__end_as_linkEv
FNDA:916,_ZNSt3__110__list_impI6one_muNS_9allocatorIS1_EEE5beginEv
FNDA:93,_ZNSt3__14listI18cm_Legendre_vectorNS_9allocatorIS1_EEE12__link_nodesEPNS_16__list_node_baseIS1_PvEES8_S8_
FNDA:86,_ZNSt3__116__list_node_baseI12Eprob_vectorPvEC2Ev
FNDA:271,_ZNSt3__110__list_impI21cumulative_prob_entryNS_9allocatorIS1_EEE14__unlink_nodesEPNS_16__list_node_baseIS1_PvEES8_
FNDA:694504216,_ZNSt3__110__list_impI11Ein_Eta_HitNS_9allocatorIS1_EEE5beginEv
FNDA:1072,_ZNSt3__126__list_node_pointer_traitsI24standard_Legendre_vectorPvE26__unsafe_link_pointer_castEPNS_16__list_node_baseIS1_S2_EE
FNDA:84078,_ZNSt3__115__list_iteratorI7ss_linkPvEC2EPNS_16__list_node_baseIS1_S2_EE
FNDA:559908,_ZNSt3__116__list_node_baseI13min_Eout_infoPvE9__as_nodeEv
FNDA:32,_ZNKSt3__121__list_const_iteratorI24standard_Legendre_vectorPvEptEv
FNDA:132,_ZNKSt3__115__list_iteratorI15Kalbach_one_EinPvEdeEv
FNDA:76462,_ZNSt3__126__list_node_pointer_traitsI7ss_linkPvE26__unsafe_link_pointer_castEPNS_16__list_node_baseIS1_S2_EE
FNDA:213,_ZNSt3__110__list_impI14one_joint_distNS_9allocatorIS1_EEE5beginEv
FNDA:86,_ZNSt3__110__list_impI18cm_Legendre_vectorNS_9allocatorIS1_EEE5clearEv
FNDA:33559,_ZNSt3__110__list_impIdNS_9allocatorIdEEE12__node_allocEv
FNDA:126,_ZNSt3__115__list_iteratorI13min_Eout_infoPvEppEv
FNDA:86,_ZNKSt3__110__list_impI18cm_Legendre_vectorNS_9allocatorIS1_EEE4__szEv
FNDA:6,_ZNSt3__121__list_const_iteratorI18cm_Legendre_vectorPvEmmEv
FNDA:30,_ZNSt3__116__list_node_baseIN4cmDD8one_EoutEPvEC1Ev
FNDA:208,_ZNSt3__116__list_node_baseI9dd_vectorPvEC2Ev
FNDA:43850802,_ZNKSt3__110__list_impI15Vcm_quadBox_HitNS_9allocatorIS1_EEE13__end_as_linkEv
FNDA:2194,_ZNSt3__110__list_impIN4cmDD8one_EoutENS_9allocatorIS2_EEE12__node_allocEv
FNDA:23313,_ZNSt3__110__list_impIN6quad_F12one_intervalENS_9allocatorIS2_EEE26__invalidate_all_iteratorsEv
FNDA:634,_ZNSt3__115__list_iteratorI14one_joint_distPvEC2EPNS_16__list_node_baseIS1_S2_EE
FNDA:5715,_ZNSt3__14listI7ss_linkNS_9allocatorIS1_EEE5beginEv
FNDA:496,_ZNSt3__115__list_iteratorI9dd_vectorPvEppEv
FNDA:16,_ZNSt3__110__list_impI24standard_Legendre_vectorNS_9allocatorIS1_EEE26__invalidate_all_iteratorsEv
FNDA:6582,_ZNSt3__1neERKNS_15__list_iteratorIN4cmDD8one_EoutEPvEES6_
FNDA:19,_ZNSt3__110__list_impI9dd_vectorNS_9allocatorIS1_EEE26__invalidate_all_iteratorsEv
FNDA:2159,_ZNSt3__121__list_const_iteratorI7ss_linkPvEC2ERKNS_15__list_iteratorIS1_S2_EE
FNDA:0,_ZNSt3__1neERKNS_15__list_iteratorI24standard_Legendre_vectorPvEES5_
FNDA:8765,_ZNKSt3__110__list_impIN4cmDD8one_EoutENS_9allocatorIS2_EEE3endEv
FNDA:141817,_ZNSt3__116__list_node_baseI9dd_vectorPvE9__as_nodeEv
FNDA:116,_ZNSt3__14listI12Eprob_vectorNS_9allocatorIS1_EEE6insertENS_21__list_const_iteratorIS1_PvEERKS1_
FNDA:0,_ZNSt3__14listI6one_muNS_9allocatorIS1_EEE9push_backERKS1_
FNDA:16248,_ZNSt3__115__list_iteratorI13weight_vectorPvEppEv
FNDA:16501,_ZNSt3__121__list_const_iteratorI15Boundary_cornerPvEC1EPNS_16__list_node_baseIS1_S2_EE
FNDA:1110,_ZNSt3__14listIdNS_9allocatorIdEEEC2Ev
FNDA:522351552,_ZNSt3__110__list_impI11Ein_Eta_HitNS_9allocatorIS1_EEE12__node_allocEv
FNDA:4015670,_ZNSt3__116__list_node_baseI14one_joint_distPvE9__as_nodeEv
FNDA:182266,_ZNSt3__115__list_iteratorI15Boundary_cornerPvEC2EPNS_16__list_node_baseIS1_S2_EE
FNDA:512725,_ZNSt3__121__list_const_iteratorI13min_Eout_infoPvEC2ERKNS_15__list_iteratorIS1_S2_EE
FNDA:144,_ZNSt3__121__list_const_iteratorI11coef_vectorPvEppEv
FNDA:16285,_ZNSt3__115__list_iteratorI14Legendre_coefsPvEC1Ev
FNDA:11000,_ZNSt3__115__list_iteratorIN4cmDD8one_EoutEPvEC1EPNS_16__list_node_baseIS2_S3_EE
FNDA:16501,_ZNSt3__121__list_const_iteratorI15Boundary_cornerPvEC2EPNS_16__list_node_baseIS1_S2_EE
FNDA:920,_ZNSt3__110__list_impI15Vcm_quadBox_HitNS_9allocatorIS1_EEEC2Ev
FNDA:741409778,_ZNSt3__110__list_impI11Ein_Eta_HitNS_9allocatorIS1_EEE4__szEv
FNDA:44626,_ZNSt3__116__list_node_baseI18cm_Legendre_vectorPvE9__as_nodeEv
FNDA:1397,_ZNSt3__121__list_const_iteratorI6one_muPvEC1ERKNS_15__list_iteratorIS1_S2_EE
FNDA:1110,_ZNSt3__14listIdNS_9allocatorIdEEED1Ev
FNDA:4188,_ZNSt3__14listIdNS_9allocatorIdEEE5beginEv
FNDA:46025,_ZNSt3__116__list_node_baseI18cm_Legendre_vectorPvE6__selfEv
FNDA:86,_ZNSt3__14listI15Kalbach_one_EinNS_9allocatorIS1_EEED2Ev
FNDA:107466,_ZNSt3__14listI15Boundary_cornerNS_9allocatorIS1_EEE3endEv
FNDA:2,_ZNKSt3__121__list_const_iteratorI6one_muPvEdeEv
FNDA:16,_ZNSt3__110__list_impI24standard_Legendre_vectorNS_9allocatorIS1_EEE14__unlink_nodesEPNS_16__list_node_baseIS1_PvEES8_
FNDA:338987261,_ZNKSt3__110__list_impI11Ein_Eta_HitNS_9allocatorIS1_EEE4__szEv
FNDA:1215,_ZNSt3__110__list_impI21cumulative_prob_entryNS_9allocatorIS1_EEE5beginEv
FNDA:158095651,_ZNSt3__116__list_node_baseIN4cmDD8one_EoutEPvE9__as_nodeEv
FNDA:258,_ZNSt3__110__list_impI24standard_Legendre_vectorNS_9allocatorIS1_EEEC2Ev
FNDA:44161,_ZNKSt3__121__list_const_iteratorI18cm_Legendre_vectorPvEptEv
FNDA:1281,_ZNSt3__110__list_impI6one_muNS_9allocatorIS1_EEE4__szEv
FNDA:1485,_ZNSt3__115__list_iteratorI12Eprob_vectorPvEC2EPNS_16__list_node_baseIS1_S2_EE
FNDA:1074,_ZNSt3__14listI15Kalbach_one_EinNS_9allocatorIS1_EEE3endEv
FNDA:32,_ZNSt3__1neERKNS_15__list_iteratorIN4cmDD14one_joint_distEPvEES6_
FNDA:62,_ZNKSt3__121__list_const_iteratorI12Eprob_vectorPvEdeEv
FNDA:132259,_ZNSt3__121__list_const_iteratorI15Boundary_cornerPvEppEv
FNDA:416,_ZNSt3__121__list_const_iteratorI12Eprob_vectorPvEC1Ev
FNDA:148842,_ZNSt3__121__list_const_iteratorI15Boundary_cornerPvEC1ERKNS_15__list_iteratorIS1_S2_EE
FNDA:307926,_ZNKSt3__121__list_const_iteratorI21cumulative_prob_entryPvEptEv
FNDA:420,_ZNSt3__115__list_iteratorI15Kalbach_one_EinPvEC1Ev
FNDA:147,_ZNSt3__1eqERKNS_21__list_const_iteratorI11coef_vectorPvEES5_
FNDA:62,_ZNKSt3__110__list_impIN4cmDD14one_joint_distENS_9allocatorIS2_EEE13__end_as_linkEv
FNDA:489488,_ZNSt3__1eqERKNS_21__list_const_iteratorI13min_Eout_infoPvEES5_
FNDA:2040,_ZNKSt3__14listI21cumulative_prob_entryNS_9allocatorIS1_EEE5beginEv
FNDA:30,_ZNKSt3__110__list_impIN4cmDD8one_EoutENS_9allocatorIS2_EEE5emptyEv
FNDA:208,_ZNSt3__110__list_impI13min_Eout_infoNS_9allocatorIS1_EEE5clearEv
FNDA:6686,_ZNSt3__110__list_impIdNS_9allocatorIdEEE3endEv
FNDA:427889,_ZNSt3__116__list_node_baseI12Eprob_vectorPvE6__selfEv
FNDA:22597459,_ZNKSt3__121__list_const_iteratorI11Ein_Eta_HitPvEptEv
FNDA:2179,_ZNSt3__121__list_const_iteratorIN4cmDD8one_EoutEPvEC1ERKNS_15__list_iteratorIS2_S3_EE
FNDA:86,_ZNSt3__116__list_node_baseI15Kalbach_one_EinPvEC2Ev
FNDA:80,_ZNSt3__116__list_node_baseI15Boundary_cornerPvEC1Ev
FNDA:1549,_ZNSt3__110__list_impI14Legendre_coefsNS_9allocatorIS1_EEEC2Ev
FNDA:8382,_ZNSt3__126__list_node_pointer_traitsI13weight_vectorPvE26__unsafe_link_pointer_castEPNS_16__list_node_baseIS1_S2_EE
FNDA:2333972502,_ZNKSt3__115__list_iteratorI11Ein_Eta_HitPvEptEv
FNDA:244,_ZNSt3__115__list_iteratorI11coef_vectorPvEC2Ev
FNDA:80,_ZNSt3__110__list_impI15Boundary_cornerNS_9allocatorIS1_EEED2Ev
FNDA:1110,_ZNSt3__110__list_impIdNS_9allocatorIdEEE5clearEv
FNDA:126,_ZNSt3__14listI13min_Eout_infoNS_9allocatorIS1_EEE15__allocate_nodeERNS2_INS_11__list_nodeIS1_PvEEEE
FNDA:15,_ZNSt3__1neERKNS_21__list_const_iteratorIN4cmDD8one_EoutEPvEES6_
FNDA:127,_ZNSt3__110__list_impI12Eprob_vectorNS_9allocatorIS1_EEE4__szEv
FNDA:81,_ZNSt3__110__list_impI14one_joint_distNS_9allocatorIS1_EEE12__node_allocEv
FNDA:86,_ZNKSt3__110__list_impI14one_joint_distNS_9allocatorIS1_EEE5emptyEv
FNDA:9160121,_ZNSt3__116__list_node_baseI6one_muPvE9__as_nodeEv
FNDA:208,_ZNSt3__110__list_impI13min_Eout_infoNS_9allocatorIS1_EEEC2Ev
FNDA:126,_ZNSt3__14listI13min_Eout_infoNS_9allocatorIS1_EEE9push_backERKS1_
FNDA:1426,_ZNSt3__121__list_const_iteratorI9dd_vectorPvEC1Ev
FNDA:22237271,_ZNSt3__110__list_impI15Vcm_quadBox_HitNS_9allocatorIS1_EEE3endEv
FNDA:30203,_ZNSt3__14listI14Legendre_coefsNS_9allocatorIS1_EEE12__link_nodesEPNS_16__list_node_baseIS1_PvEES8_S8_
FNDA:583187,_ZNSt3__121__list_const_iteratorI14Legendre_coefsPvEC2Ev
FNDA:86,_ZNKSt3__110__list_impI14one_joint_distNS_9allocatorIS1_EEE4__szEv
FNDA:131070039,_ZNSt3__116__list_node_baseI14Legendre_coefsPvE9__as_nodeEv
FNDA:20,_ZNKSt3__121__list_const_iteratorI21cumulative_prob_entryPvEdeEv
FNDA:211430,_ZNKSt3__110__list_impI14Legendre_coefsNS_9allocatorIS1_EEE3endEv
FNDA:192,_ZNSt3__110__list_impI15Kalbach_one_EinNS_9allocatorIS1_EEE4__szEv
FNDA:9157678,_ZNKSt3__115__list_iteratorI6one_muPvEptEv
FNDA:942,_ZNSt3__14listI18cm_Legendre_vectorNS_9allocatorIS1_EEE3endEv
FNDA:156,_ZNSt3__121__list_const_iteratorI6one_muPvEC2EPNS_16__list_node_baseIS1_S2_EE
FNDA:30541,_ZNSt3__121__list_const_iteratorIdPvEC2ERKNS_15__list_iteratorIdS1_EE
FNDA:77148,_ZNSt3__116__list_node_baseI7ss_linkPvE9__as_nodeEv
FNDA:543,_ZNSt3__115__list_iteratorI11coef_vectorPvEC2EPNS_16__list_node_baseIS1_S2_EE
FNDA:1104,_ZNSt3__121__list_const_iteratorI18cm_Legendre_vectorPvEC1ERKNS_15__list_iteratorIS1_S2_EE
FNDA:8765,_ZNSt3__1eqERKNS_21__list_const_iteratorIN4cmDD8one_EoutEPvEES6_
FNDA:93,_ZNSt3__14listI18cm_Legendre_vectorNS_9allocatorIS1_EEE6insertENS_21__list_const_iteratorIS1_PvEERKS1_
FNDA:2676,_ZNSt3__14listI21cumulative_prob_entryNS_9allocatorIS1_EEEC2Ev
FNDA:1074,_ZNSt3__110__list_impI15Kalbach_one_EinNS_9allocatorIS1_EEE3endEv
FNDA:4368,_ZNSt3__110__list_impI21cumulative_prob_entryNS_9allocatorIS1_EEED2Ev
FNDA:278,_ZNSt3__14listI24standard_Legendre_vectorNS_9allocatorIS1_EEE12__link_nodesEPNS_16__list_node_baseIS1_PvEES8_S8_
FNDA:45,_ZNSt3__111__list_nodeIN4cmDD14one_joint_distEPvE9__as_linkEv
FNDA:45,_ZNSt3__14listIN4cmDD8one_EoutENS_9allocatorIS2_EEE5beginEv
FNDA:6537,_ZNSt3__111__list_nodeIN4cmDD8one_EoutEPvE9__as_linkEv
FNDA:140057,_ZNKSt3__115__list_iteratorI14Legendre_coefsPvEdeEv
FNDA:1888,_ZNSt3__126__list_node_pointer_traitsI9dd_vectorPvE26__unsafe_link_pointer_castEPNS_16__list_node_baseIS1_S2_EE
FNDA:1,_ZNSt3__110__list_impIN4cmDD14one_joint_distENS_9allocatorIS2_EEE26__invalidate_all_iteratorsEv
FNDA:1560,_ZNSt3__115__list_iteratorI21cumulative_prob_entryPvEC1Ev
FNDA:110746552,_ZNSt3__14listIN6quad_F12one_intervalENS_9allocatorIS2_EEE5beginEv
FNDA:3615,_ZNSt3__111__list_nodeI6one_muPvE9__as_linkEv
FNDA:8812,_ZNSt3__121__list_const_iteratorIN4cmDD8one_EoutEPvEppEv
FNDA:86,_ZNSt3__110__list_impIN4cmDD14one_joint_distENS_9allocatorIS2_EEE5clearEv
FNDA:21,_ZNSt3__110__list_impIN4cmDD14one_joint_distENS_9allocatorIS2_EEE5beginEv
FNDA:374,_ZNSt3__110__list_impI24standard_Legendre_vectorNS_9allocatorIS1_EEE5beginEv
FNDA:0,_ZNSt3__1eqERKNS_21__list_const_iteratorIN6quad_F12one_intervalEPvEES6_
FNDA:208,_ZNSt3__14listI9dd_vectorNS_9allocatorIS1_EEEC2Ev
FNDA:21613086,_ZNSt3__14listI15Vcm_quadBox_HitNS_9allocatorIS1_EEE15__allocate_nodeERNS2_INS_11__list_nodeIS1_PvEEEE
FNDA:8210,_ZNSt3__110__list_impI13weight_vectorNS_9allocatorIS1_EEE12__node_allocEv
FNDA:86,_ZNSt3__116__list_node_baseI13weight_vectorPvEC2Ev
FNDA:86,_ZNKSt3__110__list_impI7ss_linkNS_9allocatorIS1_EEE5emptyEv
FNDA:8124,_ZNSt3__121__list_const_iteratorI13weight_vectorPvEC2ERKNS_15__list_iteratorIS1_S2_EE
FNDA:271,_ZNSt3__110__list_impI21cumulative_prob_entryNS_9allocatorIS1_EEE26__invalidate_all_iteratorsEv
FNDA:920,_ZNSt3__14listI15Vcm_quadBox_HitNS_9allocatorIS1_EEEC2Ev
FNDA:4016420,_ZNSt3__116__list_node_baseI14one_joint_distPvE6__selfEv
FNDA:86,_ZNSt3__116__list_node_baseI7ss_linkPvEC2Ev
FNDA:1920,_ZNSt3__110__list_impI14Legendre_coefsNS_9allocatorIS1_EEED2Ev
FNDA:30566,_ZNSt3__115__list_iteratorI21cumulative_prob_entryPvEC2EPNS_16__list_node_baseIS1_S2_EE
FNDA:80,_ZNSt3__1neERKNS_15__list_iteratorI9dd_vectorPvEES5_
FNDA:15,_ZNSt3__110__list_impIN4cmDD8one_EoutENS_9allocatorIS2_EEEC2ERKNS3_INS_11__list_nodeIS2_PvEEEE
FNDA:756,_ZNKSt3__115__list_iteratorI6one_muPvEdeEv
FNDA:55,_ZNSt3__110__list_impI9dd_vectorNS_9allocatorIS1_EEE14__unlink_nodesEPNS_16__list_node_baseIS1_PvEES8_
FNDA:1560,_ZNSt3__115__list_iteratorI21cumulative_prob_entryPvEC2Ev
FNDA:898877,_ZNSt3__116__list_node_baseI13weight_vectorPvE9__as_nodeEv
FNDA:324,_ZNSt3__121__list_const_iteratorI18cm_Legendre_vectorPvEC2Ev
FNDA:1205,_ZNSt3__14listI6one_muNS_9allocatorIS1_EEE6insertENS_21__list_const_iteratorIS1_PvEERKS1_
FNDA:86,_ZNSt3__14listI14one_joint_distNS_9allocatorIS1_EEEC2Ev
FNDA:127028103,_ZNSt3__1eqERKNS_15__list_iteratorIN6quad_F12one_intervalEPvEES6_
FNDA:79,_ZNKSt3__14listI6one_muNS_9allocatorIS1_EEE3endEv
FNDA:90609,_ZNSt3__111__list_nodeI14Legendre_coefsPvE9__as_linkEv
FNDA:46585,_ZNSt3__110__list_impI11Ein_Eta_HitNS_9allocatorIS1_EEEC2Ev
FNDA:8124,_ZNSt3__14listI13weight_vectorNS_9allocatorIS1_EEE15__allocate_nodeERNS2_INS_11__list_nodeIS1_PvEEEE
FNDA:86,_ZNSt3__14listI7ss_linkNS_9allocatorIS1_EEED2Ev
FNDA:30203,_ZNSt3__14listI14Legendre_coefsNS_9allocatorIS1_EEE6insertENS_21__list_const_iteratorIS1_PvEERKS1_
FNDA:17556,_ZNKSt3__110__list_impIN4cmDD8one_EoutENS_9allocatorIS2_EEE13__end_as_linkEv
FNDA:86,_ZNSt3__14listI11coef_vectorNS_9allocatorIS1_EEEC2Ev
FNDA:30,_ZNSt3__110__list_impIN4cmDD8one_EoutENS_9allocatorIS2_EEED2Ev
FNDA:86,_ZNSt3__110__list_impI14one_joint_distNS_9allocatorIS1_EEE5clearEv
FNDA:80,_ZNSt3__115__list_iteratorI15Boundary_cornerPvEC2Ev
FNDA:4368,_ZNSt3__14listI21cumulative_prob_entryNS_9allocatorIS1_EEED2Ev
FNDA:147,_ZNSt3__110__list_impI11coef_vectorNS_9allocatorIS1_EEE4__szEv
FNDA:174463,_ZNSt3__126__list_node_pointer_traitsI15Boundary_cornerPvE26__unsafe_link_pointer_castEPNS_16__list_node_baseIS1_S2_EE
FNDA:46328,_ZNSt3__1eqERKNS_21__list_const_iteratorIdPvEES4_
FNDA:395,_ZNSt3__115__list_iteratorI14one_joint_distPvEC2Ev
FNDA:58128,_ZNSt3__110__list_impI15Boundary_cornerNS_9allocatorIS1_EEE5beginEv
FNDA:147,_ZNSt3__110__list_impI11coef_vectorNS_9allocatorIS1_EEE12__node_allocEv
FNDA:86,_ZNSt3__14listI11coef_vectorNS_9allocatorIS1_EEED1Ev
FNDA:17591,_ZNSt3__116__list_node_baseI15Kalbach_one_EinPvE9__as_nodeEv
FNDA:785,_ZNSt3__115__list_iteratorI6one_muPvEC2Ev
FNDA:1110,_ZNSt3__14listIdNS_9allocatorIdEEED2Ev
FNF:882
FNH:868
DA:230,2015034683
DA:231,2015034683
DA:253,149792568
DA:254,149792568
DA:257,9044491004
DA:258,9044491004
DA:262,5893310969
DA:263,5893310969
DA:277,1136145352
DA:278,1136145352
DA:303,5499164112
DA:308,258
DA:319,53268
DA:320,26634
DA:324,53268
DA:355,96548307
DA:361,96548307
DA:364,4917304584
DA:370,4917304584
DA:374,1227844352
DA:380,1227844352
DA:381,1227844352
DA:387,42045880
DA:393,42045880
DA:394,42045880
DA:400,1248274357
DA:402,1248274357
DA:405,1238969868
DA:406,1238969868
DA:426,793116
DA:429,74896050
DA:439,62798296
DA:440,31399148
DA:444,62798296
DA:446,1249099596
DA:447,624549798
DA:448,624549798
DA:452,1249099596
DA:482,136219684
DA:488,136219684
DA:491,230389547
DA:497,230389547
DA:501,419169789
DA:507,419169789
DA:508,419169789
DA:514,16871
DA:520,16871
DA:521,16871
DA:527,734845565
DA:529,734845565
DA:532,734266726
DA:533,734266726
DA:573,1865242115
DA:574,1865242115
DA:575,1865242115
DA:576,0
DA:579,1029285302
DA:581,603066910
DA:582,603066910
DA:584,788550687
DA:585,788550687
DA:587,2154
DA:588,2154
DA:598,74894130
DA:603,2154
DA:610,372932576
DA:613,816219007
DA:618,816219007
DA:622,158091
DA:627,158091
DA:631,1504908005
DA:636,1504908005
DA:640,238467
DA:645,238467
DA:696,33055
DA:700,33055
DA:707,289385790
DA:710,289385790
DA:711,289385790
DA:712,289385790
DA:716,74894130
DA:718,74894130
DA:720,74894130
DA:730,2154
DA:731,2154
DA:740,74896284
DA:741,74896284
DA:745,74896284
DA:749,74896284
DA:751,74896284
DA:753,33055
DA:754,33055
DA:755,33055
DA:756,33055
DA:757,33055
DA:758,124145
DA:760,91090
DA:761,91090
DA:762,91090
DA:763,91090
DA:765,33055
DA:766,33055
DA:767,74896284
DA:834,2092
DA:863,74896246
DA:865,74896246
DA:869,74896246
DA:927,230134334
DA:929,298036292
DA:939,816219007
DA:941,158091
DA:943,1504908005
DA:945,238467
DA:1107,512848847
DA:1108,512848847
DA:1109,512848847
DA:1110,512848847
DA:1111,0
DA:1158,166470209
DA:1160,166470209
DA:1161,166470209
DA:1162,166470209
DA:1163,166470209
DA:1164,166470209
DA:1170,42338601
DA:1172,42338601
DA:1173,42338601
DA:1174,42338601
DA:1175,42338601
DA:1176,42338601
DA:1182,317723987
DA:1184,317723987
DA:1185,317723987
DA:1186,317723987
DA:1187,317723987
DA:1188,317723987
DA:1273,2154
DA:1274,2154
DA:1275,2154
DA:1279,2154
DA:1280,0
DA:1281,2154
DA:1443,152786259
DA:1450,152786259
DA:1451,152786259
DA:1452,152786259
DA:1453,152786259
DA:1454,152786259
DA:1458,152786259
DA:1460,152786259
DA:1594,42338601
DA:1596,42338601
DA:1597,42338601
DA:1598,42338601
DA:1599,42338601
DA:1600,42338601
DA:1601,42338601
DA:1602,42338601
DA:1603,42338601
DA:1607,317723987
DA:1609,317723987
DA:1610,317723987
DA:1611,317723987
DA:1612,317723987
DA:1613,317723987
DA:1614,317723987
DA:1615,317723987
DA:1795,120380946
DA:1804,120380946
DA:1805,120380946
DA:1806,120380946
DA:1807,120380946
DA:1808,120380946
DA:1824,120380946
DA:1825,120380946
DA:1826,120380946
DA:1830,120380946
DA:1836,155287839
DA:1846,155287839
DA:1848,155287839
DA:1849,155287839
DA:1850,547664650
DA:1852,392376811
DA:1853,392376811
DA:1854,392376811
DA:1870,392376811
DA:1871,392376811
DA:1872,392376811
DA:1874,155287839
DA:1878,155287839
DA:1999,291
DA:2008,291
DA:2010,291
DA:2011,291
DA:2012,291
DA:2013,291
DA:2014,291
DA:2015,291
DA:2034,291
DA:2035,291
DA:2184,1395
DA:2186,1395
DA:2187,1395
DA:2192,1395
DA:2194,14596
DA:2196,13201
DA:2197,30386
DA:2199,13201
DA:2200,12769
DA:2202,1395
DA:2207,291
DA:2209,291
DA:2210,291
DA:2215,291
DA:2217,291
DA:2219,291
DA:2220,291
DA:2221,291
DA:2222,291
DA:2223,10997
DA:2225,10706
DA:2227,10280
DA:2228,10280
DA:2229,10303
DA:2231,10280
DA:2232,10280
DA:2233,10280
DA:2234,10280
DA:2235,10280
DA:2236,10280
DA:2237,10280
DA:2238,10280
DA:2239,10280
DA:2240,10280
DA:2242,426
DA:2244,291
DA:2263,291
DA:2264,291
DA:2269,1104
DA:2271,1104
DA:2272,1104
DA:2278,3624210
DA:2280,3624210
DA:2281,3624210
DA:2286,25118698
DA:2288,25118698
DA:2292,7120826
DA:2294,7250628
DA:2296,2857833
DA:2297,2857833
DA:2298,2857833
DA:2299,2857833
DA:2301,4392795
DA:2303,10747244
DA:2304,10747244
DA:2305,10747244
DA:2306,10747244
DA:2307,10747244
DA:2309,7529827
DA:2310,18538996
DA:2312,7529827
DA:2313,7529827
DA:2314,7529827
DA:2315,7529827
DA:2316,7529827
DA:2317,7529827
DA:2318,7529827
DA:2319,7529827
DA:2320,7529827
DA:2322,3217417
DA:2323,17917151
DA:2325,7169907
DA:2327,3285719
DA:2328,7512534
DA:2330,3285719
DA:2331,3285719
DA:2332,3285719
DA:2333,3285719
DA:2334,3285719
DA:2335,3285719
DA:2336,3285719
DA:2337,3285719
DA:2338,3285719
DA:2339,3285719
DA:2341,3884188
DA:2343,10747244
DA:2344,25118698
LF:287
LH:284
end_of_record
TN:
SF:/Applications/Xcode.app/Contents/Developer/Toolchains/XcodeDefault.xctoolchain/usr/include/c++/v1/locale
FN:1383,_ZNSt3__116__pad_and_outputIcNS_11char_traitsIcEEEENS_19ostreambuf_iteratorIT_T0_EES6_PKS4_S8_S8_RNS_8ios_baseES4_
FNDA:6248813,_ZNSt3__116__pad_and_outputIcNS_11char_traitsIcEEEENS_19ostreambuf_iteratorIT_T0_EES6_PKS4_S8_S8_RNS_8ios_baseES4_
FNF:1
FNH:1
DA:1383,6248813
DA:1387,6248813
DA:1388,0
DA:1389,6248813
DA:1390,6248813
DA:1391,6248813
DA:1392,0
DA:1394,6248813
DA:1395,6248813
DA:1396,6248813
DA:1398,0
DA:1400,0
DA:1401,0
DA:1403,0
DA:1404,6248813
DA:1406,0
DA:1407,0
DA:1409,0
DA:1410,0
DA:1412,0
DA:1413,6248813
DA:1414,6248813
DA:1416,6248813
DA:1418,0
DA:1419,0
DA:1421,6248813
DA:1422,6248813
DA:1423,6248813
DA:1424,6248813
LF:29
LH:16
end_of_record
TN:
SF:/Applications/Xcode.app/Contents/Developer/Toolchains/XcodeDefault.xctoolchain/usr/include/c++/v1/math.h
FN:427,_ZL17__libcpp_isfiniteIdEbT_
FN:439,_ZL8isfiniteIdENSt3__19enable_ifIXaasr3std13is_arithmeticIT_EE5valuesr3std14numeric_limitsIS2_EE12has_infinityEbE4typeES2_
FN:765,_ZL3absd
FN:996,_ZL3powIdiENSt3__116__lazy_enable_ifIXaasr3std13is_arithmeticIT_EE5valuesr3std13is_arithmeticIT0_EE5valueENS0_9__promoteIS2_S3_vEEE4typeES2_S3_
FNDA:76275,_ZL17__libcpp_isfiniteIdEbT_
FNDA:3739932431,_ZL3absd
FNDA:0,_ZL3powIdiENSt3__116__lazy_enable_ifIXaasr3std13is_arithmeticIT_EE5valuesr3std13is_arithmeticIT0_EE5valueENS0_9__promoteIS2_S3_vEEE4typeES2_S3_
FNDA:76275,_ZL8isfiniteIdENSt3__19enable_ifIXaasr3std13is_arithmeticIT_EE5valuesr3std14numeric_limitsIS2_EE12has_infinityEbE4typeES2_
FNF:4
FNH:3
DA:427,76275
DA:429,76275
DA:430,0
DA:439,76275
DA:441,76275
DA:765,3739932431
DA:996,0
DA:1001,0
LF:8
LH:5
end_of_record
TN:
SF:/Applications/Xcode.app/Contents/Developer/Toolchains/XcodeDefault.xctoolchain/usr/include/c++/v1/memory
FN:988,_ZNSt3__114pointer_traitsIPN4cmDD8one_EoutEE10pointer_toERS2_
FN:988,_ZNSt3__114pointer_traitsIPNS_16__list_node_baseIN4cmDD14one_joint_distEPvEEE10pointer_toERS5_
FN:988,_ZNSt3__114pointer_traitsIPKN4cmDD8one_EoutEE10pointer_toERS3_
FN:988,_ZNSt3__114pointer_traitsIPNS_16__list_node_baseI13min_Eout_infoPvEEE10pointer_toERS4_
FN:988,_ZNSt3__114pointer_traitsIPK6one_muE10pointer_toERS2_
FN:988,_ZNSt3__114pointer_traitsIPK14one_joint_distE10pointer_toERS2_
FN:988,_ZNSt3__114pointer_traitsIPK11coef_vectorE10pointer_toERS2_
FN:988,_ZNSt3__114pointer_traitsIP6one_muE10pointer_toERS1_
FN:988,_ZNSt3__114pointer_traitsIPNS_16__list_node_baseI13weight_vectorPvEEE10pointer_toERS4_
FN:988,_ZNSt3__114pointer_traitsIPNS_16__list_node_baseI24standard_Legendre_vectorPvEEE10pointer_toERS4_
FN:988,_ZNSt3__114pointer_traitsIP15Boundary_cornerE10pointer_toERS1_
FN:988,_ZNSt3__114pointer_traitsIPK15Kalbach_one_EinE10pointer_toERS2_
FN:988,_ZNSt3__114pointer_traitsIPNS_16__list_node_baseI12Eprob_vectorPvEEE10pointer_toERS4_
FN:988,_ZNSt3__114pointer_traitsIPNS_16__list_node_baseI9dd_vectorPvEEE10pointer_toERS4_
FN:988,_ZNSt3__114pointer_traitsIPNS_16__list_node_baseI7ss_linkPvEEE10pointer_toERS4_
FN:988,_ZNSt3__114pointer_traitsIP14one_joint_distE10pointer_toERS1_
FN:988,_ZNSt3__114pointer_traitsIPK14Legendre_coefsE10pointer_toERS2_
FN:988,_ZNSt3__114pointer_traitsIPK15Boundary_cornerE10pointer_toERS2_
FN:988,_ZNSt3__114pointer_traitsIPNS_16__list_node_baseIN4cmDD8one_EoutEPvEEE10pointer_toERS5_
FN:988,_ZNSt3__114pointer_traitsIPK9dd_vectorE10pointer_toERS2_
FN:988,_ZNSt3__114pointer_traitsIPNS_16__list_node_baseI21cumulative_prob_entryPvEEE10pointer_toERS4_
FN:988,_ZNSt3__114pointer_traitsIPN4cmDD14one_joint_distEE10pointer_toERS2_
FN:988,_ZNSt3__114pointer_traitsIPKcE10pointer_toERS1_
FN:988,_ZNSt3__114pointer_traitsIP15Kalbach_one_EinE10pointer_toERS1_
FN:988,_ZNSt3__114pointer_traitsIPNS_16__list_node_baseI14one_joint_distPvEEE10pointer_toERS4_
FN:988,_ZNSt3__114pointer_traitsIPK13min_Eout_infoE10pointer_toERS2_
FN:988,_ZNSt3__114pointer_traitsIPcE10pointer_toERc
FN:988,_ZNSt3__114pointer_traitsIPK18cm_Legendre_vectorE10pointer_toERS2_
FN:988,_ZNSt3__114pointer_traitsIP13min_Eout_infoE10pointer_toERS1_
FN:988,_ZNSt3__114pointer_traitsIPNS_16__list_node_baseIdPvEEE10pointer_toERS3_
FN:988,_ZNSt3__114pointer_traitsIP11Ein_Eta_HitE10pointer_toERS1_
FN:988,_ZNSt3__114pointer_traitsIPNS_16__list_node_baseI15Vcm_quadBox_HitPvEEE10pointer_toERS4_
FN:988,_ZNSt3__114pointer_traitsIPK15Vcm_quadBox_HitE10pointer_toERS2_
FN:988,_ZNSt3__114pointer_traitsIPK11Ein_Eta_HitE10pointer_toERS2_
FN:988,_ZNSt3__114pointer_traitsIPK21cumulative_prob_entryE10pointer_toERS2_
FN:988,_ZNSt3__114pointer_traitsIP24standard_Legendre_vectorE10pointer_toERS1_
FN:988,_ZNSt3__114pointer_traitsIPNS_16__list_node_baseI11Ein_Eta_HitPvEEE10pointer_toERS4_
FN:988,_ZNSt3__114pointer_traitsIPK12Eprob_vectorE10pointer_toERS2_
FN:988,_ZNSt3__114pointer_traitsIP11coef_vectorE10pointer_toERS1_
FN:988,_ZNSt3__114pointer_traitsIPK8dd_entryE10pointer_toERS2_
FN:988,_ZNSt3__114pointer_traitsIPNS_16__list_node_baseI15Boundary_cornerPvEEE10pointer_toERS4_
FN:988,_ZNSt3__114pointer_traitsIP21cumulative_prob_entryE10pointer_toERS1_
FN:988,_ZNSt3__114pointer_traitsIPN6quad_F12one_intervalEE10pointer_toERS2_
FN:988,_ZNSt3__114pointer_traitsIP9dd_vectorE10pointer_toERS1_
FN:988,_ZNSt3__114pointer_traitsIPK24standard_Legendre_vectorE10pointer_toERS2_
FN:988,_ZNSt3__114pointer_traitsIPNS_16__list_node_baseI15Kalbach_one_EinPvEEE10pointer_toERS4_
FN:988,_ZNSt3__114pointer_traitsIP18cm_Legendre_vectorE10pointer_toERS1_
FN:988,_ZNSt3__114pointer_traitsIPKN4cmDD14one_joint_distEE10pointer_toERS3_
FN:988,_ZNSt3__114pointer_traitsIPNS_16__list_node_baseI11coef_vectorPvEEE10pointer_toERS4_
FN:988,_ZNSt3__114pointer_traitsIP7ss_linkE10pointer_toERS1_
FN:988,_ZNSt3__114pointer_traitsIP12Eprob_vectorE10pointer_toERS1_
FN:988,_ZNSt3__114pointer_traitsIP13weight_vectorE10pointer_toERS1_
FN:988,_ZNSt3__114pointer_traitsIPNS_16__list_node_baseI18cm_Legendre_vectorPvEEE10pointer_toERS4_
FN:988,_ZNSt3__114pointer_traitsIPNS_16__list_node_baseI6one_muPvEEE10pointer_toERS4_
FN:988,_ZNSt3__114pointer_traitsIPNS_16__list_node_baseIN6quad_F12one_intervalEPvEEE10pointer_toERS5_
FN:988,_ZNSt3__114pointer_traitsIP14Legendre_coefsE10pointer_toERS1_
FN:988,_ZNSt3__114pointer_traitsIPNS_16__list_node_baseI14Legendre_coefsPvEEE10pointer_toERS4_
FN:1106,_ZNSt3__1L16__to_raw_pointerIKcEEPT_S3_
FN:1106,_ZNSt3__1L16__to_raw_pointerI11Ein_Eta_HitEEPT_S3_
FN:1106,_ZNSt3__1L16__to_raw_pointerI9Ein_entryEEPT_S3_
FN:1106,_ZNSt3__1L16__to_raw_pointerIdEEPT_S2_
FN:1106,_ZNSt3__1L16__to_raw_pointerI11Ein_entriesEEPT_S3_
FN:1106,_ZNSt3__1L16__to_raw_pointerI8dd_entryEEPT_S3_
FN:1106,_ZNSt3__1L16__to_raw_pointerINS_12basic_stringIcNS_11char_traitsIcEENS_9allocatorIcEEEEEEPT_S8_
FN:1546,_ZNSt3__116allocator_traitsINS_9allocatorINS_11__list_nodeI24standard_Legendre_vectorPvEEEEE8allocateERS6_m
FN:1546,_ZNSt3__116allocator_traitsINS_9allocatorINS_11__list_nodeI13weight_vectorPvEEEEE8allocateERS6_m
FN:1546,_ZNSt3__116allocator_traitsINS_9allocatorINS_11__list_nodeI18cm_Legendre_vectorPvEEEEE8allocateERS6_m
FN:1546,_ZNSt3__116allocator_traitsINS_9allocatorIcEEE8allocateERS2_m
FN:1546,_ZNSt3__116allocator_traitsINS_9allocatorINS_11__list_nodeI14Legendre_coefsPvEEEEE8allocateERS6_m
FN:1546,_ZNSt3__116allocator_traitsINS_9allocatorINS_11__list_nodeIN4cmDD14one_joint_distEPvEEEEE8allocateERS7_m
FN:1546,_ZNSt3__116allocator_traitsINS_9allocatorINS_11__list_nodeI21cumulative_prob_entryPvEEEEE8allocateERS6_m
FN:1546,_ZNSt3__116allocator_traitsINS_9allocatorINS_11__list_nodeI13min_Eout_infoPvEEEEE8allocateERS6_m
FN:1546,_ZNSt3__116allocator_traitsINS_9allocatorI8dd_entryEEE8allocateERS3_m
FN:1546,_ZNSt3__116allocator_traitsINS_9allocatorINS_11__list_nodeI14one_joint_distPvEEEEE8allocateERS6_m
FN:1546,_ZNSt3__116allocator_traitsINS_9allocatorINS_11__list_nodeI6one_muPvEEEEE8allocateERS6_m
FN:1546,_ZNSt3__116allocator_traitsINS_9allocatorINS_11__list_nodeIN4cmDD8one_EoutEPvEEEEE8allocateERS7_m
FN:1546,_ZNSt3__116allocator_traitsINS_9allocatorIdEEE8allocateERS2_m
FN:1546,_ZNSt3__116allocator_traitsINS_9allocatorINS_11__list_nodeIdPvEEEEE8allocateERS5_m
FN:1546,_ZNSt3__116allocator_traitsINS_9allocatorI11Ein_entriesEEE8allocateERS3_m
FN:1546,_ZNSt3__116allocator_traitsINS_9allocatorINS_11__list_nodeIN6quad_F12one_intervalEPvEEEEE8allocateERS7_m
FN:1546,_ZNSt3__116allocator_traitsINS_9allocatorINS_11__list_nodeI11Ein_Eta_HitPvEEEEE8allocateERS6_m
FN:1546,_ZNSt3__116allocator_traitsINS_9allocatorINS_11__list_nodeI15Boundary_cornerPvEEEEE8allocateERS6_m
FN:1546,_ZNSt3__116allocator_traitsINS_9allocatorINS_11__list_nodeI9dd_vectorPvEEEEE8allocateERS6_m
FN:1546,_ZNSt3__116allocator_traitsINS_9allocatorINS_11__list_nodeI11coef_vectorPvEEEEE8allocateERS6_m
FN:1546,_ZNSt3__116allocator_traitsINS_9allocatorI9Ein_entryEEE8allocateERS3_m
FN:1546,_ZNSt3__116allocator_traitsINS_9allocatorI11Ein_Eta_HitEEE8allocateERS3_m
FN:1546,_ZNSt3__116allocator_traitsINS_9allocatorINS_11__list_nodeI15Kalbach_one_EinPvEEEEE8allocateERS6_m
FN:1546,_ZNSt3__116allocator_traitsINS_9allocatorINS_11__list_nodeI7ss_linkPvEEEEE8allocateERS6_m
FN:1546,_ZNSt3__116allocator_traitsINS_9allocatorINS_11__list_nodeI12Eprob_vectorPvEEEEE8allocateERS6_m
FN:1546,_ZNSt3__116allocator_traitsINS_9allocatorINS_11__list_nodeI15Vcm_quadBox_HitPvEEEEE8allocateERS6_m
FN:1554,_ZNSt3__116allocator_traitsINS_9allocatorI9Ein_entryEEE10deallocateERS3_PS2_m
FN:1554,_ZNSt3__116allocator_traitsINS_9allocatorINS_11__list_nodeI13weight_vectorPvEEEEE10deallocateERS6_PS5_m
FN:1554,_ZNSt3__116allocator_traitsINS_9allocatorINS_11__list_nodeI15Vcm_quadBox_HitPvEEEEE10deallocateERS6_PS5_m
FN:1554,_ZNSt3__116allocator_traitsINS_9allocatorINS_11__list_nodeI18cm_Legendre_vectorPvEEEEE10deallocateERS6_PS5_m
FN:1554,_ZNSt3__116allocator_traitsINS_9allocatorI8dd_entryEEE10deallocateERS3_PS2_m
FN:1554,_ZNSt3__116allocator_traitsINS_9allocatorINS_11__list_nodeIN4cmDD8one_EoutEPvEEEEE10deallocateERS7_PS6_m
FN:1554,_ZNSt3__116allocator_traitsINS_9allocatorINS_11__list_nodeI14Legendre_coefsPvEEEEE10deallocateERS6_PS5_m
FN:1554,_ZNSt3__116allocator_traitsINS_9allocatorINS_11__list_nodeI7ss_linkPvEEEEE10deallocateERS6_PS5_m
FN:1554,_ZNSt3__116allocator_traitsINS_9allocatorIdEEE10deallocateERS2_Pdm
FN:1554,_ZNSt3__116allocator_traitsINS_9allocatorINS_11__list_nodeI15Kalbach_one_EinPvEEEEE10deallocateERS6_PS5_m
FN:1554,_ZNSt3__116allocator_traitsINS_9allocatorINS_11__list_nodeIdPvEEEEE10deallocateERS5_PS4_m
FN:1554,_ZNSt3__116allocator_traitsINS_9allocatorINS_11__list_nodeI12Eprob_vectorPvEEEEE10deallocateERS6_PS5_m
FN:1554,_ZNSt3__116allocator_traitsINS_9allocatorINS_11__list_nodeIN4cmDD14one_joint_distEPvEEEEE10deallocateERS7_PS6_m
FN:1554,_ZNSt3__116allocator_traitsINS_9allocatorINS_11__list_nodeI11Ein_Eta_HitPvEEEEE10deallocateERS6_PS5_m
FN:1554,_ZNSt3__116allocator_traitsINS_9allocatorI11Ein_entriesEEE10deallocateERS3_PS2_m
FN:1554,_ZNSt3__116allocator_traitsINS_9allocatorI11Ein_Eta_HitEEE10deallocateERS3_PS2_m
FN:1554,_ZNSt3__116allocator_traitsINS_9allocatorINS_11__list_nodeI21cumulative_prob_entryPvEEEEE10deallocateERS6_PS5_m
FN:1554,_ZNSt3__116allocator_traitsINS_9allocatorINS_11__list_nodeI13min_Eout_infoPvEEEEE10deallocateERS6_PS5_m
FN:1554,_ZNSt3__116allocator_traitsINS_9allocatorINS_11__list_nodeI14one_joint_distPvEEEEE10deallocateERS6_PS5_m
FN:1554,_ZNSt3__116allocator_traitsINS_9allocatorINS_11__list_nodeI24standard_Legendre_vectorPvEEEEE10deallocateERS6_PS5_m
FN:1554,_ZNSt3__116allocator_traitsINS_9allocatorINS_11__list_nodeI9dd_vectorPvEEEEE10deallocateERS6_PS5_m
FN:1554,_ZNSt3__116allocator_traitsINS_9allocatorINS_11__list_nodeI6one_muPvEEEEE10deallocateERS6_PS5_m
FN:1554,_ZNSt3__116allocator_traitsINS_9allocatorINS_11__list_nodeIN6quad_F12one_intervalEPvEEEEE10deallocateERS7_PS6_m
FN:1554,_ZNSt3__116allocator_traitsINS_9allocatorINS_11__list_nodeI11coef_vectorPvEEEEE10deallocateERS6_PS5_m
FN:1554,_ZNSt3__116allocator_traitsINS_9allocatorINS_11__list_nodeI15Boundary_cornerPvEEEEE10deallocateERS6_PS5_m
FN:1554,_ZNSt3__116allocator_traitsINS_9allocatorINS_12basic_stringIcNS_11char_traitsIcEENS1_IcEEEEEEE10deallocateERS7_PS6_m
FN:1572,_ZNSt3__116allocator_traitsINS_9allocatorIdEEE9constructIddEEvRS2_PT_RKT0_
FN:1572,_ZNSt3__116allocator_traitsINS_9allocatorINS_11__list_nodeIN6quad_F12one_intervalEPvEEEEE9constructIS4_S4_EEvRS7_PT_RKT0_
FN:1572,_ZNSt3__116allocator_traitsINS_9allocatorI11Ein_entriesEEE9constructIS2_S2_EEvRS3_PT_RKT0_
FN:1572,_ZNSt3__116allocator_traitsINS_9allocatorINS_11__list_nodeI13min_Eout_infoPvEEEEE9constructIS3_S3_EEvRS6_PT_RKT0_
FN:1572,_ZNSt3__116allocator_traitsINS_9allocatorI11Ein_Eta_HitEEE9constructIS2_S2_EEvRS3_PT_RKT0_
FN:1572,_ZNSt3__116allocator_traitsINS_9allocatorINS_11__list_nodeI11coef_vectorPvEEEEE9constructIS3_S3_EEvRS6_PT_RKT0_
FN:1572,_ZNSt3__116allocator_traitsINS_9allocatorINS_11__list_nodeI15Vcm_quadBox_HitPvEEEEE9constructIS3_S3_EEvRS6_PT_RKT0_
FN:1572,_ZNSt3__116allocator_traitsINS_9allocatorINS_11__list_nodeI7ss_linkPvEEEEE9constructIS3_S3_EEvRS6_PT_RKT0_
FN:1572,_ZNSt3__116allocator_traitsINS_9allocatorINS_11__list_nodeI9dd_vectorPvEEEEE9constructIS3_S3_EEvRS6_PT_RKT0_
FN:1572,_ZNSt3__116allocator_traitsINS_9allocatorINS_11__list_nodeI11Ein_Eta_HitPvEEEEE9constructIS3_S3_EEvRS6_PT_RKT0_
FN:1572,_ZNSt3__116allocator_traitsINS_9allocatorINS_11__list_nodeI18cm_Legendre_vectorPvEEEEE9constructIS3_S3_EEvRS6_PT_RKT0_
FN:1572,_ZNSt3__116allocator_traitsINS_9allocatorI8dd_entryEEE9constructIS2_S2_EEvRS3_PT_RKT0_
FN:1572,_ZNSt3__116allocator_traitsINS_9allocatorINS_11__list_nodeIdPvEEEEE9constructIddEEvRS5_PT_RKT0_
FN:1572,_ZNSt3__116allocator_traitsINS_9allocatorINS_11__list_nodeI24standard_Legendre_vectorPvEEEEE9constructIS3_S3_EEvRS6_PT_RKT0_
FN:1572,_ZNSt3__116allocator_traitsINS_9allocatorINS_11__list_nodeI6one_muPvEEEEE9constructIS3_S3_EEvRS6_PT_RKT0_
FN:1572,_ZNSt3__116allocator_traitsINS_9allocatorINS_11__list_nodeI13weight_vectorPvEEEEE9constructIS3_S3_EEvRS6_PT_RKT0_
FN:1572,_ZNSt3__116allocator_traitsINS_9allocatorINS_11__list_nodeI14Legendre_coefsPvEEEEE9constructIS3_S3_EEvRS6_PT_RKT0_
FN:1572,_ZNSt3__116allocator_traitsINS_9allocatorI9Ein_entryEEE9constructIS2_S2_EEvRS3_PT_RKT0_
FN:1572,_ZNSt3__116allocator_traitsINS_9allocatorINS_11__list_nodeI21cumulative_prob_entryPvEEEEE9constructIS3_S3_EEvRS6_PT_RKT0_
FN:1572,_ZNSt3__116allocator_traitsINS_9allocatorINS_11__list_nodeIN4cmDD8one_EoutEPvEEEEE9constructIS4_S4_EEvRS7_PT_RKT0_
FN:1572,_ZNSt3__116allocator_traitsINS_9allocatorINS_11__list_nodeI15Boundary_cornerPvEEEEE9constructIS3_S3_EEvRS6_PT_RKT0_
FN:1572,_ZNSt3__116allocator_traitsINS_9allocatorINS_11__list_nodeIN4cmDD14one_joint_distEPvEEEEE9constructIS4_S4_EEvRS7_PT_RKT0_
FN:1572,_ZNSt3__116allocator_traitsINS_9allocatorINS_11__list_nodeI15Kalbach_one_EinPvEEEEE9constructIS3_S3_EEvRS6_PT_RKT0_
FN:1572,_ZNSt3__116allocator_traitsINS_9allocatorINS_11__list_nodeI12Eprob_vectorPvEEEEE9constructIS3_S3_EEvRS6_PT_RKT0_
FN:1572,_ZNSt3__116allocator_traitsINS_9allocatorINS_11__list_nodeI14one_joint_distPvEEEEE9constructIS3_S3_EEvRS6_PT_RKT0_
FN:1595,_ZNSt3__116allocator_traitsINS_9allocatorINS_11__list_nodeI15Kalbach_one_EinPvEEEEE7destroyIS3_EEvRS6_PT_
FN:1595,_ZNSt3__116allocator_traitsINS_9allocatorINS_11__list_nodeI13min_Eout_infoPvEEEEE7destroyIS3_EEvRS6_PT_
FN:1595,_ZNSt3__116allocator_traitsINS_9allocatorINS_11__list_nodeIN4cmDD14one_joint_distEPvEEEEE7destroyIS4_EEvRS7_PT_
FN:1595,_ZNSt3__116allocator_traitsINS_9allocatorINS_12basic_stringIcNS_11char_traitsIcEENS1_IcEEEEEEE7destroyIS6_EEvRS7_PT_
FN:1595,_ZNSt3__116allocator_traitsINS_9allocatorI11Ein_Eta_HitEEE7destroyIS2_EEvRS3_PT_
FN:1595,_ZNSt3__116allocator_traitsINS_9allocatorI9Ein_entryEEE7destroyIS2_EEvRS3_PT_
FN:1595,_ZNSt3__116allocator_traitsINS_9allocatorINS_11__list_nodeI11coef_vectorPvEEEEE7destroyIS3_EEvRS6_PT_
FN:1595,_ZNSt3__116allocator_traitsINS_9allocatorINS_11__list_nodeI24standard_Legendre_vectorPvEEEEE7destroyIS3_EEvRS6_PT_
FN:1595,_ZNSt3__116allocator_traitsINS_9allocatorINS_11__list_nodeI6one_muPvEEEEE7destroyIS3_EEvRS6_PT_
FN:1595,_ZNSt3__116allocator_traitsINS_9allocatorINS_11__list_nodeI18cm_Legendre_vectorPvEEEEE7destroyIS3_EEvRS6_PT_
FN:1595,_ZNSt3__116allocator_traitsINS_9allocatorINS_11__list_nodeI15Boundary_cornerPvEEEEE7destroyIS3_EEvRS6_PT_
FN:1595,_ZNSt3__116allocator_traitsINS_9allocatorINS_11__list_nodeI13weight_vectorPvEEEEE7destroyIS3_EEvRS6_PT_
FN:1595,_ZNSt3__116allocator_traitsINS_9allocatorINS_11__list_nodeI12Eprob_vectorPvEEEEE7destroyIS3_EEvRS6_PT_
FN:1595,_ZNSt3__116allocator_traitsINS_9allocatorINS_11__list_nodeI14Legendre_coefsPvEEEEE7destroyIS3_EEvRS6_PT_
FN:1595,_ZNSt3__116allocator_traitsINS_9allocatorINS_11__list_nodeI15Vcm_quadBox_HitPvEEEEE7destroyIS3_EEvRS6_PT_
FN:1595,_ZNSt3__116allocator_traitsINS_9allocatorINS_11__list_nodeIN6quad_F12one_intervalEPvEEEEE7destroyIS4_EEvRS7_PT_
FN:1595,_ZNSt3__116allocator_traitsINS_9allocatorINS_11__list_nodeI14one_joint_distPvEEEEE7destroyIS3_EEvRS6_PT_
FN:1595,_ZNSt3__116allocator_traitsINS_9allocatorINS_11__list_nodeI21cumulative_prob_entryPvEEEEE7destroyIS3_EEvRS6_PT_
FN:1595,_ZNSt3__116allocator_traitsINS_9allocatorINS_11__list_nodeI7ss_linkPvEEEEE7destroyIS3_EEvRS6_PT_
FN:1595,_ZNSt3__116allocator_traitsINS_9allocatorIdEEE7destroyIdEEvRS2_PT_
FN:1595,_ZNSt3__116allocator_traitsINS_9allocatorINS_11__list_nodeIdPvEEEEE7destroyIdEEvRS5_PT_
FN:1595,_ZNSt3__116allocator_traitsINS_9allocatorINS_11__list_nodeI11Ein_Eta_HitPvEEEEE7destroyIS3_EEvRS6_PT_
FN:1595,_ZNSt3__116allocator_traitsINS_9allocatorI11Ein_entriesEEE7destroyIS2_EEvRS3_PT_
FN:1595,_ZNSt3__116allocator_traitsINS_9allocatorINS_11__list_nodeIN4cmDD8one_EoutEPvEEEEE7destroyIS4_EEvRS7_PT_
FN:1595,_ZNSt3__116allocator_traitsINS_9allocatorI8dd_entryEEE7destroyIS2_EEvRS3_PT_
FN:1595,_ZNSt3__116allocator_traitsINS_9allocatorINS_11__list_nodeI9dd_vectorPvEEEEE7destroyIS3_EEvRS6_PT_
FN:1599,_ZNSt3__116allocator_traitsINS_9allocatorI8dd_entryEEE8max_sizeERKS3_
FN:1599,_ZNSt3__116allocator_traitsINS_9allocatorI11Ein_Eta_HitEEE8max_sizeERKS3_
FN:1599,_ZNSt3__116allocator_traitsINS_9allocatorIdEEE8max_sizeERKS2_
FN:1599,_ZNSt3__116allocator_traitsINS_9allocatorI9Ein_entryEEE8max_sizeERKS3_
FN:1599,_ZNSt3__116allocator_traitsINS_9allocatorI11Ein_entriesEEE8max_sizeERKS3_
FN:1599,_ZNSt3__116allocator_traitsINS_9allocatorIcEEE8max_sizeERKS2_
FN:1604,_ZNSt3__116allocator_traitsINS_9allocatorINS_11__list_nodeI21cumulative_prob_entryPvEEEEE37select_on_container_copy_constructionERKS6_
FN:1604,_ZNSt3__116allocator_traitsINS_9allocatorINS_11__list_nodeI6one_muPvEEEEE37select_on_container_copy_constructionERKS6_
FN:1604,_ZNSt3__116allocator_traitsINS_9allocatorINS_11__list_nodeIN4cmDD8one_EoutEPvEEEEE37select_on_container_copy_constructionERKS7_
FN:1604,_ZNSt3__116allocator_traitsINS_9allocatorINS_11__list_nodeI14Legendre_coefsPvEEEEE37select_on_container_copy_constructionERKS6_
FN:1613,_ZNSt3__116allocator_traitsINS_9allocatorI8dd_entryEEE19__construct_forwardIPS2_EEvRS3_T_S8_RS8_
FN:1676,_ZNSt3__116allocator_traitsINS_9allocatorI8dd_entryEEE20__construct_backwardIPS2_EEvRS3_T_S8_RS8_
FN:1676,_ZNSt3__116allocator_traitsINS_9allocatorI9Ein_entryEEE20__construct_backwardIPS2_EEvRS3_T_S8_RS8_
FN:1676,_ZNSt3__116allocator_traitsINS_9allocatorI11Ein_entriesEEE20__construct_backwardIPS2_EEvRS3_T_S8_RS8_
FN:1676,_ZNSt3__116allocator_traitsINS_9allocatorI11Ein_Eta_HitEEE20__construct_backwardIPS2_EEvRS3_T_S8_RS8_
FN:1695,_ZNSt3__116allocator_traitsINS_9allocatorIdEEE20__construct_backwardIdEENS_9enable_ifIXaaooL_ZNS_17integral_constantIbLb1EE5valueEEntsr15__has_constructIS2_PT_S8_EE5valuesr31is_trivially_move_constructibleIS8_EE5valueEvE4typeERS2_S9_S9_RS9_
FN:1728,_ZNSt3__116allocator_traitsINS_9allocatorIdEEE11__constructIddEEvNS_17integral_constantIbLb1EEERS2_PT_RKT0_
FN:1728,_ZNSt3__116allocator_traitsINS_9allocatorI11Ein_entriesEEE11__constructIS2_S2_EEvNS_17integral_constantIbLb1EEERS3_PT_RKT0_
FN:1728,_ZNSt3__116allocator_traitsINS_9allocatorI11Ein_Eta_HitEEE11__constructIS2_S2_EEvNS_17integral_constantIbLb1EEERS3_PT_RKT0_
FN:1728,_ZNSt3__116allocator_traitsINS_9allocatorI8dd_entryEEE11__constructIS2_S2_EEvNS_17integral_constantIbLb1EEERS3_PT_RKT0_
FN:1728,_ZNSt3__116allocator_traitsINS_9allocatorI9Ein_entryEEE11__constructIS2_S2_EEvNS_17integral_constantIbLb1EEERS3_PT_RKT0_
FN:1733,_ZNSt3__116allocator_traitsINS_9allocatorINS_11__list_nodeIN4cmDD14one_joint_distEPvEEEEE11__constructIS4_S4_EEvNS_17integral_constantIbLb0EEERS7_PT_RKT0_
FN:1733,_ZNSt3__116allocator_traitsINS_9allocatorINS_11__list_nodeI6one_muPvEEEEE11__constructIS3_S3_EEvNS_17integral_constantIbLb0EEERS6_PT_RKT0_
FN:1733,_ZNSt3__116allocator_traitsINS_9allocatorINS_11__list_nodeI13weight_vectorPvEEEEE11__constructIS3_S3_EEvNS_17integral_constantIbLb0EEERS6_PT_RKT0_
FN:1733,_ZNSt3__116allocator_traitsINS_9allocatorINS_11__list_nodeI13min_Eout_infoPvEEEEE11__constructIS3_S3_EEvNS_17integral_constantIbLb0EEERS6_PT_RKT0_
FN:1733,_ZNSt3__116allocator_traitsINS_9allocatorINS_11__list_nodeI15Kalbach_one_EinPvEEEEE11__constructIS3_S3_EEvNS_17integral_constantIbLb0EEERS6_PT_RKT0_
FN:1733,_ZNSt3__116allocator_traitsINS_9allocatorINS_11__list_nodeI15Vcm_quadBox_HitPvEEEEE11__constructIS3_S3_EEvNS_17integral_constantIbLb0EEERS6_PT_RKT0_
FN:1733,_ZNSt3__116allocator_traitsINS_9allocatorINS_11__list_nodeI21cumulative_prob_entryPvEEEEE11__constructIS3_S3_EEvNS_17integral_constantIbLb0EEERS6_PT_RKT0_
FN:1733,_ZNSt3__116allocator_traitsINS_9allocatorINS_11__list_nodeI14Legendre_coefsPvEEEEE11__constructIS3_S3_EEvNS_17integral_constantIbLb0EEERS6_PT_RKT0_
FN:1733,_ZNSt3__116allocator_traitsINS_9allocatorINS_11__list_nodeI24standard_Legendre_vectorPvEEEEE11__constructIS3_S3_EEvNS_17integral_constantIbLb0EEERS6_PT_RKT0_
FN:1733,_ZNSt3__116allocator_traitsINS_9allocatorINS_11__list_nodeIN4cmDD8one_EoutEPvEEEEE11__constructIS4_S4_EEvNS_17integral_constantIbLb0EEERS7_PT_RKT0_
FN:1733,_ZNSt3__116allocator_traitsINS_9allocatorINS_11__list_nodeI11coef_vectorPvEEEEE11__constructIS3_S3_EEvNS_17integral_constantIbLb0EEERS6_PT_RKT0_
FN:1733,_ZNSt3__116allocator_traitsINS_9allocatorINS_11__list_nodeI11Ein_Eta_HitPvEEEEE11__constructIS3_S3_EEvNS_17integral_constantIbLb0EEERS6_PT_RKT0_
FN:1733,_ZNSt3__116allocator_traitsINS_9allocatorINS_11__list_nodeI18cm_Legendre_vectorPvEEEEE11__constructIS3_S3_EEvNS_17integral_constantIbLb0EEERS6_PT_RKT0_
FN:1733,_ZNSt3__116allocator_traitsINS_9allocatorINS_11__list_nodeI9dd_vectorPvEEEEE11__constructIS3_S3_EEvNS_17integral_constantIbLb0EEERS6_PT_RKT0_
FN:1733,_ZNSt3__116allocator_traitsINS_9allocatorINS_11__list_nodeI14one_joint_distPvEEEEE11__constructIS3_S3_EEvNS_17integral_constantIbLb0EEERS6_PT_RKT0_
FN:1733,_ZNSt3__116allocator_traitsINS_9allocatorINS_11__list_nodeI12Eprob_vectorPvEEEEE11__constructIS3_S3_EEvNS_17integral_constantIbLb0EEERS6_PT_RKT0_
FN:1733,_ZNSt3__116allocator_traitsINS_9allocatorINS_11__list_nodeI7ss_linkPvEEEEE11__constructIS3_S3_EEvNS_17integral_constantIbLb0EEERS6_PT_RKT0_
FN:1733,_ZNSt3__116allocator_traitsINS_9allocatorINS_11__list_nodeI15Boundary_cornerPvEEEEE11__constructIS3_S3_EEvNS_17integral_constantIbLb0EEERS6_PT_RKT0_
FN:1733,_ZNSt3__116allocator_traitsINS_9allocatorINS_11__list_nodeIdPvEEEEE11__constructIddEEvNS_17integral_constantIbLb0EEERS5_PT_RKT0_
FN:1733,_ZNSt3__116allocator_traitsINS_9allocatorINS_11__list_nodeIN6quad_F12one_intervalEPvEEEEE11__constructIS4_S4_EEvNS_17integral_constantIbLb0EEERS7_PT_RKT0_
FN:1742,_ZNSt3__116allocator_traitsINS_9allocatorI11Ein_entriesEEE9__destroyIS2_EEvNS_17integral_constantIbLb1EEERS3_PT_
FN:1742,_ZNSt3__116allocator_traitsINS_9allocatorI11Ein_Eta_HitEEE9__destroyIS2_EEvNS_17integral_constantIbLb1EEERS3_PT_
FN:1742,_ZNSt3__116allocator_traitsINS_9allocatorINS_12basic_stringIcNS_11char_traitsIcEENS1_IcEEEEEEE9__destroyIS6_EEvNS_17integral_constantIbLb1EEERS7_PT_
FN:1742,_ZNSt3__116allocator_traitsINS_9allocatorI8dd_entryEEE9__destroyIS2_EEvNS_17integral_constantIbLb1EEERS3_PT_
FN:1742,_ZNSt3__116allocator_traitsINS_9allocatorI9Ein_entryEEE9__destroyIS2_EEvNS_17integral_constantIbLb1EEERS3_PT_
FN:1742,_ZNSt3__116allocator_traitsINS_9allocatorIdEEE9__destroyIdEEvNS_17integral_constantIbLb1EEERS2_PT_
FN:1746,_ZNSt3__116allocator_traitsINS_9allocatorINS_11__list_nodeI24standard_Legendre_vectorPvEEEEE9__destroyIS3_EEvNS_17integral_constantIbLb0EEERS6_PT_
FN:1746,_ZNSt3__116allocator_traitsINS_9allocatorINS_11__list_nodeI18cm_Legendre_vectorPvEEEEE9__destroyIS3_EEvNS_17integral_constantIbLb0EEERS6_PT_
FN:1746,_ZNSt3__116allocator_traitsINS_9allocatorINS_11__list_nodeI13weight_vectorPvEEEEE9__destroyIS3_EEvNS_17integral_constantIbLb0EEERS6_PT_
FN:1746,_ZNSt3__116allocator_traitsINS_9allocatorINS_11__list_nodeIN4cmDD14one_joint_distEPvEEEEE9__destroyIS4_EEvNS_17integral_constantIbLb0EEERS7_PT_
FN:1746,_ZNSt3__116allocator_traitsINS_9allocatorINS_11__list_nodeIN6quad_F12one_intervalEPvEEEEE9__destroyIS4_EEvNS_17integral_constantIbLb0EEERS7_PT_
FN:1746,_ZNSt3__116allocator_traitsINS_9allocatorINS_11__list_nodeI6one_muPvEEEEE9__destroyIS3_EEvNS_17integral_constantIbLb0EEERS6_PT_
FN:1746,_ZNSt3__116allocator_traitsINS_9allocatorINS_11__list_nodeI21cumulative_prob_entryPvEEEEE9__destroyIS3_EEvNS_17integral_constantIbLb0EEERS6_PT_
FN:1746,_ZNSt3__116allocator_traitsINS_9allocatorINS_11__list_nodeI14one_joint_distPvEEEEE9__destroyIS3_EEvNS_17integral_constantIbLb0EEERS6_PT_
FN:1746,_ZNSt3__116allocator_traitsINS_9allocatorINS_11__list_nodeI7ss_linkPvEEEEE9__destroyIS3_EEvNS_17integral_constantIbLb0EEERS6_PT_
FN:1746,_ZNSt3__116allocator_traitsINS_9allocatorINS_11__list_nodeI15Boundary_cornerPvEEEEE9__destroyIS3_EEvNS_17integral_constantIbLb0EEERS6_PT_
FN:1746,_ZNSt3__116allocator_traitsINS_9allocatorINS_11__list_nodeI9dd_vectorPvEEEEE9__destroyIS3_EEvNS_17integral_constantIbLb0EEERS6_PT_
FN:1746,_ZNSt3__116allocator_traitsINS_9allocatorINS_11__list_nodeI13min_Eout_infoPvEEEEE9__destroyIS3_EEvNS_17integral_constantIbLb0EEERS6_PT_
FN:1746,_ZNSt3__116allocator_traitsINS_9allocatorINS_11__list_nodeI14Legendre_coefsPvEEEEE9__destroyIS3_EEvNS_17integral_constantIbLb0EEERS6_PT_
FN:1746,_ZNSt3__116allocator_traitsINS_9allocatorINS_11__list_nodeI12Eprob_vectorPvEEEEE9__destroyIS3_EEvNS_17integral_constantIbLb0EEERS6_PT_
FN:1746,_ZNSt3__116allocator_traitsINS_9allocatorINS_11__list_nodeIdPvEEEEE9__destroyIdEEvNS_17integral_constantIbLb0EEERS5_PT_
FN:1746,_ZNSt3__116allocator_traitsINS_9allocatorINS_11__list_nodeIN4cmDD8one_EoutEPvEEEEE9__destroyIS4_EEvNS_17integral_constantIbLb0EEERS7_PT_
FN:1746,_ZNSt3__116allocator_traitsINS_9allocatorINS_11__list_nodeI15Kalbach_one_EinPvEEEEE9__destroyIS3_EEvNS_17integral_constantIbLb0EEERS6_PT_
FN:1746,_ZNSt3__116allocator_traitsINS_9allocatorINS_11__list_nodeI15Vcm_quadBox_HitPvEEEEE9__destroyIS3_EEvNS_17integral_constantIbLb0EEERS6_PT_
FN:1746,_ZNSt3__116allocator_traitsINS_9allocatorINS_11__list_nodeI11Ein_Eta_HitPvEEEEE9__destroyIS3_EEvNS_17integral_constantIbLb0EEERS6_PT_
FN:1746,_ZNSt3__116allocator_traitsINS_9allocatorINS_11__list_nodeI11coef_vectorPvEEEEE9__destroyIS3_EEvNS_17integral_constantIbLb0EEERS6_PT_
FN:1752,_ZNSt3__116allocator_traitsINS_9allocatorI9Ein_entryEEE10__max_sizeENS_17integral_constantIbLb1EEERKS3_
FN:1752,_ZNSt3__116allocator_traitsINS_9allocatorI11Ein_entriesEEE10__max_sizeENS_17integral_constantIbLb1EEERKS3_
FN:1752,_ZNSt3__116allocator_traitsINS_9allocatorI11Ein_Eta_HitEEE10__max_sizeENS_17integral_constantIbLb1EEERKS3_
FN:1752,_ZNSt3__116allocator_traitsINS_9allocatorIcEEE10__max_sizeENS_17integral_constantIbLb1EEERKS2_
FN:1752,_ZNSt3__116allocator_traitsINS_9allocatorIdEEE10__max_sizeENS_17integral_constantIbLb1EEERKS2_
FN:1752,_ZNSt3__116allocator_traitsINS_9allocatorI8dd_entryEEE10__max_sizeENS_17integral_constantIbLb1EEERKS3_
FN:1764,_ZNSt3__116allocator_traitsINS_9allocatorINS_11__list_nodeI14Legendre_coefsPvEEEEE39__select_on_container_copy_constructionENS_17integral_constantIbLb0EEERKS6_
FN:1764,_ZNSt3__116allocator_traitsINS_9allocatorINS_11__list_nodeI6one_muPvEEEEE39__select_on_container_copy_constructionENS_17integral_constantIbLb0EEERKS6_
FN:1764,_ZNSt3__116allocator_traitsINS_9allocatorINS_11__list_nodeIN4cmDD8one_EoutEPvEEEEE39__select_on_container_copy_constructionENS_17integral_constantIbLb0EEERKS7_
FN:1764,_ZNSt3__116allocator_traitsINS_9allocatorINS_11__list_nodeI21cumulative_prob_entryPvEEEEE39__select_on_container_copy_constructionENS_17integral_constantIbLb0EEERKS6_
FN:1798,_ZNSt3__19allocatorINS_11__list_nodeI24standard_Legendre_vectorPvEEEC2Ev
FN:1798,_ZNSt3__19allocatorINS_11__list_nodeI14one_joint_distPvEEEC2Ev
FN:1798,_ZNSt3__19allocatorINS_11__list_nodeI14Legendre_coefsPvEEEC2Ev
FN:1798,_ZNSt3__19allocatorINS_11__list_nodeI15Vcm_quadBox_HitPvEEEC2Ev
FN:1798,_ZNSt3__19allocatorI9Ein_entryEC2Ev
FN:1798,_ZNSt3__19allocatorIdEC2Ev
FN:1798,_ZNSt3__19allocatorINS_11__list_nodeI12Eprob_vectorPvEEEC2Ev
FN:1798,_ZNSt3__19allocatorINS_12basic_stringIcNS_11char_traitsIcEENS0_IcEEEEEC2Ev
FN:1798,_ZNSt3__19allocatorI11Ein_entriesEC2Ev
FN:1798,_ZNSt3__19allocatorIcEC2Ev
FN:1798,_ZNSt3__19allocatorINS_11__list_nodeI15Boundary_cornerPvEEEC2Ev
FN:1798,_ZNSt3__19allocatorINS_11__list_nodeI13weight_vectorPvEEEC2Ev
FN:1798,_ZNSt3__19allocatorI8dd_entryEC2Ev
FN:1798,_ZNSt3__19allocatorINS_11__list_nodeI15Kalbach_one_EinPvEEEC2Ev
FN:1798,_ZNSt3__19allocatorINS_11__list_nodeIN4cmDD8one_EoutEPvEEEC2Ev
FN:1798,_ZNSt3__19allocatorINS_11__list_nodeI6one_muPvEEEC2Ev
FN:1798,_ZNSt3__19allocatorINS_11__list_nodeI9dd_vectorPvEEEC2Ev
FN:1798,_ZNSt3__19allocatorINS_11__list_nodeI11Ein_Eta_HitPvEEEC2Ev
FN:1798,_ZNSt3__19allocatorINS_11__list_nodeIN6quad_F12one_intervalEPvEEEC2Ev
FN:1798,_ZNSt3__19allocatorINS_11__list_nodeIN4cmDD14one_joint_distEPvEEEC2Ev
FN:1798,_ZNSt3__19allocatorINS_11__list_nodeI7ss_linkPvEEEC2Ev
FN:1798,_ZNSt3__19allocatorINS_11__list_nodeI21cumulative_prob_entryPvEEEC2Ev
FN:1798,_ZNSt3__19allocatorINS_11__list_nodeI11coef_vectorPvEEEC2Ev
FN:1798,_ZNSt3__19allocatorI11Ein_Eta_HitEC2Ev
FN:1798,_ZNSt3__19allocatorINS_11__list_nodeI13min_Eout_infoPvEEEC2Ev
FN:1798,_ZNSt3__19allocatorINS_11__list_nodeI18cm_Legendre_vectorPvEEEC2Ev
FN:1798,_ZNSt3__19allocatorINS_11__list_nodeIdPvEEEC2Ev
FN:1809,_ZNSt3__19allocatorINS_11__list_nodeI13weight_vectorPvEEE8allocateEmPKv
FN:1809,_ZNSt3__19allocatorINS_11__list_nodeIN4cmDD14one_joint_distEPvEEE8allocateEmPKv
FN:1809,_ZNSt3__19allocatorINS_11__list_nodeI15Boundary_cornerPvEEE8allocateEmPKv
FN:1809,_ZNSt3__19allocatorINS_11__list_nodeIN6quad_F12one_intervalEPvEEE8allocateEmPKv
FN:1809,_ZNSt3__19allocatorINS_11__list_nodeI24standard_Legendre_vectorPvEEE8allocateEmPKv
FN:1809,_ZNSt3__19allocatorINS_11__list_nodeI14one_joint_distPvEEE8allocateEmPKv
FN:1809,_ZNSt3__19allocatorINS_11__list_nodeI18cm_Legendre_vectorPvEEE8allocateEmPKv
FN:1809,_ZNSt3__19allocatorIcE8allocateEmPKv
FN:1809,_ZNSt3__19allocatorINS_11__list_nodeIdPvEEE8allocateEmPKv
FN:1809,_ZNSt3__19allocatorINS_11__list_nodeI6one_muPvEEE8allocateEmPKv
FN:1809,_ZNSt3__19allocatorI11Ein_Eta_HitE8allocateEmPKv
FN:1809,_ZNSt3__19allocatorINS_11__list_nodeI11Ein_Eta_HitPvEEE8allocateEmPKv
FN:1809,_ZNSt3__19allocatorINS_11__list_nodeI14Legendre_coefsPvEEE8allocateEmPKv
FN:1809,_ZNSt3__19allocatorINS_11__list_nodeI15Kalbach_one_EinPvEEE8allocateEmPKv
FN:1809,_ZNSt3__19allocatorIdE8allocateEmPKv
FN:1809,_ZNSt3__19allocatorINS_11__list_nodeI12Eprob_vectorPvEEE8allocateEmPKv
FN:1809,_ZNSt3__19allocatorINS_11__list_nodeI21cumulative_prob_entryPvEEE8allocateEmPKv
FN:1809,_ZNSt3__19allocatorI11Ein_entriesE8allocateEmPKv
FN:1809,_ZNSt3__19allocatorINS_11__list_nodeI7ss_linkPvEEE8allocateEmPKv
FN:1809,_ZNSt3__19allocatorINS_11__list_nodeI13min_Eout_infoPvEEE8allocateEmPKv
FN:1809,_ZNSt3__19allocatorINS_11__list_nodeI9dd_vectorPvEEE8allocateEmPKv
FN:1809,_ZNSt3__19allocatorI8dd_entryE8allocateEmPKv
FN:1809,_ZNSt3__19allocatorINS_11__list_nodeI15Vcm_quadBox_HitPvEEE8allocateEmPKv
FN:1809,_ZNSt3__19allocatorINS_11__list_nodeIN4cmDD8one_EoutEPvEEE8allocateEmPKv
FN:1809,_ZNSt3__19allocatorINS_11__list_nodeI11coef_vectorPvEEE8allocateEmPKv
FN:1809,_ZNSt3__19allocatorI9Ein_entryE8allocateEmPKv
FN:1816,_ZNSt3__19allocatorINS_11__list_nodeI15Kalbach_one_EinPvEEE10deallocateEPS4_m
FN:1816,_ZNSt3__19allocatorINS_11__list_nodeI12Eprob_vectorPvEEE10deallocateEPS4_m
FN:1816,_ZNSt3__19allocatorINS_11__list_nodeI24standard_Legendre_vectorPvEEE10deallocateEPS4_m
FN:1816,_ZNSt3__19allocatorINS_11__list_nodeI9dd_vectorPvEEE10deallocateEPS4_m
FN:1816,_ZNSt3__19allocatorINS_11__list_nodeIN4cmDD14one_joint_distEPvEEE10deallocateEPS5_m
FN:1816,_ZNSt3__19allocatorINS_11__list_nodeI13weight_vectorPvEEE10deallocateEPS4_m
FN:1816,_ZNSt3__19allocatorINS_11__list_nodeIN4cmDD8one_EoutEPvEEE10deallocateEPS5_m
FN:1816,_ZNSt3__19allocatorINS_11__list_nodeIdPvEEE10deallocateEPS3_m
FN:1816,_ZNSt3__19allocatorINS_11__list_nodeI7ss_linkPvEEE10deallocateEPS4_m
FN:1816,_ZNSt3__19allocatorINS_11__list_nodeI11coef_vectorPvEEE10deallocateEPS4_m
FN:1816,_ZNSt3__19allocatorINS_11__list_nodeI15Boundary_cornerPvEEE10deallocateEPS4_m
FN:1816,_ZNSt3__19allocatorI9Ein_entryE10deallocateEPS1_m
FN:1816,_ZNSt3__19allocatorIdE10deallocateEPdm
FN:1816,_ZNSt3__19allocatorINS_11__list_nodeI14Legendre_coefsPvEEE10deallocateEPS4_m
FN:1816,_ZNSt3__19allocatorINS_11__list_nodeI13min_Eout_infoPvEEE10deallocateEPS4_m
FN:1816,_ZNSt3__19allocatorINS_11__list_nodeI21cumulative_prob_entryPvEEE10deallocateEPS4_m
FN:1816,_ZNSt3__19allocatorINS_11__list_nodeI15Vcm_quadBox_HitPvEEE10deallocateEPS4_m
FN:1816,_ZNSt3__19allocatorI11Ein_Eta_HitE10deallocateEPS1_m
FN:1816,_ZNSt3__19allocatorINS_12basic_stringIcNS_11char_traitsIcEENS0_IcEEEEE10deallocateEPS5_m
FN:1816,_ZNSt3__19allocatorINS_11__list_nodeI6one_muPvEEE10deallocateEPS4_m
FN:1816,_ZNSt3__19allocatorINS_11__list_nodeI11Ein_Eta_HitPvEEE10deallocateEPS4_m
FN:1816,_ZNSt3__19allocatorI11Ein_entriesE10deallocateEPS1_m
FN:1816,_ZNSt3__19allocatorINS_11__list_nodeIN6quad_F12one_intervalEPvEEE10deallocateEPS5_m
FN:1816,_ZNSt3__19allocatorI8dd_entryE10deallocateEPS1_m
FN:1816,_ZNSt3__19allocatorINS_11__list_nodeI18cm_Legendre_vectorPvEEE10deallocateEPS4_m
FN:1816,_ZNSt3__19allocatorINS_11__list_nodeI14one_joint_distPvEEE10deallocateEPS4_m
FN:1818,_ZNKSt3__19allocatorINS_11__list_nodeI12Eprob_vectorPvEEE8max_sizeEv
FN:1818,_ZNKSt3__19allocatorI11Ein_Eta_HitE8max_sizeEv
FN:1818,_ZNKSt3__19allocatorINS_11__list_nodeI15Vcm_quadBox_HitPvEEE8max_sizeEv
FN:1818,_ZNKSt3__19allocatorINS_11__list_nodeI21cumulative_prob_entryPvEEE8max_sizeEv
FN:1818,_ZNKSt3__19allocatorINS_11__list_nodeI13weight_vectorPvEEE8max_sizeEv
FN:1818,_ZNKSt3__19allocatorINS_11__list_nodeIN4cmDD8one_EoutEPvEEE8max_sizeEv
FN:1818,_ZNKSt3__19allocatorINS_11__list_nodeI24standard_Legendre_vectorPvEEE8max_sizeEv
FN:1818,_ZNKSt3__19allocatorIdE8max_sizeEv
FN:1818,_ZNKSt3__19allocatorINS_11__list_nodeI6one_muPvEEE8max_sizeEv
FN:1818,_ZNKSt3__19allocatorINS_11__list_nodeI13min_Eout_infoPvEEE8max_sizeEv
FN:1818,_ZNKSt3__19allocatorINS_11__list_nodeI9dd_vectorPvEEE8max_sizeEv
FN:1818,_ZNKSt3__19allocatorI9Ein_entryE8max_sizeEv
FN:1818,_ZNKSt3__19allocatorINS_11__list_nodeI15Boundary_cornerPvEEE8max_sizeEv
FN:1818,_ZNKSt3__19allocatorINS_11__list_nodeI15Kalbach_one_EinPvEEE8max_sizeEv
FN:1818,_ZNKSt3__19allocatorINS_11__list_nodeI11coef_vectorPvEEE8max_sizeEv
FN:1818,_ZNKSt3__19allocatorINS_11__list_nodeI11Ein_Eta_HitPvEEE8max_sizeEv
FN:1818,_ZNKSt3__19allocatorINS_11__list_nodeI18cm_Legendre_vectorPvEEE8max_sizeEv
FN:1818,_ZNKSt3__19allocatorINS_11__list_nodeIN4cmDD14one_joint_distEPvEEE8max_sizeEv
FN:1818,_ZNKSt3__19allocatorINS_11__list_nodeIN6quad_F12one_intervalEPvEEE8max_sizeEv
FN:1818,_ZNKSt3__19allocatorI11Ein_entriesE8max_sizeEv
FN:1818,_ZNKSt3__19allocatorINS_11__list_nodeIdPvEEE8max_sizeEv
FN:1818,_ZNKSt3__19allocatorINS_11__list_nodeI14one_joint_distPvEEE8max_sizeEv
FN:1818,_ZNKSt3__19allocatorINS_11__list_nodeI14Legendre_coefsPvEEE8max_sizeEv
FN:1818,_ZNKSt3__19allocatorI8dd_entryE8max_sizeEv
FN:1818,_ZNKSt3__19allocatorINS_11__list_nodeI7ss_linkPvEEE8max_sizeEv
FN:1818,_ZNKSt3__19allocatorIcE8max_sizeEv
FN:1847,_ZNSt3__19allocatorI11Ein_Eta_HitE9constructIS1_EEvPS1_RKT_
FN:1847,_ZNSt3__19allocatorI11Ein_entriesE9constructIS1_EEvPS1_RKT_
FN:1847,_ZNSt3__19allocatorI9Ein_entryE9constructIS1_EEvPS1_RKT_
FN:1847,_ZNSt3__19allocatorI8dd_entryE9constructIS1_EEvPS1_RKT_
FN:1847,_ZNSt3__19allocatorIdE9constructIdEEvPdRKT_
FN:1881,_ZNSt3__19allocatorI8dd_entryE7destroyEPS1_
FN:1881,_ZNSt3__19allocatorI11Ein_entriesE7destroyEPS1_
FN:1881,_ZNSt3__19allocatorI11Ein_Eta_HitE7destroyEPS1_
FN:1881,_ZNSt3__19allocatorIdE7destroyEPd
FN:1881,_ZNSt3__19allocatorI9Ein_entryE7destroyEPS1_
FN:1881,_ZNSt3__19allocatorINS_12basic_stringIcNS_11char_traitsIcEENS0_IcEEEEE7destroyEPS5_
FN:2158,_ZNSt3__122__compressed_pair_elemINS_12basic_stringIcNS_11char_traitsIcEENS_9allocatorIcEEE5__repELi0ELb0EEC2Ev
FN:2160,_ZNSt3__122__compressed_pair_elemINS_22__allocator_destructorINS_9allocatorINS_11__list_nodeIN6quad_F12one_intervalEPvEEEEEELi1ELb0EEC2ES9_
FN:2160,_ZNSt3__122__compressed_pair_elemINS_22__allocator_destructorINS_9allocatorINS_11__list_nodeI12Eprob_vectorPvEEEEEELi1ELb0EEC2ES8_
FN:2160,_ZNSt3__122__compressed_pair_elemINS_22__allocator_destructorINS_9allocatorINS_11__list_nodeI6one_muPvEEEEEELi1ELb0EEC2ES8_
FN:2160,_ZNSt3__122__compressed_pair_elemIPNS_11__list_nodeI13weight_vectorPvEELi0ELb0EEC2ES5_
FN:2160,_ZNSt3__122__compressed_pair_elemINS_22__allocator_destructorINS_9allocatorINS_11__list_nodeI7ss_linkPvEEEEEELi1ELb0EEC2ES8_
FN:2160,_ZNSt3__122__compressed_pair_elemINS_22__allocator_destructorINS_9allocatorINS_11__list_nodeIN4cmDD14one_joint_distEPvEEEEEELi1ELb0EEC2ES9_
FN:2160,_ZNSt3__122__compressed_pair_elemINS_22__allocator_destructorINS_9allocatorINS_11__list_nodeI9dd_vectorPvEEEEEELi1ELb0EEC2ES8_
FN:2160,_ZNSt3__122__compressed_pair_elemINS_22__allocator_destructorINS_9allocatorINS_11__list_nodeI13min_Eout_infoPvEEEEEELi1ELb0EEC2ES8_
FN:2160,_ZNSt3__122__compressed_pair_elemIPNS_11__list_nodeI15Boundary_cornerPvEELi0ELb0EEC2ES5_
FN:2160,_ZNSt3__122__compressed_pair_elemINS_22__allocator_destructorINS_9allocatorINS_11__list_nodeI18cm_Legendre_vectorPvEEEEEELi1ELb0EEC2ES8_
FN:2160,_ZNSt3__122__compressed_pair_elemIRNS_9allocatorI11Ein_Eta_HitEELi1ELb0EEC2ES4_
FN:2160,_ZNSt3__122__compressed_pair_elemINS_22__allocator_destructorINS_9allocatorINS_11__list_nodeI15Boundary_cornerPvEEEEEELi1ELb0EEC2ES8_
FN:2160,_ZNSt3__122__compressed_pair_elemINS_22__allocator_destructorINS_9allocatorINS_11__list_nodeIN4cmDD8one_EoutEPvEEEEEELi1ELb0EEC2ES9_
FN:2160,_ZNSt3__122__compressed_pair_elemIPNS_11__list_nodeI13min_Eout_infoPvEELi0ELb0EEC2ES5_
FN:2160,_ZNSt3__122__compressed_pair_elemIPNS_11__list_nodeIdPvEELi0ELb0EEC2ES4_
FN:2160,_ZNSt3__122__compressed_pair_elemIRNS_9allocatorI11Ein_entriesEELi1ELb0EEC2ES4_
FN:2160,_ZNSt3__122__compressed_pair_elemIPNS_11__list_nodeI14Legendre_coefsPvEELi0ELb0EEC2ES5_
FN:2160,_ZNSt3__122__compressed_pair_elemIPNS_11__list_nodeI15Vcm_quadBox_HitPvEELi0ELb0EEC2ES5_
FN:2160,_ZNSt3__122__compressed_pair_elemINS_22__allocator_destructorINS_9allocatorINS_11__list_nodeI15Vcm_quadBox_HitPvEEEEEELi1ELb0EEC2ES8_
FN:2160,_ZNSt3__122__compressed_pair_elemIRNS_9allocatorI9Ein_entryEELi1ELb0EEC2ES4_
FN:2160,_ZNSt3__122__compressed_pair_elemIPdLi0ELb0EEC2ES1_
FN:2160,_ZNSt3__122__compressed_pair_elemIPNS_11__list_nodeI6one_muPvEELi0ELb0EEC2ES5_
FN:2160,_ZNSt3__122__compressed_pair_elemIP11Ein_Eta_HitLi0ELb0EEC2ES2_
FN:2160,_ZNSt3__122__compressed_pair_elemINS_22__allocator_destructorINS_9allocatorINS_11__list_nodeI13weight_vectorPvEEEEEELi1ELb0EEC2ES8_
FN:2160,_ZNSt3__122__compressed_pair_elemIPFiP7__sFILEELi1ELb0EEC2ES4_
FN:2160,_ZNSt3__122__compressed_pair_elemINS_22__allocator_destructorINS_9allocatorINS_11__list_nodeI14Legendre_coefsPvEEEEEELi1ELb0EEC2ES8_
FN:2160,_ZNSt3__122__compressed_pair_elemINS_22__allocator_destructorINS_9allocatorINS_11__list_nodeI24standard_Legendre_vectorPvEEEEEELi1ELb0EEC2ES8_
FN:2160,_ZNSt3__122__compressed_pair_elemINS_22__allocator_destructorINS_9allocatorINS_11__list_nodeI11coef_vectorPvEEEEEELi1ELb0EEC2ES8_
FN:2160,_ZNSt3__122__compressed_pair_elemIPNS_11__list_nodeI15Kalbach_one_EinPvEELi0ELb0EEC2ES5_
FN:2160,_ZNSt3__122__compressed_pair_elemINS_22__allocator_destructorINS_9allocatorINS_11__list_nodeI14one_joint_distPvEEEEEELi1ELb0EEC2ES8_
FN:2160,_ZNSt3__122__compressed_pair_elemIPNS_11__list_nodeI18cm_Legendre_vectorPvEELi0ELb0EEC2ES5_
FN:2160,_ZNSt3__122__compressed_pair_elemIPNS_11__list_nodeI14one_joint_distPvEELi0ELb0EEC2ES5_
FN:2160,_ZNSt3__122__compressed_pair_elemIPNS_11__list_nodeI9dd_vectorPvEELi0ELb0EEC2ES5_
FN:2160,_ZNSt3__122__compressed_pair_elemIPNS_11__list_nodeI11coef_vectorPvEELi0ELb0EEC2ES5_
FN:2160,_ZNSt3__122__compressed_pair_elemIPNS_11__list_nodeI7ss_linkPvEELi0ELb0EEC2ES5_
FN:2160,_ZNSt3__122__compressed_pair_elemIPNS_11__list_nodeI24standard_Legendre_vectorPvEELi0ELb0EEC2ES5_
FN:2160,_ZNSt3__122__compressed_pair_elemIPNS_11__list_nodeIN4cmDD8one_EoutEPvEELi0ELb0EEC2ES6_
FN:2160,_ZNSt3__122__compressed_pair_elemIPNS_11__list_nodeIN6quad_F12one_intervalEPvEELi0ELb0EEC2ES6_
FN:2160,_ZNSt3__122__compressed_pair_elemINS_22__allocator_destructorINS_9allocatorINS_11__list_nodeIdPvEEEEEELi1ELb0EEC2ES7_
FN:2160,_ZNSt3__122__compressed_pair_elemIPNS_11__list_nodeI21cumulative_prob_entryPvEELi0ELb0EEC2ES5_
FN:2160,_ZNSt3__122__compressed_pair_elemINS_22__allocator_destructorINS_9allocatorINS_11__list_nodeI15Kalbach_one_EinPvEEEEEELi1ELb0EEC2ES8_
FN:2160,_ZNSt3__122__compressed_pair_elemIP11Ein_entriesLi0ELb0EEC2ES2_
FN:2160,_ZNSt3__122__compressed_pair_elemIP9Ein_entryLi0ELb0EEC2ES2_
FN:2160,_ZNSt3__122__compressed_pair_elemIRNS_9allocatorI8dd_entryEELi1ELb0EEC2ES4_
FN:2160,_ZNSt3__122__compressed_pair_elemIPNS_11__list_nodeI11Ein_Eta_HitPvEELi0ELb0EEC2ES5_
FN:2160,_ZNSt3__122__compressed_pair_elemIP8dd_entryLi0ELb0EEC2ES2_
FN:2160,_ZNSt3__122__compressed_pair_elemImLi0ELb0EEC2Em
FN:2160,_ZNSt3__122__compressed_pair_elemIPNS_11__list_nodeI12Eprob_vectorPvEELi0ELb0EEC2ES5_
FN:2160,_ZNSt3__122__compressed_pair_elemIPNS_11__list_nodeIN4cmDD14one_joint_distEPvEELi0ELb0EEC2ES6_
FN:2160,_ZNSt3__122__compressed_pair_elemINS_22__allocator_destructorINS_9allocatorINS_11__list_nodeI11Ein_Eta_HitPvEEEEEELi1ELb0EEC2ES8_
FN:2160,_ZNSt3__122__compressed_pair_elemIRNS_9allocatorIdEELi1ELb0EEC2ES3_
FN:2160,_ZNSt3__122__compressed_pair_elemIP7__sFILELi0ELb0EEC2ES2_
FN:2160,_ZNSt3__122__compressed_pair_elemINS_22__allocator_destructorINS_9allocatorINS_11__list_nodeI21cumulative_prob_entryPvEEEEEELi1ELb0EEC2ES8_
FN:2160,_ZNSt3__122__compressed_pair_elemIPNS_12basic_stringIcNS_11char_traitsIcEENS_9allocatorIcEEEELi0ELb0EEC2ES7_
FN:2163,_ZNSt3__122__compressed_pair_elemIPNS_11__list_nodeIN6quad_F12one_intervalEPvEELi0ELb0EE5__getEv
FN:2163,_ZNSt3__122__compressed_pair_elemIRNS_9allocatorI11Ein_entriesEELi1ELb0EE5__getEv
FN:2163,_ZNSt3__122__compressed_pair_elemIPNS_11__list_nodeI24standard_Legendre_vectorPvEELi0ELb0EE5__getEv
FN:2163,_ZNSt3__122__compressed_pair_elemINS_22__allocator_destructorINS_9allocatorINS_11__list_nodeI9dd_vectorPvEEEEEELi1ELb0EE5__getEv
FN:2163,_ZNSt3__122__compressed_pair_elemINS_22__allocator_destructorINS_9allocatorINS_11__list_nodeI15Boundary_cornerPvEEEEEELi1ELb0EE5__getEv
FN:2163,_ZNSt3__122__compressed_pair_elemIPNS_11__list_nodeI6one_muPvEELi0ELb0EE5__getEv
FN:2163,_ZNSt3__122__compressed_pair_elemIPNS_11__list_nodeI15Boundary_cornerPvEELi0ELb0EE5__getEv
FN:2163,_ZNSt3__122__compressed_pair_elemINS_22__allocator_destructorINS_9allocatorINS_11__list_nodeI15Vcm_quadBox_HitPvEEEEEELi1ELb0EE5__getEv
FN:2163,_ZNSt3__122__compressed_pair_elemIPNS_11__list_nodeI12Eprob_vectorPvEELi0ELb0EE5__getEv
FN:2163,_ZNSt3__122__compressed_pair_elemINS_22__allocator_destructorINS_9allocatorINS_11__list_nodeI18cm_Legendre_vectorPvEEEEEELi1ELb0EE5__getEv
FN:2163,_ZNSt3__122__compressed_pair_elemINS_22__allocator_destructorINS_9allocatorINS_11__list_nodeI12Eprob_vectorPvEEEEEELi1ELb0EE5__getEv
FN:2163,_ZNSt3__122__compressed_pair_elemIPNS_11__list_nodeI11coef_vectorPvEELi0ELb0EE5__getEv
FN:2163,_ZNSt3__122__compressed_pair_elemINS_22__allocator_destructorINS_9allocatorINS_11__list_nodeI11coef_vectorPvEEEEEELi1ELb0EE5__getEv
FN:2163,_ZNSt3__122__compressed_pair_elemIRNS_9allocatorI9Ein_entryEELi1ELb0EE5__getEv
FN:2163,_ZNSt3__122__compressed_pair_elemIPNS_11__list_nodeI21cumulative_prob_entryPvEELi0ELb0EE5__getEv
FN:2163,_ZNSt3__122__compressed_pair_elemINS_22__allocator_destructorINS_9allocatorINS_11__list_nodeI13weight_vectorPvEEEEEELi1ELb0EE5__getEv
FN:2163,_ZNSt3__122__compressed_pair_elemIPNS_11__list_nodeI11Ein_Eta_HitPvEELi0ELb0EE5__getEv
FN:2163,_ZNSt3__122__compressed_pair_elemIP11Ein_entriesLi0ELb0EE5__getEv
FN:2163,_ZNSt3__122__compressed_pair_elemINS_22__allocator_destructorINS_9allocatorINS_11__list_nodeI7ss_linkPvEEEEEELi1ELb0EE5__getEv
FN:2163,_ZNSt3__122__compressed_pair_elemINS_22__allocator_destructorINS_9allocatorINS_11__list_nodeI24standard_Legendre_vectorPvEEEEEELi1ELb0EE5__getEv
FN:2163,_ZNSt3__122__compressed_pair_elemINS_22__allocator_destructorINS_9allocatorINS_11__list_nodeIN6quad_F12one_intervalEPvEEEEEELi1ELb0EE5__getEv
FN:2163,_ZNSt3__122__compressed_pair_elemIPNS_11__list_nodeI15Kalbach_one_EinPvEELi0ELb0EE5__getEv
FN:2163,_ZNSt3__122__compressed_pair_elemINS_22__allocator_destructorINS_9allocatorINS_11__list_nodeI6one_muPvEEEEEELi1ELb0EE5__getEv
FN:2163,_ZNSt3__122__compressed_pair_elemIPNS_11__list_nodeI14Legendre_coefsPvEELi0ELb0EE5__getEv
FN:2163,_ZNSt3__122__compressed_pair_elemIP9Ein_entryLi0ELb0EE5__getEv
FN:2163,_ZNSt3__122__compressed_pair_elemIPNS_11__list_nodeI14one_joint_distPvEELi0ELb0EE5__getEv
FN:2163,_ZNSt3__122__compressed_pair_elemINS_12basic_stringIcNS_11char_traitsIcEENS_9allocatorIcEEE5__repELi0ELb0EE5__getEv
FN:2163,_ZNSt3__122__compressed_pair_elemINS_22__allocator_destructorINS_9allocatorINS_11__list_nodeI11Ein_Eta_HitPvEEEEEELi1ELb0EE5__getEv
FN:2163,_ZNSt3__122__compressed_pair_elemIPNS_11__list_nodeI7ss_linkPvEELi0ELb0EE5__getEv
FN:2163,_ZNSt3__122__compressed_pair_elemImLi0ELb0EE5__getEv
FN:2163,_ZNSt3__122__compressed_pair_elemIPNS_11__list_nodeIN4cmDD8one_EoutEPvEELi0ELb0EE5__getEv
FN:2163,_ZNSt3__122__compressed_pair_elemIP7__sFILELi0ELb0EE5__getEv
FN:2163,_ZNSt3__122__compressed_pair_elemINS_22__allocator_destructorINS_9allocatorINS_11__list_nodeI13min_Eout_infoPvEEEEEELi1ELb0EE5__getEv
FN:2163,_ZNSt3__122__compressed_pair_elemIPFiP7__sFILEELi1ELb0EE5__getEv
FN:2163,_ZNSt3__122__compressed_pair_elemIPNS_11__list_nodeIdPvEELi0ELb0EE5__getEv
FN:2163,_ZNSt3__122__compressed_pair_elemIPNS_11__list_nodeI18cm_Legendre_vectorPvEELi0ELb0EE5__getEv
FN:2163,_ZNSt3__122__compressed_pair_elemIPdLi0ELb0EE5__getEv
FN:2163,_ZNSt3__122__compressed_pair_elemINS_22__allocator_destructorINS_9allocatorINS_11__list_nodeIN4cmDD14one_joint_distEPvEEEEEELi1ELb0EE5__getEv
FN:2163,_ZNSt3__122__compressed_pair_elemINS_22__allocator_destructorINS_9allocatorINS_11__list_nodeI15Kalbach_one_EinPvEEEEEELi1ELb0EE5__getEv
FN:2163,_ZNSt3__122__compressed_pair_elemIPNS_11__list_nodeI13weight_vectorPvEELi0ELb0EE5__getEv
FN:2163,_ZNSt3__122__compressed_pair_elemINS_22__allocator_destructorINS_9allocatorINS_11__list_nodeI14one_joint_distPvEEEEEELi1ELb0EE5__getEv
FN:2163,_ZNSt3__122__compressed_pair_elemIRNS_9allocatorI11Ein_Eta_HitEELi1ELb0EE5__getEv
FN:2163,_ZNSt3__122__compressed_pair_elemINS_22__allocator_destructorINS_9allocatorINS_11__list_nodeI21cumulative_prob_entryPvEEEEEELi1ELb0EE5__getEv
FN:2163,_ZNSt3__122__compressed_pair_elemIP11Ein_Eta_HitLi0ELb0EE5__getEv
FN:2163,_ZNSt3__122__compressed_pair_elemIPNS_11__list_nodeI9dd_vectorPvEELi0ELb0EE5__getEv
FN:2163,_ZNSt3__122__compressed_pair_elemINS_22__allocator_destructorINS_9allocatorINS_11__list_nodeIN4cmDD8one_EoutEPvEEEEEELi1ELb0EE5__getEv
FN:2163,_ZNSt3__122__compressed_pair_elemIRNS_9allocatorIdEELi1ELb0EE5__getEv
FN:2163,_ZNSt3__122__compressed_pair_elemINS_22__allocator_destructorINS_9allocatorINS_11__list_nodeIdPvEEEEEELi1ELb0EE5__getEv
FN:2163,_ZNSt3__122__compressed_pair_elemIP8dd_entryLi0ELb0EE5__getEv
FN:2163,_ZNSt3__122__compressed_pair_elemIPNS_11__list_nodeIN4cmDD14one_joint_distEPvEELi0ELb0EE5__getEv
FN:2163,_ZNSt3__122__compressed_pair_elemINS_22__allocator_destructorINS_9allocatorINS_11__list_nodeI14Legendre_coefsPvEEEEEELi1ELb0EE5__getEv
FN:2163,_ZNSt3__122__compressed_pair_elemIPNS_11__list_nodeI15Vcm_quadBox_HitPvEELi0ELb0EE5__getEv
FN:2163,_ZNSt3__122__compressed_pair_elemIRNS_9allocatorI8dd_entryEELi1ELb0EE5__getEv
FN:2163,_ZNSt3__122__compressed_pair_elemIPNS_11__list_nodeI13min_Eout_infoPvEELi0ELb0EE5__getEv
FN:2165,_ZNKSt3__122__compressed_pair_elemIPNS_11__list_nodeIN4cmDD14one_joint_distEPvEELi0ELb0EE5__getEv
FN:2165,_ZNKSt3__122__compressed_pair_elemIPNS_11__list_nodeI13weight_vectorPvEELi0ELb0EE5__getEv
FN:2165,_ZNKSt3__122__compressed_pair_elemIPNS_11__list_nodeI9dd_vectorPvEELi0ELb0EE5__getEv
FN:2165,_ZNKSt3__122__compressed_pair_elemIPNS_11__list_nodeI13min_Eout_infoPvEELi0ELb0EE5__getEv
FN:2165,_ZNKSt3__122__compressed_pair_elemIPNS_11__list_nodeI11coef_vectorPvEELi0ELb0EE5__getEv
FN:2165,_ZNKSt3__122__compressed_pair_elemIPdLi0ELb0EE5__getEv
FN:2165,_ZNKSt3__122__compressed_pair_elemIPNS_11__list_nodeI12Eprob_vectorPvEELi0ELb0EE5__getEv
FN:2165,_ZNKSt3__122__compressed_pair_elemIPNS_11__list_nodeI15Boundary_cornerPvEELi0ELb0EE5__getEv
FN:2165,_ZNKSt3__122__compressed_pair_elemIP11Ein_Eta_HitLi0ELb0EE5__getEv
FN:2165,_ZNKSt3__122__compressed_pair_elemIPNS_11__list_nodeIN4cmDD8one_EoutEPvEELi0ELb0EE5__getEv
FN:2165,_ZNKSt3__122__compressed_pair_elemIPNS_11__list_nodeI11Ein_Eta_HitPvEELi0ELb0EE5__getEv
FN:2165,_ZNKSt3__122__compressed_pair_elemIPNS_11__list_nodeI15Kalbach_one_EinPvEELi0ELb0EE5__getEv
FN:2165,_ZNKSt3__122__compressed_pair_elemIPNS_11__list_nodeI14one_joint_distPvEELi0ELb0EE5__getEv
FN:2165,_ZNKSt3__122__compressed_pair_elemIPNS_11__list_nodeI24standard_Legendre_vectorPvEELi0ELb0EE5__getEv
FN:2165,_ZNKSt3__122__compressed_pair_elemIPNS_11__list_nodeIdPvEELi0ELb0EE5__getEv
FN:2165,_ZNKSt3__122__compressed_pair_elemINS_12basic_stringIcNS_11char_traitsIcEENS_9allocatorIcEEE5__repELi0ELb0EE5__getEv
FN:2165,_ZNKSt3__122__compressed_pair_elemIPNS_11__list_nodeI14Legendre_coefsPvEELi0ELb0EE5__getEv
FN:2165,_ZNKSt3__122__compressed_pair_elemIP9Ein_entryLi0ELb0EE5__getEv
FN:2165,_ZNKSt3__122__compressed_pair_elemIPNS_11__list_nodeI6one_muPvEELi0ELb0EE5__getEv
FN:2165,_ZNKSt3__122__compressed_pair_elemIP8dd_entryLi0ELb0EE5__getEv
FN:2165,_ZNKSt3__122__compressed_pair_elemIP11Ein_entriesLi0ELb0EE5__getEv
FN:2165,_ZNKSt3__122__compressed_pair_elemIPNS_11__list_nodeI18cm_Legendre_vectorPvEELi0ELb0EE5__getEv
FN:2165,_ZNKSt3__122__compressed_pair_elemIPNS_11__list_nodeI21cumulative_prob_entryPvEELi0ELb0EE5__getEv
FN:2165,_ZNKSt3__122__compressed_pair_elemIPNS_11__list_nodeI7ss_linkPvEELi0ELb0EE5__getEv
FN:2165,_ZNKSt3__122__compressed_pair_elemIPNS_11__list_nodeI15Vcm_quadBox_HitPvEELi0ELb0EE5__getEv
FN:2165,_ZNKSt3__122__compressed_pair_elemImLi0ELb0EE5__getEv
FN:2165,_ZNKSt3__122__compressed_pair_elemIPNS_12basic_stringIcNS_11char_traitsIcEENS_9allocatorIcEEEELi0ELb0EE5__getEv
FN:2165,_ZNKSt3__122__compressed_pair_elemIPNS_11__list_nodeIN6quad_F12one_intervalEPvEELi0ELb0EE5__getEv
FN:2196,_ZNSt3__122__compressed_pair_elemINS_9allocatorINS_11__list_nodeIN4cmDD8one_EoutEPvEEEELi1ELb1EEC2Ev
FN:2196,_ZNSt3__122__compressed_pair_elemINS_9allocatorI11Ein_entriesEELi1ELb1EEC2Ev
FN:2196,_ZNSt3__122__compressed_pair_elemINS_9allocatorI11Ein_Eta_HitEELi1ELb1EEC2Ev
FN:2196,_ZNSt3__122__compressed_pair_elemINS_9allocatorINS_11__list_nodeIdPvEEEELi1ELb1EEC2Ev
FN:2196,_ZNSt3__122__compressed_pair_elemINS_9allocatorINS_11__list_nodeI14one_joint_distPvEEEELi1ELb1EEC2Ev
FN:2196,_ZNSt3__122__compressed_pair_elemINS_9allocatorINS_11__list_nodeI11coef_vectorPvEEEELi1ELb1EEC2Ev
FN:2196,_ZNSt3__122__compressed_pair_elemINS_9allocatorINS_11__list_nodeI15Vcm_quadBox_HitPvEEEELi1ELb1EEC2Ev
FN:2196,_ZNSt3__122__compressed_pair_elemINS_9allocatorINS_11__list_nodeI13weight_vectorPvEEEELi1ELb1EEC2Ev
FN:2196,_ZNSt3__122__compressed_pair_elemINS_9allocatorINS_11__list_nodeI9dd_vectorPvEEEELi1ELb1EEC2Ev
FN:2196,_ZNSt3__122__compressed_pair_elemINS_9allocatorINS_11__list_nodeI21cumulative_prob_entryPvEEEELi1ELb1EEC2Ev
FN:2196,_ZNSt3__122__compressed_pair_elemINS_9allocatorINS_11__list_nodeI18cm_Legendre_vectorPvEEEELi1ELb1EEC2Ev
FN:2196,_ZNSt3__122__compressed_pair_elemINS_9allocatorI9Ein_entryEELi1ELb1EEC2Ev
FN:2196,_ZNSt3__122__compressed_pair_elemINS_9allocatorIdEELi1ELb1EEC2Ev
FN:2196,_ZNSt3__122__compressed_pair_elemINS_9allocatorINS_11__list_nodeI14Legendre_coefsPvEEEELi1ELb1EEC2Ev
FN:2196,_ZNSt3__122__compressed_pair_elemINS_9allocatorI8dd_entryEELi1ELb1EEC2Ev
FN:2196,_ZNSt3__122__compressed_pair_elemINS_9allocatorINS_11__list_nodeIN6quad_F12one_intervalEPvEEEELi1ELb1EEC2Ev
FN:2196,_ZNSt3__122__compressed_pair_elemINS_9allocatorINS_11__list_nodeI12Eprob_vectorPvEEEELi1ELb1EEC2Ev
FN:2196,_ZNSt3__122__compressed_pair_elemINS_9allocatorINS_11__list_nodeI24standard_Legendre_vectorPvEEEELi1ELb1EEC2Ev
FN:2196,_ZNSt3__122__compressed_pair_elemINS_9allocatorINS_11__list_nodeIN4cmDD14one_joint_distEPvEEEELi1ELb1EEC2Ev
FN:2196,_ZNSt3__122__compressed_pair_elemINS_9allocatorINS_11__list_nodeI7ss_linkPvEEEELi1ELb1EEC2Ev
FN:2196,_ZNSt3__122__compressed_pair_elemINS_9allocatorINS_11__list_nodeI15Kalbach_one_EinPvEEEELi1ELb1EEC2Ev
FN:2196,_ZNSt3__122__compressed_pair_elemINS_9allocatorINS_11__list_nodeI15Boundary_cornerPvEEEELi1ELb1EEC2Ev
FN:2196,_ZNSt3__122__compressed_pair_elemINS_9allocatorINS_11__list_nodeI6one_muPvEEEELi1ELb1EEC2Ev
FN:2196,_ZNSt3__122__compressed_pair_elemINS_9allocatorINS_12basic_stringIcNS_11char_traitsIcEENS1_IcEEEEEELi1ELb1EEC2Ev
FN:2196,_ZNSt3__122__compressed_pair_elemINS_9allocatorINS_11__list_nodeI11Ein_Eta_HitPvEEEELi1ELb1EEC2Ev
FN:2196,_ZNSt3__122__compressed_pair_elemINS_9allocatorIcEELi1ELb1EEC2Ev
FN:2196,_ZNSt3__122__compressed_pair_elemINS_9allocatorINS_11__list_nodeI13min_Eout_infoPvEEEELi1ELb1EEC2Ev
FN:2198,_ZNSt3__122__compressed_pair_elemINS_9allocatorINS_11__list_nodeIN4cmDD8one_EoutEPvEEEELi1ELb1EEC2ES7_
FN:2198,_ZNSt3__122__compressed_pair_elemINS_9allocatorINS_11__list_nodeI21cumulative_prob_entryPvEEEELi1ELb1EEC2ES6_
FN:2198,_ZNSt3__122__compressed_pair_elemINS_9allocatorINS_11__list_nodeI6one_muPvEEEELi1ELb1EEC2ES6_
FN:2198,_ZNSt3__122__compressed_pair_elemINS_9allocatorIcEELi1ELb1EEC2ES2_
FN:2198,_ZNSt3__122__compressed_pair_elemINS_9allocatorINS_11__list_nodeI14Legendre_coefsPvEEEELi1ELb1EEC2ES6_
FN:2202,_ZNSt3__122__compressed_pair_elemINS_9allocatorI9Ein_entryEELi1ELb1EE5__getEv
FN:2202,_ZNSt3__122__compressed_pair_elemINS_9allocatorINS_11__list_nodeI7ss_linkPvEEEELi1ELb1EE5__getEv
FN:2202,_ZNSt3__122__compressed_pair_elemINS_9allocatorINS_11__list_nodeI9dd_vectorPvEEEELi1ELb1EE5__getEv
FN:2202,_ZNSt3__122__compressed_pair_elemINS_9allocatorINS_11__list_nodeIN6quad_F12one_intervalEPvEEEELi1ELb1EE5__getEv
FN:2202,_ZNSt3__122__compressed_pair_elemINS_9allocatorINS_11__list_nodeI15Kalbach_one_EinPvEEEELi1ELb1EE5__getEv
FN:2202,_ZNSt3__122__compressed_pair_elemINS_9allocatorINS_11__list_nodeI21cumulative_prob_entryPvEEEELi1ELb1EE5__getEv
FN:2202,_ZNSt3__122__compressed_pair_elemINS_9allocatorINS_11__list_nodeI6one_muPvEEEELi1ELb1EE5__getEv
FN:2202,_ZNSt3__122__compressed_pair_elemINS_9allocatorINS_11__list_nodeI14Legendre_coefsPvEEEELi1ELb1EE5__getEv
FN:2202,_ZNSt3__122__compressed_pair_elemINS_9allocatorINS_11__list_nodeI14one_joint_distPvEEEELi1ELb1EE5__getEv
FN:2202,_ZNSt3__122__compressed_pair_elemINS_9allocatorINS_11__list_nodeI13min_Eout_infoPvEEEELi1ELb1EE5__getEv
FN:2202,_ZNSt3__122__compressed_pair_elemINS_9allocatorINS_11__list_nodeIN4cmDD8one_EoutEPvEEEELi1ELb1EE5__getEv
FN:2202,_ZNSt3__122__compressed_pair_elemINS_9allocatorINS_11__list_nodeI11coef_vectorPvEEEELi1ELb1EE5__getEv
FN:2202,_ZNSt3__122__compressed_pair_elemINS_9allocatorINS_11__list_nodeI24standard_Legendre_vectorPvEEEELi1ELb1EE5__getEv
FN:2202,_ZNSt3__122__compressed_pair_elemINS_9allocatorIdEELi1ELb1EE5__getEv
FN:2202,_ZNSt3__122__compressed_pair_elemINS_9allocatorIcEELi1ELb1EE5__getEv
FN:2202,_ZNSt3__122__compressed_pair_elemINS_9allocatorI11Ein_Eta_HitEELi1ELb1EE5__getEv
FN:2202,_ZNSt3__122__compressed_pair_elemINS_9allocatorINS_11__list_nodeI11Ein_Eta_HitPvEEEELi1ELb1EE5__getEv
FN:2202,_ZNSt3__122__compressed_pair_elemINS_9allocatorINS_11__list_nodeIN4cmDD14one_joint_distEPvEEEELi1ELb1EE5__getEv
FN:2202,_ZNSt3__122__compressed_pair_elemINS_9allocatorINS_11__list_nodeI18cm_Legendre_vectorPvEEEELi1ELb1EE5__getEv
FN:2202,_ZNSt3__122__compressed_pair_elemINS_9allocatorI8dd_entryEELi1ELb1EE5__getEv
FN:2202,_ZNSt3__122__compressed_pair_elemINS_9allocatorINS_11__list_nodeI15Vcm_quadBox_HitPvEEEELi1ELb1EE5__getEv
FN:2202,_ZNSt3__122__compressed_pair_elemINS_9allocatorINS_12basic_stringIcNS_11char_traitsIcEENS1_IcEEEEEELi1ELb1EE5__getEv
FN:2202,_ZNSt3__122__compressed_pair_elemINS_9allocatorI11Ein_entriesEELi1ELb1EE5__getEv
FN:2202,_ZNSt3__122__compressed_pair_elemINS_9allocatorINS_11__list_nodeI13weight_vectorPvEEEELi1ELb1EE5__getEv
FN:2202,_ZNSt3__122__compressed_pair_elemINS_9allocatorINS_11__list_nodeI15Boundary_cornerPvEEEELi1ELb1EE5__getEv
FN:2202,_ZNSt3__122__compressed_pair_elemINS_9allocatorINS_11__list_nodeIdPvEEEELi1ELb1EE5__getEv
FN:2202,_ZNSt3__122__compressed_pair_elemINS_9allocatorINS_11__list_nodeI12Eprob_vectorPvEEEELi1ELb1EE5__getEv
FN:2204,_ZNKSt3__122__compressed_pair_elemINS_9allocatorI11Ein_entriesEELi1ELb1EE5__getEv
FN:2204,_ZNKSt3__122__compressed_pair_elemINS_9allocatorI9Ein_entryEELi1ELb1EE5__getEv
FN:2204,_ZNKSt3__122__compressed_pair_elemINS_9allocatorIcEELi1ELb1EE5__getEv
FN:2204,_ZNKSt3__122__compressed_pair_elemINS_9allocatorINS_11__list_nodeIN4cmDD8one_EoutEPvEEEELi1ELb1EE5__getEv
FN:2204,_ZNKSt3__122__compressed_pair_elemINS_9allocatorINS_11__list_nodeI21cumulative_prob_entryPvEEEELi1ELb1EE5__getEv
FN:2204,_ZNKSt3__122__compressed_pair_elemINS_9allocatorINS_11__list_nodeI14Legendre_coefsPvEEEELi1ELb1EE5__getEv
FN:2204,_ZNKSt3__122__compressed_pair_elemINS_9allocatorINS_11__list_nodeI6one_muPvEEEELi1ELb1EE5__getEv
FN:2204,_ZNKSt3__122__compressed_pair_elemINS_9allocatorIdEELi1ELb1EE5__getEv
FN:2204,_ZNKSt3__122__compressed_pair_elemINS_9allocatorI11Ein_Eta_HitEELi1ELb1EE5__getEv
FN:2204,_ZNKSt3__122__compressed_pair_elemINS_9allocatorI8dd_entryEELi1ELb1EE5__getEv
FN:2264,_ZNSt3__117__compressed_pairINS_12basic_stringIcNS_11char_traitsIcEENS_9allocatorIcEEE5__repES5_EC2Ev
FN:2264,_ZNSt3__117__compressed_pairINS_12basic_stringIcNS_11char_traitsIcEENS_9allocatorIcEEE5__repES5_EC1Ev
FN:2267,_ZNSt3__117__compressed_pairImNS_9allocatorINS_11__list_nodeI13weight_vectorPvEEEEEC1Em
FN:2267,_ZNSt3__117__compressed_pairImNS_9allocatorINS_11__list_nodeI13weight_vectorPvEEEEEC2Em
FN:2267,_ZNSt3__117__compressed_pairImNS_9allocatorINS_11__list_nodeI14one_joint_distPvEEEEEC1Em
FN:2267,_ZNSt3__117__compressed_pairImNS_9allocatorINS_11__list_nodeIN4cmDD14one_joint_distEPvEEEEEC1Em
FN:2267,_ZNSt3__117__compressed_pairImNS_9allocatorINS_11__list_nodeI12Eprob_vectorPvEEEEEC1Em
FN:2267,_ZNSt3__117__compressed_pairImNS_9allocatorINS_11__list_nodeI13min_Eout_infoPvEEEEEC1Em
FN:2267,_ZNSt3__117__compressed_pairIP11Ein_entriesNS_9allocatorIS1_EEEC2ES2_
FN:2267,_ZNSt3__117__compressed_pairIP8dd_entryNS_9allocatorIS1_EEEC1ES2_
FN:2267,_ZNSt3__117__compressed_pairIP11Ein_Eta_HitNS_9allocatorIS1_EEEC1ES2_
FN:2267,_ZNSt3__117__compressed_pairImNS_9allocatorINS_11__list_nodeI15Vcm_quadBox_HitPvEEEEEC1Em
FN:2267,_ZNSt3__117__compressed_pairImNS_9allocatorINS_11__list_nodeI9dd_vectorPvEEEEEC2Em
FN:2267,_ZNSt3__117__compressed_pairIPdNS_9allocatorIdEEEC2ES1_
FN:2267,_ZNSt3__117__compressed_pairImNS_9allocatorINS_11__list_nodeI18cm_Legendre_vectorPvEEEEEC1Em
FN:2267,_ZNSt3__117__compressed_pairImNS_9allocatorINS_11__list_nodeI14Legendre_coefsPvEEEEEC1Em
FN:2267,_ZNSt3__117__compressed_pairImNS_9allocatorINS_11__list_nodeI7ss_linkPvEEEEEC1Em
FN:2267,_ZNSt3__117__compressed_pairImNS_9allocatorINS_11__list_nodeI9dd_vectorPvEEEEEC1Em
FN:2267,_ZNSt3__117__compressed_pairIPNS_12basic_stringIcNS_11char_traitsIcEENS_9allocatorIcEEEENS4_IS6_EEEC2ES7_
FN:2267,_ZNSt3__117__compressed_pairImNS_9allocatorINS_11__list_nodeI18cm_Legendre_vectorPvEEEEEC2Em
FN:2267,_ZNSt3__117__compressed_pairImNS_9allocatorINS_11__list_nodeI15Kalbach_one_EinPvEEEEEC1Em
FN:2267,_ZNSt3__117__compressed_pairImNS_9allocatorINS_11__list_nodeI14Legendre_coefsPvEEEEEC2Em
FN:2267,_ZNSt3__117__compressed_pairImNS_9allocatorINS_11__list_nodeI11coef_vectorPvEEEEEC1Em
FN:2267,_ZNSt3__117__compressed_pairIP9Ein_entryNS_9allocatorIS1_EEEC1ES2_
FN:2267,_ZNSt3__117__compressed_pairImNS_9allocatorINS_11__list_nodeI13min_Eout_infoPvEEEEEC2Em
FN:2267,_ZNSt3__117__compressed_pairImNS_9allocatorINS_11__list_nodeI21cumulative_prob_entryPvEEEEEC2Em
FN:2267,_ZNSt3__117__compressed_pairImNS_9allocatorINS_11__list_nodeIN4cmDD14one_joint_distEPvEEEEEC2Em
FN:2267,_ZNSt3__117__compressed_pairImNS_9allocatorINS_11__list_nodeI14one_joint_distPvEEEEEC2Em
FN:2267,_ZNSt3__117__compressed_pairImNS_9allocatorINS_11__list_nodeI6one_muPvEEEEEC2Em
FN:2267,_ZNSt3__117__compressed_pairIP8dd_entryNS_9allocatorIS1_EEEC2ES2_
FN:2267,_ZNSt3__117__compressed_pairIPdNS_9allocatorIdEEEC1ES1_
FN:2267,_ZNSt3__117__compressed_pairImNS_9allocatorINS_11__list_nodeIN6quad_F12one_intervalEPvEEEEEC2Em
FN:2267,_ZNSt3__117__compressed_pairIP9Ein_entryNS_9allocatorIS1_EEEC2ES2_
FN:2267,_ZNSt3__117__compressed_pairImNS_9allocatorINS_11__list_nodeI21cumulative_prob_entryPvEEEEEC1Em
FN:2267,_ZNSt3__117__compressed_pairImNS_9allocatorINS_11__list_nodeI7ss_linkPvEEEEEC2Em
FN:2267,_ZNSt3__117__compressed_pairImNS_9allocatorINS_11__list_nodeIN4cmDD8one_EoutEPvEEEEEC1Em
FN:2267,_ZNSt3__117__compressed_pairImNS_9allocatorINS_11__list_nodeI11Ein_Eta_HitPvEEEEEC2Em
FN:2267,_ZNSt3__117__compressed_pairIP11Ein_Eta_HitNS_9allocatorIS1_EEEC2ES2_
FN:2267,_ZNSt3__117__compressed_pairImNS_9allocatorINS_11__list_nodeI6one_muPvEEEEEC1Em
FN:2267,_ZNSt3__117__compressed_pairImNS_9allocatorINS_11__list_nodeI15Boundary_cornerPvEEEEEC1Em
FN:2267,_ZNSt3__117__compressed_pairImNS_9allocatorINS_11__list_nodeI15Kalbach_one_EinPvEEEEEC2Em
FN:2267,_ZNSt3__117__compressed_pairIP11Ein_entriesNS_9allocatorIS1_EEEC1ES2_
FN:2267,_ZNSt3__117__compressed_pairImNS_9allocatorINS_11__list_nodeI12Eprob_vectorPvEEEEEC2Em
FN:2267,_ZNSt3__117__compressed_pairImNS_9allocatorINS_11__list_nodeIN4cmDD8one_EoutEPvEEEEEC2Em
FN:2267,_ZNSt3__117__compressed_pairImNS_9allocatorINS_11__list_nodeIN6quad_F12one_intervalEPvEEEEEC1Em
FN:2267,_ZNSt3__117__compressed_pairImNS_9allocatorINS_11__list_nodeI24standard_Legendre_vectorPvEEEEEC1Em
FN:2267,_ZNSt3__117__compressed_pairImNS_9allocatorINS_11__list_nodeI15Boundary_cornerPvEEEEEC2Em
FN:2267,_ZNSt3__117__compressed_pairImNS_9allocatorINS_11__list_nodeI15Vcm_quadBox_HitPvEEEEEC2Em
FN:2267,_ZNSt3__117__compressed_pairImNS_9allocatorINS_11__list_nodeIdPvEEEEEC2Em
FN:2267,_ZNSt3__117__compressed_pairIPNS_12basic_stringIcNS_11char_traitsIcEENS_9allocatorIcEEEENS4_IS6_EEEC1ES7_
FN:2267,_ZNSt3__117__compressed_pairImNS_9allocatorINS_11__list_nodeI24standard_Legendre_vectorPvEEEEEC2Em
FN:2267,_ZNSt3__117__compressed_pairImNS_9allocatorINS_11__list_nodeI11Ein_Eta_HitPvEEEEEC1Em
FN:2267,_ZNSt3__117__compressed_pairImNS_9allocatorINS_11__list_nodeI11coef_vectorPvEEEEEC2Em
FN:2267,_ZNSt3__117__compressed_pairImNS_9allocatorINS_11__list_nodeIdPvEEEEEC1Em
FN:2270,_ZNSt3__117__compressed_pairINS_12basic_stringIcNS_11char_traitsIcEENS_9allocatorIcEEE5__repES5_EC1ENS_12__second_tagES5_
FN:2270,_ZNSt3__117__compressed_pairINS_12basic_stringIcNS_11char_traitsIcEENS_9allocatorIcEEE5__repES5_EC2ENS_12__second_tagES5_
FN:2274,_ZNSt3__117__compressed_pairIPNS_11__list_nodeIN4cmDD8one_EoutEPvEENS_22__allocator_destructorINS_9allocatorIS5_EEEEEC2ES6_SA_
FN:2274,_ZNSt3__117__compressed_pairIPNS_11__list_nodeI14Legendre_coefsPvEENS_22__allocator_destructorINS_9allocatorIS4_EEEEEC2ES5_S9_
FN:2274,_ZNSt3__117__compressed_pairIPNS_11__list_nodeI13weight_vectorPvEENS_22__allocator_destructorINS_9allocatorIS4_EEEEEC2ES5_S9_
FN:2274,_ZNSt3__117__compressed_pairIPNS_11__list_nodeI12Eprob_vectorPvEENS_22__allocator_destructorINS_9allocatorIS4_EEEEEC1ES5_S9_
FN:2274,_ZNSt3__117__compressed_pairIPNS_11__list_nodeI21cumulative_prob_entryPvEENS_22__allocator_destructorINS_9allocatorIS4_EEEEEC2ES5_S9_
FN:2274,_ZNSt3__117__compressed_pairIPNS_11__list_nodeIN6quad_F12one_intervalEPvEENS_22__allocator_destructorINS_9allocatorIS5_EEEEEC1ES6_SA_
FN:2274,_ZNSt3__117__compressed_pairIP11Ein_Eta_HitRNS_9allocatorIS1_EEEC2ES2_S5_
FN:2274,_ZNSt3__117__compressed_pairIPNS_11__list_nodeI9dd_vectorPvEENS_22__allocator_destructorINS_9allocatorIS4_EEEEEC1ES5_S9_
FN:2274,_ZNSt3__117__compressed_pairIPNS_11__list_nodeI24standard_Legendre_vectorPvEENS_22__allocator_destructorINS_9allocatorIS4_EEEEEC2ES5_S9_
FN:2274,_ZNSt3__117__compressed_pairIP8dd_entryRNS_9allocatorIS1_EEEC2ES2_S5_
FN:2274,_ZNSt3__117__compressed_pairIP9Ein_entryRNS_9allocatorIS1_EEEC2ES2_S5_
FN:2274,_ZNSt3__117__compressed_pairIPNS_11__list_nodeI11coef_vectorPvEENS_22__allocator_destructorINS_9allocatorIS4_EEEEEC1ES5_S9_
FN:2274,_ZNSt3__117__compressed_pairImNS_9allocatorINS_11__list_nodeI6one_muPvEEEEEC2EmS6_
FN:2274,_ZNSt3__117__compressed_pairIPNS_11__list_nodeIN4cmDD8one_EoutEPvEENS_22__allocator_destructorINS_9allocatorIS5_EEEEEC1ES6_SA_
FN:2274,_ZNSt3__117__compressed_pairIPNS_11__list_nodeI15Kalbach_one_EinPvEENS_22__allocator_destructorINS_9allocatorIS4_EEEEEC1ES5_S9_
FN:2274,_ZNSt3__117__compressed_pairIPNS_11__list_nodeI6one_muPvEENS_22__allocator_destructorINS_9allocatorIS4_EEEEEC1ES5_S9_
FN:2274,_ZNSt3__117__compressed_pairIPNS_11__list_nodeIdPvEENS_22__allocator_destructorINS_9allocatorIS3_EEEEEC2ES4_S8_
FN:2274,_ZNSt3__117__compressed_pairIP11Ein_entriesRNS_9allocatorIS1_EEEC1ES2_S5_
FN:2274,_ZNSt3__117__compressed_pairIPNS_11__list_nodeI6one_muPvEENS_22__allocator_destructorINS_9allocatorIS4_EEEEEC2ES5_S9_
FN:2274,_ZNSt3__117__compressed_pairIP7__sFILEPFiS2_EEC1ES2_S4_
FN:2274,_ZNSt3__117__compressed_pairIPNS_11__list_nodeI11coef_vectorPvEENS_22__allocator_destructorINS_9allocatorIS4_EEEEEC2ES5_S9_
FN:2274,_ZNSt3__117__compressed_pairIPNS_11__list_nodeI11Ein_Eta_HitPvEENS_22__allocator_destructorINS_9allocatorIS4_EEEEEC1ES5_S9_
FN:2274,_ZNSt3__117__compressed_pairIPNS_11__list_nodeI24standard_Legendre_vectorPvEENS_22__allocator_destructorINS_9allocatorIS4_EEEEEC1ES5_S9_
FN:2274,_ZNSt3__117__compressed_pairIPNS_11__list_nodeI15Boundary_cornerPvEENS_22__allocator_destructorINS_9allocatorIS4_EEEEEC2ES5_S9_
FN:2274,_ZNSt3__117__compressed_pairIP9Ein_entryRNS_9allocatorIS1_EEEC1ES2_S5_
FN:2274,_ZNSt3__117__compressed_pairIPNS_11__list_nodeI13weight_vectorPvEENS_22__allocator_destructorINS_9allocatorIS4_EEEEEC1ES5_S9_
FN:2274,_ZNSt3__117__compressed_pairIPNS_11__list_nodeI7ss_linkPvEENS_22__allocator_destructorINS_9allocatorIS4_EEEEEC1ES5_S9_
FN:2274,_ZNSt3__117__compressed_pairIPNS_11__list_nodeI18cm_Legendre_vectorPvEENS_22__allocator_destructorINS_9allocatorIS4_EEEEEC1ES5_S9_
FN:2274,_ZNSt3__117__compressed_pairIP11Ein_Eta_HitRNS_9allocatorIS1_EEEC1ES2_S5_
FN:2274,_ZNSt3__117__compressed_pairIPNS_11__list_nodeI15Kalbach_one_EinPvEENS_22__allocator_destructorINS_9allocatorIS4_EEEEEC2ES5_S9_
FN:2274,_ZNSt3__117__compressed_pairImNS_9allocatorINS_11__list_nodeI21cumulative_prob_entryPvEEEEEC2EmS6_
FN:2274,_ZNSt3__117__compressed_pairIP7__sFILEPFiS2_EEC2ES2_S4_
FN:2274,_ZNSt3__117__compressed_pairIPNS_11__list_nodeI21cumulative_prob_entryPvEENS_22__allocator_destructorINS_9allocatorIS4_EEEEEC1ES5_S9_
FN:2274,_ZNSt3__117__compressed_pairIPNS_11__list_nodeI13min_Eout_infoPvEENS_22__allocator_destructorINS_9allocatorIS4_EEEEEC1ES5_S9_
FN:2274,_ZNSt3__117__compressed_pairIPNS_11__list_nodeIN4cmDD14one_joint_distEPvEENS_22__allocator_destructorINS_9allocatorIS5_EEEEEC1ES6_SA_
FN:2274,_ZNSt3__117__compressed_pairIPdRNS_9allocatorIdEEEC1ES1_S4_
FN:2274,_ZNSt3__117__compressed_pairIPNS_11__list_nodeI13min_Eout_infoPvEENS_22__allocator_destructorINS_9allocatorIS4_EEEEEC2ES5_S9_
FN:2274,_ZNSt3__117__compressed_pairIPNS_11__list_nodeI18cm_Legendre_vectorPvEENS_22__allocator_destructorINS_9allocatorIS4_EEEEEC2ES5_S9_
FN:2274,_ZNSt3__117__compressed_pairIPNS_11__list_nodeI15Vcm_quadBox_HitPvEENS_22__allocator_destructorINS_9allocatorIS4_EEEEEC2ES5_S9_
FN:2274,_ZNSt3__117__compressed_pairIPNS_11__list_nodeI11Ein_Eta_HitPvEENS_22__allocator_destructorINS_9allocatorIS4_EEEEEC2ES5_S9_
FN:2274,_ZNSt3__117__compressed_pairIPdRNS_9allocatorIdEEEC2ES1_S4_
FN:2274,_ZNSt3__117__compressed_pairIPNS_11__list_nodeI14one_joint_distPvEENS_22__allocator_destructorINS_9allocatorIS4_EEEEEC1ES5_S9_
FN:2274,_ZNSt3__117__compressed_pairImNS_9allocatorINS_11__list_nodeIN4cmDD8one_EoutEPvEEEEEC1EmS7_
FN:2274,_ZNSt3__117__compressed_pairIPNS_11__list_nodeIN6quad_F12one_intervalEPvEENS_22__allocator_destructorINS_9allocatorIS5_EEEEEC2ES6_SA_
FN:2274,_ZNSt3__117__compressed_pairImNS_9allocatorINS_11__list_nodeIN4cmDD8one_EoutEPvEEEEEC2EmS7_
FN:2274,_ZNSt3__117__compressed_pairIPNS_11__list_nodeI15Boundary_cornerPvEENS_22__allocator_destructorINS_9allocatorIS4_EEEEEC1ES5_S9_
FN:2274,_ZNSt3__117__compressed_pairImNS_9allocatorINS_11__list_nodeI14Legendre_coefsPvEEEEEC2EmS6_
FN:2274,_ZNSt3__117__compressed_pairImNS_9allocatorINS_11__list_nodeI6one_muPvEEEEEC1EmS6_
FN:2274,_ZNSt3__117__compressed_pairIPNS_11__list_nodeI9dd_vectorPvEENS_22__allocator_destructorINS_9allocatorIS4_EEEEEC2ES5_S9_
FN:2274,_ZNSt3__117__compressed_pairIPNS_11__list_nodeI12Eprob_vectorPvEENS_22__allocator_destructorINS_9allocatorIS4_EEEEEC2ES5_S9_
FN:2274,_ZNSt3__117__compressed_pairIPNS_11__list_nodeI14one_joint_distPvEENS_22__allocator_destructorINS_9allocatorIS4_EEEEEC2ES5_S9_
FN:2274,_ZNSt3__117__compressed_pairIPNS_11__list_nodeI7ss_linkPvEENS_22__allocator_destructorINS_9allocatorIS4_EEEEEC2ES5_S9_
FN:2274,_ZNSt3__117__compressed_pairIP11Ein_entriesRNS_9allocatorIS1_EEEC2ES2_S5_
FN:2274,_ZNSt3__117__compressed_pairIP8dd_entryRNS_9allocatorIS1_EEEC1ES2_S5_
FN:2274,_ZNSt3__117__compressed_pairImNS_9allocatorINS_11__list_nodeI14Legendre_coefsPvEEEEEC1EmS6_
FN:2274,_ZNSt3__117__compressed_pairImNS_9allocatorINS_11__list_nodeI21cumulative_prob_entryPvEEEEEC1EmS6_
FN:2274,_ZNSt3__117__compressed_pairIPNS_11__list_nodeI14Legendre_coefsPvEENS_22__allocator_destructorINS_9allocatorIS4_EEEEEC1ES5_S9_
FN:2274,_ZNSt3__117__compressed_pairIPNS_11__list_nodeIdPvEENS_22__allocator_destructorINS_9allocatorIS3_EEEEEC1ES4_S8_
FN:2274,_ZNSt3__117__compressed_pairIPNS_11__list_nodeI15Vcm_quadBox_HitPvEENS_22__allocator_destructorINS_9allocatorIS4_EEEEEC1ES5_S9_
FN:2274,_ZNSt3__117__compressed_pairIPNS_11__list_nodeIN4cmDD14one_joint_distEPvEENS_22__allocator_destructorINS_9allocatorIS5_EEEEEC2ES6_SA_
FN:2279,_ZNSt3__117__compressed_pairImNS_9allocatorINS_11__list_nodeI24standard_Legendre_vectorPvEEEEE5firstEv
FN:2279,_ZNSt3__117__compressed_pairIPNS_11__list_nodeI15Kalbach_one_EinPvEENS_22__allocator_destructorINS_9allocatorIS4_EEEEE5firstEv
FN:2279,_ZNSt3__117__compressed_pairImNS_9allocatorINS_11__list_nodeI15Vcm_quadBox_HitPvEEEEE5firstEv
FN:2279,_ZNSt3__117__compressed_pairImNS_9allocatorINS_11__list_nodeI11coef_vectorPvEEEEE5firstEv
FN:2279,_ZNSt3__117__compressed_pairIPNS_11__list_nodeI7ss_linkPvEENS_22__allocator_destructorINS_9allocatorIS4_EEEEE5firstEv
FN:2279,_ZNSt3__117__compressed_pairImNS_9allocatorINS_11__list_nodeI14Legendre_coefsPvEEEEE5firstEv
FN:2279,_ZNSt3__117__compressed_pairImNS_9allocatorINS_11__list_nodeIN4cmDD14one_joint_distEPvEEEEE5firstEv
FN:2279,_ZNSt3__117__compressed_pairIPNS_11__list_nodeIN4cmDD14one_joint_distEPvEENS_22__allocator_destructorINS_9allocatorIS5_EEEEE5firstEv
FN:2279,_ZNSt3__117__compressed_pairImNS_9allocatorINS_11__list_nodeI7ss_linkPvEEEEE5firstEv
FN:2279,_ZNSt3__117__compressed_pairImNS_9allocatorINS_11__list_nodeIdPvEEEEE5firstEv
FN:2279,_ZNSt3__117__compressed_pairINS_12basic_stringIcNS_11char_traitsIcEENS_9allocatorIcEEE5__repES5_E5firstEv
FN:2279,_ZNSt3__117__compressed_pairIP11Ein_Eta_HitRNS_9allocatorIS1_EEE5firstEv
FN:2279,_ZNSt3__117__compressed_pairImNS_9allocatorINS_11__list_nodeI21cumulative_prob_entryPvEEEEE5firstEv
FN:2279,_ZNSt3__117__compressed_pairIPNS_11__list_nodeI11Ein_Eta_HitPvEENS_22__allocator_destructorINS_9allocatorIS4_EEEEE5firstEv
FN:2279,_ZNSt3__117__compressed_pairIP8dd_entryRNS_9allocatorIS1_EEE5firstEv
FN:2279,_ZNSt3__117__compressed_pairImNS_9allocatorINS_11__list_nodeI9dd_vectorPvEEEEE5firstEv
FN:2279,_ZNSt3__117__compressed_pairImNS_9allocatorINS_11__list_nodeIN6quad_F12one_intervalEPvEEEEE5firstEv
FN:2279,_ZNSt3__117__compressed_pairIPNS_11__list_nodeI14Legendre_coefsPvEENS_22__allocator_destructorINS_9allocatorIS4_EEEEE5firstEv
FN:2279,_ZNSt3__117__compressed_pairIP11Ein_Eta_HitNS_9allocatorIS1_EEE5firstEv
FN:2279,_ZNSt3__117__compressed_pairIPNS_11__list_nodeI18cm_Legendre_vectorPvEENS_22__allocator_destructorINS_9allocatorIS4_EEEEE5firstEv
FN:2279,_ZNSt3__117__compressed_pairIPNS_11__list_nodeI24standard_Legendre_vectorPvEENS_22__allocator_destructorINS_9allocatorIS4_EEEEE5firstEv
FN:2279,_ZNSt3__117__compressed_pairIPNS_11__list_nodeIN6quad_F12one_intervalEPvEENS_22__allocator_destructorINS_9allocatorIS5_EEEEE5firstEv
FN:2279,_ZNSt3__117__compressed_pairImNS_9allocatorINS_11__list_nodeI15Boundary_cornerPvEEEEE5firstEv
FN:2279,_ZNSt3__117__compressed_pairIPdRNS_9allocatorIdEEE5firstEv
FN:2279,_ZNSt3__117__compressed_pairIP7__sFILEPFiS2_EE5firstEv
FN:2279,_ZNSt3__117__compressed_pairIPNS_11__list_nodeI11coef_vectorPvEENS_22__allocator_destructorINS_9allocatorIS4_EEEEE5firstEv
FN:2279,_ZNSt3__117__compressed_pairIPNS_11__list_nodeI9dd_vectorPvEENS_22__allocator_destructorINS_9allocatorIS4_EEEEE5firstEv
FN:2279,_ZNSt3__117__compressed_pairIPNS_11__list_nodeIN4cmDD8one_EoutEPvEENS_22__allocator_destructorINS_9allocatorIS5_EEEEE5firstEv
FN:2279,_ZNSt3__117__compressed_pairIPNS_11__list_nodeI6one_muPvEENS_22__allocator_destructorINS_9allocatorIS4_EEEEE5firstEv
FN:2279,_ZNSt3__117__compressed_pairIP9Ein_entryNS_9allocatorIS1_EEE5firstEv
FN:2279,_ZNSt3__117__compressed_pairIPNS_11__list_nodeI21cumulative_prob_entryPvEENS_22__allocator_destructorINS_9allocatorIS4_EEEEE5firstEv
FN:2279,_ZNSt3__117__compressed_pairImNS_9allocatorINS_11__list_nodeI12Eprob_vectorPvEEEEE5firstEv
FN:2279,_ZNSt3__117__compressed_pairIPNS_11__list_nodeI13min_Eout_infoPvEENS_22__allocator_destructorINS_9allocatorIS4_EEEEE5firstEv
FN:2279,_ZNSt3__117__compressed_pairIPNS_11__list_nodeI15Boundary_cornerPvEENS_22__allocator_destructorINS_9allocatorIS4_EEEEE5firstEv
FN:2279,_ZNSt3__117__compressed_pairIPNS_11__list_nodeI15Vcm_quadBox_HitPvEENS_22__allocator_destructorINS_9allocatorIS4_EEEEE5firstEv
FN:2279,_ZNSt3__117__compressed_pairIPdNS_9allocatorIdEEE5firstEv
FN:2279,_ZNSt3__117__compressed_pairImNS_9allocatorINS_11__list_nodeI14one_joint_distPvEEEEE5firstEv
FN:2279,_ZNSt3__117__compressed_pairImNS_9allocatorINS_11__list_nodeI15Kalbach_one_EinPvEEEEE5firstEv
FN:2279,_ZNSt3__117__compressed_pairIP11Ein_entriesNS_9allocatorIS1_EEE5firstEv
FN:2279,_ZNSt3__117__compressed_pairImNS_9allocatorINS_11__list_nodeI18cm_Legendre_vectorPvEEEEE5firstEv
FN:2279,_ZNSt3__117__compressed_pairImNS_9allocatorINS_11__list_nodeI13min_Eout_infoPvEEEEE5firstEv
FN:2279,_ZNSt3__117__compressed_pairIPNS_11__list_nodeIdPvEENS_22__allocator_destructorINS_9allocatorIS3_EEEEE5firstEv
FN:2279,_ZNSt3__117__compressed_pairImNS_9allocatorINS_11__list_nodeI6one_muPvEEEEE5firstEv
FN:2279,_ZNSt3__117__compressed_pairIP11Ein_entriesRNS_9allocatorIS1_EEE5firstEv
FN:2279,_ZNSt3__117__compressed_pairIP9Ein_entryRNS_9allocatorIS1_EEE5firstEv
FN:2279,_ZNSt3__117__compressed_pairImNS_9allocatorINS_11__list_nodeIN4cmDD8one_EoutEPvEEEEE5firstEv
FN:2279,_ZNSt3__117__compressed_pairImNS_9allocatorINS_11__list_nodeI11Ein_Eta_HitPvEEEEE5firstEv
FN:2279,_ZNSt3__117__compressed_pairIP8dd_entryNS_9allocatorIS1_EEE5firstEv
FN:2279,_ZNSt3__117__compressed_pairIPNS_11__list_nodeI13weight_vectorPvEENS_22__allocator_destructorINS_9allocatorIS4_EEEEE5firstEv
FN:2279,_ZNSt3__117__compressed_pairIPNS_11__list_nodeI12Eprob_vectorPvEENS_22__allocator_destructorINS_9allocatorIS4_EEEEE5firstEv
FN:2279,_ZNSt3__117__compressed_pairImNS_9allocatorINS_11__list_nodeI13weight_vectorPvEEEEE5firstEv
FN:2279,_ZNSt3__117__compressed_pairIPNS_11__list_nodeI14one_joint_distPvEENS_22__allocator_destructorINS_9allocatorIS4_EEEEE5firstEv
FN:2284,_ZNKSt3__117__compressed_pairIP11Ein_entriesNS_9allocatorIS1_EEE5firstEv
FN:2284,_ZNKSt3__117__compressed_pairIPNS_11__list_nodeI15Kalbach_one_EinPvEENS_22__allocator_destructorINS_9allocatorIS4_EEEEE5firstEv
FN:2284,_ZNKSt3__117__compressed_pairIP8dd_entryNS_9allocatorIS1_EEE5firstEv
FN:2284,_ZNKSt3__117__compressed_pairIPdNS_9allocatorIdEEE5firstEv
FN:2284,_ZNKSt3__117__compressed_pairIPNS_11__list_nodeI6one_muPvEENS_22__allocator_destructorINS_9allocatorIS4_EEEEE5firstEv
FN:2284,_ZNKSt3__117__compressed_pairIP9Ein_entryRNS_9allocatorIS1_EEE5firstEv
FN:2284,_ZNKSt3__117__compressed_pairIPNS_11__list_nodeIN6quad_F12one_intervalEPvEENS_22__allocator_destructorINS_9allocatorIS5_EEEEE5firstEv
FN:2284,_ZNKSt3__117__compressed_pairIPNS_11__list_nodeIN4cmDD14one_joint_distEPvEENS_22__allocator_destructorINS_9allocatorIS5_EEEEE5firstEv
FN:2284,_ZNKSt3__117__compressed_pairIPNS_11__list_nodeI9dd_vectorPvEENS_22__allocator_destructorINS_9allocatorIS4_EEEEE5firstEv
FN:2284,_ZNKSt3__117__compressed_pairImNS_9allocatorINS_11__list_nodeI21cumulative_prob_entryPvEEEEE5firstEv
FN:2284,_ZNKSt3__117__compressed_pairImNS_9allocatorINS_11__list_nodeIN4cmDD8one_EoutEPvEEEEE5firstEv
FN:2284,_ZNKSt3__117__compressed_pairImNS_9allocatorINS_11__list_nodeI24standard_Legendre_vectorPvEEEEE5firstEv
FN:2284,_ZNKSt3__117__compressed_pairIPNS_11__list_nodeI15Vcm_quadBox_HitPvEENS_22__allocator_destructorINS_9allocatorIS4_EEEEE5firstEv
FN:2284,_ZNKSt3__117__compressed_pairImNS_9allocatorINS_11__list_nodeI14Legendre_coefsPvEEEEE5firstEv
FN:2284,_ZNKSt3__117__compressed_pairImNS_9allocatorINS_11__list_nodeI15Boundary_cornerPvEEEEE5firstEv
FN:2284,_ZNKSt3__117__compressed_pairImNS_9allocatorINS_11__list_nodeI14one_joint_distPvEEEEE5firstEv
FN:2284,_ZNKSt3__117__compressed_pairIPNS_11__list_nodeI15Boundary_cornerPvEENS_22__allocator_destructorINS_9allocatorIS4_EEEEE5firstEv
FN:2284,_ZNKSt3__117__compressed_pairIPNS_11__list_nodeI11Ein_Eta_HitPvEENS_22__allocator_destructorINS_9allocatorIS4_EEEEE5firstEv
FN:2284,_ZNKSt3__117__compressed_pairImNS_9allocatorINS_11__list_nodeI6one_muPvEEEEE5firstEv
FN:2284,_ZNKSt3__117__compressed_pairImNS_9allocatorINS_11__list_nodeIN4cmDD14one_joint_distEPvEEEEE5firstEv
FN:2284,_ZNKSt3__117__compressed_pairImNS_9allocatorINS_11__list_nodeI12Eprob_vectorPvEEEEE5firstEv
FN:2284,_ZNKSt3__117__compressed_pairIPNS_11__list_nodeI11coef_vectorPvEENS_22__allocator_destructorINS_9allocatorIS4_EEEEE5firstEv
FN:2284,_ZNKSt3__117__compressed_pairImNS_9allocatorINS_11__list_nodeIN6quad_F12one_intervalEPvEEEEE5firstEv
FN:2284,_ZNKSt3__117__compressed_pairIPNS_11__list_nodeIdPvEENS_22__allocator_destructorINS_9allocatorIS3_EEEEE5firstEv
FN:2284,_ZNKSt3__117__compressed_pairIPNS_11__list_nodeIN4cmDD8one_EoutEPvEENS_22__allocator_destructorINS_9allocatorIS5_EEEEE5firstEv
FN:2284,_ZNKSt3__117__compressed_pairIPNS_11__list_nodeI13weight_vectorPvEENS_22__allocator_destructorINS_9allocatorIS4_EEEEE5firstEv
FN:2284,_ZNKSt3__117__compressed_pairIP11Ein_Eta_HitRNS_9allocatorIS1_EEE5firstEv
FN:2284,_ZNKSt3__117__compressed_pairIPNS_11__list_nodeI24standard_Legendre_vectorPvEENS_22__allocator_destructorINS_9allocatorIS4_EEEEE5firstEv
FN:2284,_ZNKSt3__117__compressed_pairIP8dd_entryRNS_9allocatorIS1_EEE5firstEv
FN:2284,_ZNKSt3__117__compressed_pairImNS_9allocatorINS_11__list_nodeI15Vcm_quadBox_HitPvEEEEE5firstEv
FN:2284,_ZNKSt3__117__compressed_pairImNS_9allocatorINS_11__list_nodeI7ss_linkPvEEEEE5firstEv
FN:2284,_ZNKSt3__117__compressed_pairImNS_9allocatorINS_11__list_nodeI18cm_Legendre_vectorPvEEEEE5firstEv
FN:2284,_ZNKSt3__117__compressed_pairIPNS_11__list_nodeI7ss_linkPvEENS_22__allocator_destructorINS_9allocatorIS4_EEEEE5firstEv
FN:2284,_ZNKSt3__117__compressed_pairImNS_9allocatorINS_11__list_nodeIdPvEEEEE5firstEv
FN:2284,_ZNKSt3__117__compressed_pairImNS_9allocatorINS_11__list_nodeI11Ein_Eta_HitPvEEEEE5firstEv
FN:2284,_ZNKSt3__117__compressed_pairIPNS_11__list_nodeI13min_Eout_infoPvEENS_22__allocator_destructorINS_9allocatorIS4_EEEEE5firstEv
FN:2284,_ZNKSt3__117__compressed_pairIPNS_11__list_nodeI18cm_Legendre_vectorPvEENS_22__allocator_destructorINS_9allocatorIS4_EEEEE5firstEv
FN:2284,_ZNKSt3__117__compressed_pairImNS_9allocatorINS_11__list_nodeI13min_Eout_infoPvEEEEE5firstEv
FN:2284,_ZNKSt3__117__compressed_pairIPNS_11__list_nodeI14Legendre_coefsPvEENS_22__allocator_destructorINS_9allocatorIS4_EEEEE5firstEv
FN:2284,_ZNKSt3__117__compressed_pairINS_12basic_stringIcNS_11char_traitsIcEENS_9allocatorIcEEE5__repES5_E5firstEv
FN:2284,_ZNKSt3__117__compressed_pairIP11Ein_entriesRNS_9allocatorIS1_EEE5firstEv
FN:2284,_ZNKSt3__117__compressed_pairImNS_9allocatorINS_11__list_nodeI11coef_vectorPvEEEEE5firstEv
FN:2284,_ZNKSt3__117__compressed_pairImNS_9allocatorINS_11__list_nodeI13weight_vectorPvEEEEE5firstEv
FN:2284,_ZNKSt3__117__compressed_pairIPNS_11__list_nodeI12Eprob_vectorPvEENS_22__allocator_destructorINS_9allocatorIS4_EEEEE5firstEv
FN:2284,_ZNKSt3__117__compressed_pairIPNS_11__list_nodeI14one_joint_distPvEENS_22__allocator_destructorINS_9allocatorIS4_EEEEE5firstEv
FN:2284,_ZNKSt3__117__compressed_pairIP9Ein_entryNS_9allocatorIS1_EEE5firstEv
FN:2284,_ZNKSt3__117__compressed_pairIPNS_11__list_nodeI21cumulative_prob_entryPvEENS_22__allocator_destructorINS_9allocatorIS4_EEEEE5firstEv
FN:2284,_ZNKSt3__117__compressed_pairImNS_9allocatorINS_11__list_nodeI15Kalbach_one_EinPvEEEEE5firstEv
FN:2284,_ZNKSt3__117__compressed_pairIP11Ein_Eta_HitNS_9allocatorIS1_EEE5firstEv
FN:2284,_ZNKSt3__117__compressed_pairIPdRNS_9allocatorIdEEE5firstEv
FN:2284,_ZNKSt3__117__compressed_pairIPNS_12basic_stringIcNS_11char_traitsIcEENS_9allocatorIcEEEENS4_IS6_EEE5firstEv
FN:2284,_ZNKSt3__117__compressed_pairImNS_9allocatorINS_11__list_nodeI9dd_vectorPvEEEEE5firstEv
FN:2289,_ZNSt3__117__compressed_pairIP8dd_entryRNS_9allocatorIS1_EEE6secondEv
FN:2289,_ZNSt3__117__compressed_pairIPNS_11__list_nodeI13min_Eout_infoPvEENS_22__allocator_destructorINS_9allocatorIS4_EEEEE6secondEv
FN:2289,_ZNSt3__117__compressed_pairIPNS_11__list_nodeI15Boundary_cornerPvEENS_22__allocator_destructorINS_9allocatorIS4_EEEEE6secondEv
FN:2289,_ZNSt3__117__compressed_pairImNS_9allocatorINS_11__list_nodeI21cumulative_prob_entryPvEEEEE6secondEv
FN:2289,_ZNSt3__117__compressed_pairImNS_9allocatorINS_11__list_nodeI6one_muPvEEEEE6secondEv
FN:2289,_ZNSt3__117__compressed_pairIPNS_11__list_nodeIN4cmDD8one_EoutEPvEENS_22__allocator_destructorINS_9allocatorIS5_EEEEE6secondEv
FN:2289,_ZNSt3__117__compressed_pairImNS_9allocatorINS_11__list_nodeI9dd_vectorPvEEEEE6secondEv
FN:2289,_ZNSt3__117__compressed_pairImNS_9allocatorINS_11__list_nodeI12Eprob_vectorPvEEEEE6secondEv
FN:2289,_ZNSt3__117__compressed_pairImNS_9allocatorINS_11__list_nodeI18cm_Legendre_vectorPvEEEEE6secondEv
FN:2289,_ZNSt3__117__compressed_pairImNS_9allocatorINS_11__list_nodeI15Vcm_quadBox_HitPvEEEEE6secondEv
FN:2289,_ZNSt3__117__compressed_pairIPNS_11__list_nodeIdPvEENS_22__allocator_destructorINS_9allocatorIS3_EEEEE6secondEv
FN:2289,_ZNSt3__117__compressed_pairImNS_9allocatorINS_11__list_nodeI24standard_Legendre_vectorPvEEEEE6secondEv
FN:2289,_ZNSt3__117__compressed_pairIPNS_11__list_nodeI11Ein_Eta_HitPvEENS_22__allocator_destructorINS_9allocatorIS4_EEEEE6secondEv
FN:2289,_ZNSt3__117__compressed_pairIP9Ein_entryNS_9allocatorIS1_EEE6secondEv
FN:2289,_ZNSt3__117__compressed_pairIPNS_11__list_nodeI15Kalbach_one_EinPvEENS_22__allocator_destructorINS_9allocatorIS4_EEEEE6secondEv
FN:2289,_ZNSt3__117__compressed_pairImNS_9allocatorINS_11__list_nodeI13weight_vectorPvEEEEE6secondEv
FN:2289,_ZNSt3__117__compressed_pairImNS_9allocatorINS_11__list_nodeI14Legendre_coefsPvEEEEE6secondEv
FN:2289,_ZNSt3__117__compressed_pairIPNS_11__list_nodeI9dd_vectorPvEENS_22__allocator_destructorINS_9allocatorIS4_EEEEE6secondEv
FN:2289,_ZNSt3__117__compressed_pairImNS_9allocatorINS_11__list_nodeIN4cmDD14one_joint_distEPvEEEEE6secondEv
FN:2289,_ZNSt3__117__compressed_pairIPNS_11__list_nodeIN4cmDD14one_joint_distEPvEENS_22__allocator_destructorINS_9allocatorIS5_EEEEE6secondEv
FN:2289,_ZNSt3__117__compressed_pairImNS_9allocatorINS_11__list_nodeIN6quad_F12one_intervalEPvEEEEE6secondEv
FN:2289,_ZNSt3__117__compressed_pairIPNS_11__list_nodeI6one_muPvEENS_22__allocator_destructorINS_9allocatorIS4_EEEEE6secondEv
FN:2289,_ZNSt3__117__compressed_pairIPNS_11__list_nodeI12Eprob_vectorPvEENS_22__allocator_destructorINS_9allocatorIS4_EEEEE6secondEv
FN:2289,_ZNSt3__117__compressed_pairImNS_9allocatorINS_11__list_nodeIN4cmDD8one_EoutEPvEEEEE6secondEv
FN:2289,_ZNSt3__117__compressed_pairIPNS_12basic_stringIcNS_11char_traitsIcEENS_9allocatorIcEEEENS4_IS6_EEE6secondEv
FN:2289,_ZNSt3__117__compressed_pairIPNS_11__list_nodeI14one_joint_distPvEENS_22__allocator_destructorINS_9allocatorIS4_EEEEE6secondEv
FN:2289,_ZNSt3__117__compressed_pairImNS_9allocatorINS_11__list_nodeIdPvEEEEE6secondEv
FN:2289,_ZNSt3__117__compressed_pairIPNS_11__list_nodeI14Legendre_coefsPvEENS_22__allocator_destructorINS_9allocatorIS4_EEEEE6secondEv
FN:2289,_ZNSt3__117__compressed_pairImNS_9allocatorINS_11__list_nodeI11Ein_Eta_HitPvEEEEE6secondEv
FN:2289,_ZNSt3__117__compressed_pairIPdRNS_9allocatorIdEEE6secondEv
FN:2289,_ZNSt3__117__compressed_pairImNS_9allocatorINS_11__list_nodeI15Kalbach_one_EinPvEEEEE6secondEv
FN:2289,_ZNSt3__117__compressed_pairIP11Ein_Eta_HitNS_9allocatorIS1_EEE6secondEv
FN:2289,_ZNSt3__117__compressed_pairIP9Ein_entryRNS_9allocatorIS1_EEE6secondEv
FN:2289,_ZNSt3__117__compressed_pairIP11Ein_entriesRNS_9allocatorIS1_EEE6secondEv
FN:2289,_ZNSt3__117__compressed_pairImNS_9allocatorINS_11__list_nodeI15Boundary_cornerPvEEEEE6secondEv
FN:2289,_ZNSt3__117__compressed_pairIPNS_11__list_nodeIN6quad_F12one_intervalEPvEENS_22__allocator_destructorINS_9allocatorIS5_EEEEE6secondEv
FN:2289,_ZNSt3__117__compressed_pairImNS_9allocatorINS_11__list_nodeI13min_Eout_infoPvEEEEE6secondEv
FN:2289,_ZNSt3__117__compressed_pairImNS_9allocatorINS_11__list_nodeI14one_joint_distPvEEEEE6secondEv
FN:2289,_ZNSt3__117__compressed_pairIPNS_11__list_nodeI18cm_Legendre_vectorPvEENS_22__allocator_destructorINS_9allocatorIS4_EEEEE6secondEv
FN:2289,_ZNSt3__117__compressed_pairINS_12basic_stringIcNS_11char_traitsIcEENS_9allocatorIcEEE5__repES5_E6secondEv
FN:2289,_ZNSt3__117__compressed_pairIP7__sFILEPFiS2_EE6secondEv
FN:2289,_ZNSt3__117__compressed_pairImNS_9allocatorINS_11__list_nodeI7ss_linkPvEEEEE6secondEv
FN:2289,_ZNSt3__117__compressed_pairIPNS_11__list_nodeI15Vcm_quadBox_HitPvEENS_22__allocator_destructorINS_9allocatorIS4_EEEEE6secondEv
FN:2289,_ZNSt3__117__compressed_pairIPNS_11__list_nodeI13weight_vectorPvEENS_22__allocator_destructorINS_9allocatorIS4_EEEEE6secondEv
FN:2289,_ZNSt3__117__compressed_pairIP11Ein_entriesNS_9allocatorIS1_EEE6secondEv
FN:2289,_ZNSt3__117__compressed_pairIPNS_11__list_nodeI24standard_Legendre_vectorPvEENS_22__allocator_destructorINS_9allocatorIS4_EEEEE6secondEv
FN:2289,_ZNSt3__117__compressed_pairImNS_9allocatorINS_11__list_nodeI11coef_vectorPvEEEEE6secondEv
FN:2289,_ZNSt3__117__compressed_pairIP8dd_entryNS_9allocatorIS1_EEE6secondEv
FN:2289,_ZNSt3__117__compressed_pairIP11Ein_Eta_HitRNS_9allocatorIS1_EEE6secondEv
FN:2289,_ZNSt3__117__compressed_pairIPNS_11__list_nodeI7ss_linkPvEENS_22__allocator_destructorINS_9allocatorIS4_EEEEE6secondEv
FN:2289,_ZNSt3__117__compressed_pairIPNS_11__list_nodeI21cumulative_prob_entryPvEENS_22__allocator_destructorINS_9allocatorIS4_EEEEE6secondEv
FN:2289,_ZNSt3__117__compressed_pairIPNS_11__list_nodeI11coef_vectorPvEENS_22__allocator_destructorINS_9allocatorIS4_EEEEE6secondEv
FN:2289,_ZNSt3__117__compressed_pairIPdNS_9allocatorIdEEE6secondEv
FN:2294,_ZNKSt3__117__compressed_pairIP9Ein_entryNS_9allocatorIS1_EEE6secondEv
FN:2294,_ZNKSt3__117__compressed_pairINS_12basic_stringIcNS_11char_traitsIcEENS_9allocatorIcEEE5__repES5_E6secondEv
FN:2294,_ZNKSt3__117__compressed_pairIP8dd_entryNS_9allocatorIS1_EEE6secondEv
FN:2294,_ZNKSt3__117__compressed_pairIP11Ein_entriesNS_9allocatorIS1_EEE6secondEv
FN:2294,_ZNKSt3__117__compressed_pairImNS_9allocatorINS_11__list_nodeIN4cmDD8one_EoutEPvEEEEE6secondEv
FN:2294,_ZNKSt3__117__compressed_pairIPdNS_9allocatorIdEEE6secondEv
FN:2294,_ZNKSt3__117__compressed_pairImNS_9allocatorINS_11__list_nodeI21cumulative_prob_entryPvEEEEE6secondEv
FN:2294,_ZNKSt3__117__compressed_pairImNS_9allocatorINS_11__list_nodeI14Legendre_coefsPvEEEEE6secondEv
FN:2294,_ZNKSt3__117__compressed_pairImNS_9allocatorINS_11__list_nodeI6one_muPvEEEEE6secondEv
FN:2294,_ZNKSt3__117__compressed_pairIP11Ein_Eta_HitNS_9allocatorIS1_EEE6secondEv
FN:2565,_ZNSt3__110unique_ptrINS_11__list_nodeIN4cmDD14one_joint_distEPvEENS_22__allocator_destructorINS_9allocatorIS5_EEEEEcvNS_4__rvISA_EEEv
FN:2565,_ZNSt3__110unique_ptrINS_11__list_nodeI13min_Eout_infoPvEENS_22__allocator_destructorINS_9allocatorIS4_EEEEEcvNS_4__rvIS9_EEEv
FN:2565,_ZNSt3__110unique_ptrINS_11__list_nodeI7ss_linkPvEENS_22__allocator_destructorINS_9allocatorIS4_EEEEEcvNS_4__rvIS9_EEEv
FN:2565,_ZNSt3__110unique_ptrINS_11__list_nodeIN6quad_F12one_intervalEPvEENS_22__allocator_destructorINS_9allocatorIS5_EEEEEcvNS_4__rvISA_EEEv
FN:2565,_ZNSt3__110unique_ptrINS_11__list_nodeI14one_joint_distPvEENS_22__allocator_destructorINS_9allocatorIS4_EEEEEcvNS_4__rvIS9_EEEv
FN:2565,_ZNSt3__110unique_ptrINS_11__list_nodeI11coef_vectorPvEENS_22__allocator_destructorINS_9allocatorIS4_EEEEEcvNS_4__rvIS9_EEEv
FN:2565,_ZNSt3__110unique_ptrINS_11__list_nodeI15Kalbach_one_EinPvEENS_22__allocator_destructorINS_9allocatorIS4_EEEEEcvNS_4__rvIS9_EEEv
FN:2565,_ZNSt3__110unique_ptrINS_11__list_nodeI11Ein_Eta_HitPvEENS_22__allocator_destructorINS_9allocatorIS4_EEEEEcvNS_4__rvIS9_EEEv
FN:2565,_ZNSt3__110unique_ptrINS_11__list_nodeI12Eprob_vectorPvEENS_22__allocator_destructorINS_9allocatorIS4_EEEEEcvNS_4__rvIS9_EEEv
FN:2565,_ZNSt3__110unique_ptrINS_11__list_nodeI21cumulative_prob_entryPvEENS_22__allocator_destructorINS_9allocatorIS4_EEEEEcvNS_4__rvIS9_EEEv
FN:2565,_ZNSt3__110unique_ptrINS_11__list_nodeI15Vcm_quadBox_HitPvEENS_22__allocator_destructorINS_9allocatorIS4_EEEEEcvNS_4__rvIS9_EEEv
FN:2565,_ZNSt3__110unique_ptrINS_11__list_nodeI24standard_Legendre_vectorPvEENS_22__allocator_destructorINS_9allocatorIS4_EEEEEcvNS_4__rvIS9_EEEv
FN:2565,_ZNSt3__110unique_ptrINS_11__list_nodeI6one_muPvEENS_22__allocator_destructorINS_9allocatorIS4_EEEEEcvNS_4__rvIS9_EEEv
FN:2565,_ZNSt3__110unique_ptrINS_11__list_nodeI15Boundary_cornerPvEENS_22__allocator_destructorINS_9allocatorIS4_EEEEEcvNS_4__rvIS9_EEEv
FN:2565,_ZNSt3__110unique_ptrINS_11__list_nodeIN4cmDD8one_EoutEPvEENS_22__allocator_destructorINS_9allocatorIS5_EEEEEcvNS_4__rvISA_EEEv
FN:2565,_ZNSt3__110unique_ptrINS_11__list_nodeIdPvEENS_22__allocator_destructorINS_9allocatorIS3_EEEEEcvNS_4__rvIS8_EEEv
FN:2565,_ZNSt3__110unique_ptrINS_11__list_nodeI18cm_Legendre_vectorPvEENS_22__allocator_destructorINS_9allocatorIS4_EEEEEcvNS_4__rvIS9_EEEv
FN:2565,_ZNSt3__110unique_ptrINS_11__list_nodeI9dd_vectorPvEENS_22__allocator_destructorINS_9allocatorIS4_EEEEEcvNS_4__rvIS9_EEEv
FN:2565,_ZNSt3__110unique_ptrINS_11__list_nodeI14Legendre_coefsPvEENS_22__allocator_destructorINS_9allocatorIS4_EEEEEcvNS_4__rvIS9_EEEv
FN:2565,_ZNSt3__110unique_ptrINS_11__list_nodeI13weight_vectorPvEENS_22__allocator_destructorINS_9allocatorIS4_EEEEEcvNS_4__rvIS9_EEEv
FN:2570,_ZNSt3__110unique_ptrINS_11__list_nodeIN4cmDD8one_EoutEPvEENS_22__allocator_destructorINS_9allocatorIS5_EEEEEC2ENS_4__rvISA_EE
FN:2570,_ZNSt3__110unique_ptrINS_11__list_nodeI13min_Eout_infoPvEENS_22__allocator_destructorINS_9allocatorIS4_EEEEEC2ENS_4__rvIS9_EE
FN:2570,_ZNSt3__110unique_ptrINS_11__list_nodeI14one_joint_distPvEENS_22__allocator_destructorINS_9allocatorIS4_EEEEEC1ENS_4__rvIS9_EE
FN:2570,_ZNSt3__110unique_ptrINS_11__list_nodeI15Vcm_quadBox_HitPvEENS_22__allocator_destructorINS_9allocatorIS4_EEEEEC2ENS_4__rvIS9_EE
FN:2570,_ZNSt3__110unique_ptrINS_11__list_nodeI14Legendre_coefsPvEENS_22__allocator_destructorINS_9allocatorIS4_EEEEEC1ENS_4__rvIS9_EE
FN:2570,_ZNSt3__110unique_ptrINS_11__list_nodeIN4cmDD14one_joint_distEPvEENS_22__allocator_destructorINS_9allocatorIS5_EEEEEC1ENS_4__rvISA_EE
FN:2570,_ZNSt3__110unique_ptrINS_11__list_nodeIN6quad_F12one_intervalEPvEENS_22__allocator_destructorINS_9allocatorIS5_EEEEEC1ENS_4__rvISA_EE
FN:2570,_ZNSt3__110unique_ptrINS_11__list_nodeI21cumulative_prob_entryPvEENS_22__allocator_destructorINS_9allocatorIS4_EEEEEC1ENS_4__rvIS9_EE
FN:2570,_ZNSt3__110unique_ptrINS_11__list_nodeI24standard_Legendre_vectorPvEENS_22__allocator_destructorINS_9allocatorIS4_EEEEEC2ENS_4__rvIS9_EE
FN:2570,_ZNSt3__110unique_ptrINS_11__list_nodeI7ss_linkPvEENS_22__allocator_destructorINS_9allocatorIS4_EEEEEC1ENS_4__rvIS9_EE
FN:2570,_ZNSt3__110unique_ptrINS_11__list_nodeI15Boundary_cornerPvEENS_22__allocator_destructorINS_9allocatorIS4_EEEEEC1ENS_4__rvIS9_EE
FN:2570,_ZNSt3__110unique_ptrINS_11__list_nodeI14one_joint_distPvEENS_22__allocator_destructorINS_9allocatorIS4_EEEEEC2ENS_4__rvIS9_EE
FN:2570,_ZNSt3__110unique_ptrINS_11__list_nodeI18cm_Legendre_vectorPvEENS_22__allocator_destructorINS_9allocatorIS4_EEEEEC1ENS_4__rvIS9_EE
FN:2570,_ZNSt3__110unique_ptrINS_11__list_nodeIdPvEENS_22__allocator_destructorINS_9allocatorIS3_EEEEEC1ENS_4__rvIS8_EE
FN:2570,_ZNSt3__110unique_ptrINS_11__list_nodeI6one_muPvEENS_22__allocator_destructorINS_9allocatorIS4_EEEEEC1ENS_4__rvIS9_EE
FN:2570,_ZNSt3__110unique_ptrINS_11__list_nodeI11coef_vectorPvEENS_22__allocator_destructorINS_9allocatorIS4_EEEEEC1ENS_4__rvIS9_EE
FN:2570,_ZNSt3__110unique_ptrINS_11__list_nodeI15Kalbach_one_EinPvEENS_22__allocator_destructorINS_9allocatorIS4_EEEEEC2ENS_4__rvIS9_EE
FN:2570,_ZNSt3__110unique_ptrINS_11__list_nodeIN4cmDD14one_joint_distEPvEENS_22__allocator_destructorINS_9allocatorIS5_EEEEEC2ENS_4__rvISA_EE
FN:2570,_ZNSt3__110unique_ptrINS_11__list_nodeI15Boundary_cornerPvEENS_22__allocator_destructorINS_9allocatorIS4_EEEEEC2ENS_4__rvIS9_EE
FN:2570,_ZNSt3__110unique_ptrINS_11__list_nodeI7ss_linkPvEENS_22__allocator_destructorINS_9allocatorIS4_EEEEEC2ENS_4__rvIS9_EE
FN:2570,_ZNSt3__110unique_ptrINS_11__list_nodeI21cumulative_prob_entryPvEENS_22__allocator_destructorINS_9allocatorIS4_EEEEEC2ENS_4__rvIS9_EE
FN:2570,_ZNSt3__110unique_ptrINS_11__list_nodeI18cm_Legendre_vectorPvEENS_22__allocator_destructorINS_9allocatorIS4_EEEEEC2ENS_4__rvIS9_EE
FN:2570,_ZNSt3__110unique_ptrINS_11__list_nodeI6one_muPvEENS_22__allocator_destructorINS_9allocatorIS4_EEEEEC2ENS_4__rvIS9_EE
FN:2570,_ZNSt3__110unique_ptrINS_11__list_nodeI24standard_Legendre_vectorPvEENS_22__allocator_destructorINS_9allocatorIS4_EEEEEC1ENS_4__rvIS9_EE
FN:2570,_ZNSt3__110unique_ptrINS_11__list_nodeI13min_Eout_infoPvEENS_22__allocator_destructorINS_9allocatorIS4_EEEEEC1ENS_4__rvIS9_EE
FN:2570,_ZNSt3__110unique_ptrINS_11__list_nodeIN6quad_F12one_intervalEPvEENS_22__allocator_destructorINS_9allocatorIS5_EEEEEC2ENS_4__rvISA_EE
FN:2570,_ZNSt3__110unique_ptrINS_11__list_nodeI13weight_vectorPvEENS_22__allocator_destructorINS_9allocatorIS4_EEEEEC2ENS_4__rvIS9_EE
FN:2570,_ZNSt3__110unique_ptrINS_11__list_nodeI15Kalbach_one_EinPvEENS_22__allocator_destructorINS_9allocatorIS4_EEEEEC1ENS_4__rvIS9_EE
FN:2570,_ZNSt3__110unique_ptrINS_11__list_nodeI11Ein_Eta_HitPvEENS_22__allocator_destructorINS_9allocatorIS4_EEEEEC2ENS_4__rvIS9_EE
FN:2570,_ZNSt3__110unique_ptrINS_11__list_nodeI12Eprob_vectorPvEENS_22__allocator_destructorINS_9allocatorIS4_EEEEEC1ENS_4__rvIS9_EE
FN:2570,_ZNSt3__110unique_ptrINS_11__list_nodeI9dd_vectorPvEENS_22__allocator_destructorINS_9allocatorIS4_EEEEEC2ENS_4__rvIS9_EE
FN:2570,_ZNSt3__110unique_ptrINS_11__list_nodeI14Legendre_coefsPvEENS_22__allocator_destructorINS_9allocatorIS4_EEEEEC2ENS_4__rvIS9_EE
FN:2570,_ZNSt3__110unique_ptrINS_11__list_nodeIN4cmDD8one_EoutEPvEENS_22__allocator_destructorINS_9allocatorIS5_EEEEEC1ENS_4__rvISA_EE
FN:2570,_ZNSt3__110unique_ptrINS_11__list_nodeI12Eprob_vectorPvEENS_22__allocator_destructorINS_9allocatorIS4_EEEEEC2ENS_4__rvIS9_EE
FN:2570,_ZNSt3__110unique_ptrINS_11__list_nodeI15Vcm_quadBox_HitPvEENS_22__allocator_destructorINS_9allocatorIS4_EEEEEC1ENS_4__rvIS9_EE
FN:2570,_ZNSt3__110unique_ptrINS_11__list_nodeI11Ein_Eta_HitPvEENS_22__allocator_destructorINS_9allocatorIS4_EEEEEC1ENS_4__rvIS9_EE
FN:2570,_ZNSt3__110unique_ptrINS_11__list_nodeI9dd_vectorPvEENS_22__allocator_destructorINS_9allocatorIS4_EEEEEC1ENS_4__rvIS9_EE
FN:2570,_ZNSt3__110unique_ptrINS_11__list_nodeI11coef_vectorPvEENS_22__allocator_destructorINS_9allocatorIS4_EEEEEC2ENS_4__rvIS9_EE
FN:2570,_ZNSt3__110unique_ptrINS_11__list_nodeIdPvEENS_22__allocator_destructorINS_9allocatorIS3_EEEEEC2ENS_4__rvIS8_EE
FN:2570,_ZNSt3__110unique_ptrINS_11__list_nodeI13weight_vectorPvEENS_22__allocator_destructorINS_9allocatorIS4_EEEEEC1ENS_4__rvIS9_EE
FN:2589,_ZNSt3__110unique_ptrI7__sFILEPFiPS1_EEC1ES2_S4_
FN:2589,_ZNSt3__110unique_ptrINS_11__list_nodeIN4cmDD14one_joint_distEPvEENS_22__allocator_destructorINS_9allocatorIS5_EEEEEC1EPS5_S9_
FN:2589,_ZNSt3__110unique_ptrINS_11__list_nodeI15Boundary_cornerPvEENS_22__allocator_destructorINS_9allocatorIS4_EEEEEC1EPS4_S8_
FN:2589,_ZNSt3__110unique_ptrINS_11__list_nodeI14one_joint_distPvEENS_22__allocator_destructorINS_9allocatorIS4_EEEEEC2EPS4_S8_
FN:2589,_ZNSt3__110unique_ptrINS_11__list_nodeI13min_Eout_infoPvEENS_22__allocator_destructorINS_9allocatorIS4_EEEEEC1EPS4_S8_
FN:2589,_ZNSt3__110unique_ptrINS_11__list_nodeI11Ein_Eta_HitPvEENS_22__allocator_destructorINS_9allocatorIS4_EEEEEC2EPS4_S8_
FN:2589,_ZNSt3__110unique_ptrINS_11__list_nodeI9dd_vectorPvEENS_22__allocator_destructorINS_9allocatorIS4_EEEEEC2EPS4_S8_
FN:2589,_ZNSt3__110unique_ptrINS_11__list_nodeI18cm_Legendre_vectorPvEENS_22__allocator_destructorINS_9allocatorIS4_EEEEEC2EPS4_S8_
FN:2589,_ZNSt3__110unique_ptrINS_11__list_nodeI13weight_vectorPvEENS_22__allocator_destructorINS_9allocatorIS4_EEEEEC1EPS4_S8_
FN:2589,_ZNSt3__110unique_ptrINS_11__list_nodeI7ss_linkPvEENS_22__allocator_destructorINS_9allocatorIS4_EEEEEC1EPS4_S8_
FN:2589,_ZNSt3__110unique_ptrINS_11__list_nodeI18cm_Legendre_vectorPvEENS_22__allocator_destructorINS_9allocatorIS4_EEEEEC1EPS4_S8_
FN:2589,_ZNSt3__110unique_ptrINS_11__list_nodeIN4cmDD14one_joint_distEPvEENS_22__allocator_destructorINS_9allocatorIS5_EEEEEC2EPS5_S9_
FN:2589,_ZNSt3__110unique_ptrINS_11__list_nodeIN4cmDD8one_EoutEPvEENS_22__allocator_destructorINS_9allocatorIS5_EEEEEC1EPS5_S9_
FN:2589,_ZNSt3__110unique_ptrINS_11__list_nodeI15Vcm_quadBox_HitPvEENS_22__allocator_destructorINS_9allocatorIS4_EEEEEC2EPS4_S8_
FN:2589,_ZNSt3__110unique_ptrINS_11__list_nodeI9dd_vectorPvEENS_22__allocator_destructorINS_9allocatorIS4_EEEEEC1EPS4_S8_
FN:2589,_ZNSt3__110unique_ptrINS_11__list_nodeI11Ein_Eta_HitPvEENS_22__allocator_destructorINS_9allocatorIS4_EEEEEC1EPS4_S8_
FN:2589,_ZNSt3__110unique_ptrINS_11__list_nodeI14one_joint_distPvEENS_22__allocator_destructorINS_9allocatorIS4_EEEEEC1EPS4_S8_
FN:2589,_ZNSt3__110unique_ptrINS_11__list_nodeI15Boundary_cornerPvEENS_22__allocator_destructorINS_9allocatorIS4_EEEEEC2EPS4_S8_
FN:2589,_ZNSt3__110unique_ptrINS_11__list_nodeI15Kalbach_one_EinPvEENS_22__allocator_destructorINS_9allocatorIS4_EEEEEC2EPS4_S8_
FN:2589,_ZNSt3__110unique_ptrINS_11__list_nodeI15Vcm_quadBox_HitPvEENS_22__allocator_destructorINS_9allocatorIS4_EEEEEC1EPS4_S8_
FN:2589,_ZNSt3__110unique_ptrINS_11__list_nodeI15Kalbach_one_EinPvEENS_22__allocator_destructorINS_9allocatorIS4_EEEEEC1EPS4_S8_
FN:2589,_ZNSt3__110unique_ptrINS_11__list_nodeI6one_muPvEENS_22__allocator_destructorINS_9allocatorIS4_EEEEEC2EPS4_S8_
FN:2589,_ZNSt3__110unique_ptrINS_11__list_nodeI14Legendre_coefsPvEENS_22__allocator_destructorINS_9allocatorIS4_EEEEEC2EPS4_S8_
FN:2589,_ZNSt3__110unique_ptrINS_11__list_nodeI11coef_vectorPvEENS_22__allocator_destructorINS_9allocatorIS4_EEEEEC2EPS4_S8_
FN:2589,_ZNSt3__110unique_ptrINS_11__list_nodeIN6quad_F12one_intervalEPvEENS_22__allocator_destructorINS_9allocatorIS5_EEEEEC2EPS5_S9_
FN:2589,_ZNSt3__110unique_ptrINS_11__list_nodeI6one_muPvEENS_22__allocator_destructorINS_9allocatorIS4_EEEEEC1EPS4_S8_
FN:2589,_ZNSt3__110unique_ptrINS_11__list_nodeI12Eprob_vectorPvEENS_22__allocator_destructorINS_9allocatorIS4_EEEEEC1EPS4_S8_
FN:2589,_ZNSt3__110unique_ptrINS_11__list_nodeI7ss_linkPvEENS_22__allocator_destructorINS_9allocatorIS4_EEEEEC2EPS4_S8_
FN:2589,_ZNSt3__110unique_ptrINS_11__list_nodeIdPvEENS_22__allocator_destructorINS_9allocatorIS3_EEEEEC2EPS3_S7_
FN:2589,_ZNSt3__110unique_ptrINS_11__list_nodeI21cumulative_prob_entryPvEENS_22__allocator_destructorINS_9allocatorIS4_EEEEEC2EPS4_S8_
FN:2589,_ZNSt3__110unique_ptrINS_11__list_nodeI24standard_Legendre_vectorPvEENS_22__allocator_destructorINS_9allocatorIS4_EEEEEC2EPS4_S8_
FN:2589,_ZNSt3__110unique_ptrINS_11__list_nodeIdPvEENS_22__allocator_destructorINS_9allocatorIS3_EEEEEC1EPS3_S7_
FN:2589,_ZNSt3__110unique_ptrINS_11__list_nodeI13weight_vectorPvEENS_22__allocator_destructorINS_9allocatorIS4_EEEEEC2EPS4_S8_
FN:2589,_ZNSt3__110unique_ptrINS_11__list_nodeI21cumulative_prob_entryPvEENS_22__allocator_destructorINS_9allocatorIS4_EEEEEC1EPS4_S8_
FN:2589,_ZNSt3__110unique_ptrINS_11__list_nodeI11coef_vectorPvEENS_22__allocator_destructorINS_9allocatorIS4_EEEEEC1EPS4_S8_
FN:2589,_ZNSt3__110unique_ptrINS_11__list_nodeI13min_Eout_infoPvEENS_22__allocator_destructorINS_9allocatorIS4_EEEEEC2EPS4_S8_
FN:2589,_ZNSt3__110unique_ptrINS_11__list_nodeI24standard_Legendre_vectorPvEENS_22__allocator_destructorINS_9allocatorIS4_EEEEEC1EPS4_S8_
FN:2589,_ZNSt3__110unique_ptrINS_11__list_nodeI12Eprob_vectorPvEENS_22__allocator_destructorINS_9allocatorIS4_EEEEEC2EPS4_S8_
FN:2589,_ZNSt3__110unique_ptrINS_11__list_nodeIN4cmDD8one_EoutEPvEENS_22__allocator_destructorINS_9allocatorIS5_EEEEEC2EPS5_S9_
FN:2589,_ZNSt3__110unique_ptrINS_11__list_nodeIN6quad_F12one_intervalEPvEENS_22__allocator_destructorINS_9allocatorIS5_EEEEEC1EPS5_S9_
FN:2589,_ZNSt3__110unique_ptrINS_11__list_nodeI14Legendre_coefsPvEENS_22__allocator_destructorINS_9allocatorIS4_EEEEEC1EPS4_S8_
FN:2589,_ZNSt3__110unique_ptrI7__sFILEPFiPS1_EEC2ES2_S4_
FN:2606,_ZNSt3__110unique_ptrINS_11__list_nodeI21cumulative_prob_entryPvEENS_22__allocator_destructorINS_9allocatorIS4_EEEEED2Ev
FN:2606,_ZNSt3__110unique_ptrINS_11__list_nodeI14one_joint_distPvEENS_22__allocator_destructorINS_9allocatorIS4_EEEEED1Ev
FN:2606,_ZNSt3__110unique_ptrINS_11__list_nodeI6one_muPvEENS_22__allocator_destructorINS_9allocatorIS4_EEEEED2Ev
FN:2606,_ZNSt3__110unique_ptrINS_11__list_nodeIN4cmDD14one_joint_distEPvEENS_22__allocator_destructorINS_9allocatorIS5_EEEEED1Ev
FN:2606,_ZNSt3__110unique_ptrINS_11__list_nodeI13weight_vectorPvEENS_22__allocator_destructorINS_9allocatorIS4_EEEEED2Ev
FN:2606,_ZNSt3__110unique_ptrINS_11__list_nodeIdPvEENS_22__allocator_destructorINS_9allocatorIS3_EEEEED2Ev
FN:2606,_ZNSt3__110unique_ptrINS_11__list_nodeI11coef_vectorPvEENS_22__allocator_destructorINS_9allocatorIS4_EEEEED2Ev
FN:2606,_ZNSt3__110unique_ptrINS_11__list_nodeIN6quad_F12one_intervalEPvEENS_22__allocator_destructorINS_9allocatorIS5_EEEEED1Ev
FN:2606,_ZNSt3__110unique_ptrINS_11__list_nodeI9dd_vectorPvEENS_22__allocator_destructorINS_9allocatorIS4_EEEEED1Ev
FN:2606,_ZNSt3__110unique_ptrINS_11__list_nodeI6one_muPvEENS_22__allocator_destructorINS_9allocatorIS4_EEEEED1Ev
FN:2606,_ZNSt3__110unique_ptrINS_11__list_nodeI7ss_linkPvEENS_22__allocator_destructorINS_9allocatorIS4_EEEEED2Ev
FN:2606,_ZNSt3__110unique_ptrINS_11__list_nodeI21cumulative_prob_entryPvEENS_22__allocator_destructorINS_9allocatorIS4_EEEEED1Ev
FN:2606,_ZNSt3__110unique_ptrINS_11__list_nodeI24standard_Legendre_vectorPvEENS_22__allocator_destructorINS_9allocatorIS4_EEEEED1Ev
FN:2606,_ZNSt3__110unique_ptrINS_11__list_nodeI18cm_Legendre_vectorPvEENS_22__allocator_destructorINS_9allocatorIS4_EEEEED2Ev
FN:2606,_ZNSt3__110unique_ptrINS_11__list_nodeI9dd_vectorPvEENS_22__allocator_destructorINS_9allocatorIS4_EEEEED2Ev
FN:2606,_ZNSt3__110unique_ptrINS_11__list_nodeI13min_Eout_infoPvEENS_22__allocator_destructorINS_9allocatorIS4_EEEEED2Ev
FN:2606,_ZNSt3__110unique_ptrINS_11__list_nodeI15Kalbach_one_EinPvEENS_22__allocator_destructorINS_9allocatorIS4_EEEEED2Ev
FN:2606,_ZNSt3__110unique_ptrINS_11__list_nodeIN4cmDD14one_joint_distEPvEENS_22__allocator_destructorINS_9allocatorIS5_EEEEED2Ev
FN:2606,_ZNSt3__110unique_ptrI7__sFILEPFiPS1_EED2Ev
FN:2606,_ZNSt3__110unique_ptrINS_11__list_nodeI11Ein_Eta_HitPvEENS_22__allocator_destructorINS_9allocatorIS4_EEEEED1Ev
FN:2606,_ZNSt3__110unique_ptrINS_11__list_nodeI15Kalbach_one_EinPvEENS_22__allocator_destructorINS_9allocatorIS4_EEEEED1Ev
FN:2606,_ZNSt3__110unique_ptrINS_11__list_nodeIN4cmDD8one_EoutEPvEENS_22__allocator_destructorINS_9allocatorIS5_EEEEED2Ev
FN:2606,_ZNSt3__110unique_ptrI7__sFILEPFiPS1_EED1Ev
FN:2606,_ZNSt3__110unique_ptrINS_11__list_nodeIN6quad_F12one_intervalEPvEENS_22__allocator_destructorINS_9allocatorIS5_EEEEED2Ev
FN:2606,_ZNSt3__110unique_ptrINS_11__list_nodeI11Ein_Eta_HitPvEENS_22__allocator_destructorINS_9allocatorIS4_EEEEED2Ev
FN:2606,_ZNSt3__110unique_ptrINS_11__list_nodeI7ss_linkPvEENS_22__allocator_destructorINS_9allocatorIS4_EEEEED1Ev
FN:2606,_ZNSt3__110unique_ptrINS_11__list_nodeI14one_joint_distPvEENS_22__allocator_destructorINS_9allocatorIS4_EEEEED2Ev
FN:2606,_ZNSt3__110unique_ptrINS_11__list_nodeI14Legendre_coefsPvEENS_22__allocator_destructorINS_9allocatorIS4_EEEEED2Ev
FN:2606,_ZNSt3__110unique_ptrINS_11__list_nodeI11coef_vectorPvEENS_22__allocator_destructorINS_9allocatorIS4_EEEEED1Ev
FN:2606,_ZNSt3__110unique_ptrINS_11__list_nodeI15Boundary_cornerPvEENS_22__allocator_destructorINS_9allocatorIS4_EEEEED2Ev
FN:2606,_ZNSt3__110unique_ptrINS_11__list_nodeI15Vcm_quadBox_HitPvEENS_22__allocator_destructorINS_9allocatorIS4_EEEEED1Ev
FN:2606,_ZNSt3__110unique_ptrINS_11__list_nodeI12Eprob_vectorPvEENS_22__allocator_destructorINS_9allocatorIS4_EEEEED1Ev
FN:2606,_ZNSt3__110unique_ptrINS_11__list_nodeI14Legendre_coefsPvEENS_22__allocator_destructorINS_9allocatorIS4_EEEEED1Ev
FN:2606,_ZNSt3__110unique_ptrINS_11__list_nodeI12Eprob_vectorPvEENS_22__allocator_destructorINS_9allocatorIS4_EEEEED2Ev
FN:2606,_ZNSt3__110unique_ptrINS_11__list_nodeI13weight_vectorPvEENS_22__allocator_destructorINS_9allocatorIS4_EEEEED1Ev
FN:2606,_ZNSt3__110unique_ptrINS_11__list_nodeI13min_Eout_infoPvEENS_22__allocator_destructorINS_9allocatorIS4_EEEEED1Ev
FN:2606,_ZNSt3__110unique_ptrINS_11__list_nodeI24standard_Legendre_vectorPvEENS_22__allocator_destructorINS_9allocatorIS4_EEEEED2Ev
FN:2606,_ZNSt3__110unique_ptrINS_11__list_nodeI18cm_Legendre_vectorPvEENS_22__allocator_destructorINS_9allocatorIS4_EEEEED1Ev
FN:2606,_ZNSt3__110unique_ptrINS_11__list_nodeI15Vcm_quadBox_HitPvEENS_22__allocator_destructorINS_9allocatorIS4_EEEEED2Ev
FN:2606,_ZNSt3__110unique_ptrINS_11__list_nodeIdPvEENS_22__allocator_destructorINS_9allocatorIS3_EEEEED1Ev
FN:2606,_ZNSt3__110unique_ptrINS_11__list_nodeI15Boundary_cornerPvEENS_22__allocator_destructorINS_9allocatorIS4_EEEEED1Ev
FN:2606,_ZNSt3__110unique_ptrINS_11__list_nodeIN4cmDD8one_EoutEPvEENS_22__allocator_destructorINS_9allocatorIS5_EEEEED1Ev
FN:2620,_ZNKSt3__110unique_ptrINS_11__list_nodeI15Boundary_cornerPvEENS_22__allocator_destructorINS_9allocatorIS4_EEEEEptEv
FN:2620,_ZNKSt3__110unique_ptrINS_11__list_nodeIN4cmDD14one_joint_distEPvEENS_22__allocator_destructorINS_9allocatorIS5_EEEEEptEv
FN:2620,_ZNKSt3__110unique_ptrINS_11__list_nodeI13weight_vectorPvEENS_22__allocator_destructorINS_9allocatorIS4_EEEEEptEv
FN:2620,_ZNKSt3__110unique_ptrINS_11__list_nodeI24standard_Legendre_vectorPvEENS_22__allocator_destructorINS_9allocatorIS4_EEEEEptEv
FN:2620,_ZNKSt3__110unique_ptrINS_11__list_nodeI9dd_vectorPvEENS_22__allocator_destructorINS_9allocatorIS4_EEEEEptEv
FN:2620,_ZNKSt3__110unique_ptrINS_11__list_nodeIdPvEENS_22__allocator_destructorINS_9allocatorIS3_EEEEEptEv
FN:2620,_ZNKSt3__110unique_ptrINS_11__list_nodeI13min_Eout_infoPvEENS_22__allocator_destructorINS_9allocatorIS4_EEEEEptEv
FN:2620,_ZNKSt3__110unique_ptrINS_11__list_nodeI7ss_linkPvEENS_22__allocator_destructorINS_9allocatorIS4_EEEEEptEv
FN:2620,_ZNKSt3__110unique_ptrINS_11__list_nodeI14one_joint_distPvEENS_22__allocator_destructorINS_9allocatorIS4_EEEEEptEv
FN:2620,_ZNKSt3__110unique_ptrINS_11__list_nodeIN4cmDD8one_EoutEPvEENS_22__allocator_destructorINS_9allocatorIS5_EEEEEptEv
FN:2620,_ZNKSt3__110unique_ptrINS_11__list_nodeI14Legendre_coefsPvEENS_22__allocator_destructorINS_9allocatorIS4_EEEEEptEv
FN:2620,_ZNKSt3__110unique_ptrINS_11__list_nodeI6one_muPvEENS_22__allocator_destructorINS_9allocatorIS4_EEEEEptEv
FN:2620,_ZNKSt3__110unique_ptrINS_11__list_nodeI15Vcm_quadBox_HitPvEENS_22__allocator_destructorINS_9allocatorIS4_EEEEEptEv
FN:2620,_ZNKSt3__110unique_ptrINS_11__list_nodeI11Ein_Eta_HitPvEENS_22__allocator_destructorINS_9allocatorIS4_EEEEEptEv
FN:2620,_ZNKSt3__110unique_ptrINS_11__list_nodeIN6quad_F12one_intervalEPvEENS_22__allocator_destructorINS_9allocatorIS5_EEEEEptEv
FN:2620,_ZNKSt3__110unique_ptrINS_11__list_nodeI12Eprob_vectorPvEENS_22__allocator_destructorINS_9allocatorIS4_EEEEEptEv
FN:2620,_ZNKSt3__110unique_ptrINS_11__list_nodeI15Kalbach_one_EinPvEENS_22__allocator_destructorINS_9allocatorIS4_EEEEEptEv
FN:2620,_ZNKSt3__110unique_ptrINS_11__list_nodeI11coef_vectorPvEENS_22__allocator_destructorINS_9allocatorIS4_EEEEEptEv
FN:2620,_ZNKSt3__110unique_ptrINS_11__list_nodeI21cumulative_prob_entryPvEENS_22__allocator_destructorINS_9allocatorIS4_EEEEEptEv
FN:2620,_ZNKSt3__110unique_ptrINS_11__list_nodeI18cm_Legendre_vectorPvEENS_22__allocator_destructorINS_9allocatorIS4_EEEEEptEv
FN:2624,_ZNKSt3__110unique_ptrINS_11__list_nodeI13min_Eout_infoPvEENS_22__allocator_destructorINS_9allocatorIS4_EEEEE3getEv
FN:2624,_ZNKSt3__110unique_ptrINS_11__list_nodeI15Boundary_cornerPvEENS_22__allocator_destructorINS_9allocatorIS4_EEEEE3getEv
FN:2624,_ZNKSt3__110unique_ptrINS_11__list_nodeI15Vcm_quadBox_HitPvEENS_22__allocator_destructorINS_9allocatorIS4_EEEEE3getEv
FN:2624,_ZNKSt3__110unique_ptrINS_11__list_nodeI14Legendre_coefsPvEENS_22__allocator_destructorINS_9allocatorIS4_EEEEE3getEv
FN:2624,_ZNKSt3__110unique_ptrINS_11__list_nodeI11Ein_Eta_HitPvEENS_22__allocator_destructorINS_9allocatorIS4_EEEEE3getEv
FN:2624,_ZNKSt3__110unique_ptrINS_11__list_nodeI6one_muPvEENS_22__allocator_destructorINS_9allocatorIS4_EEEEE3getEv
FN:2624,_ZNKSt3__110unique_ptrINS_11__list_nodeIN4cmDD8one_EoutEPvEENS_22__allocator_destructorINS_9allocatorIS5_EEEEE3getEv
FN:2624,_ZNKSt3__110unique_ptrINS_11__list_nodeI21cumulative_prob_entryPvEENS_22__allocator_destructorINS_9allocatorIS4_EEEEE3getEv
FN:2624,_ZNKSt3__110unique_ptrINS_11__list_nodeIdPvEENS_22__allocator_destructorINS_9allocatorIS3_EEEEE3getEv
FN:2624,_ZNKSt3__110unique_ptrINS_11__list_nodeI11coef_vectorPvEENS_22__allocator_destructorINS_9allocatorIS4_EEEEE3getEv
FN:2628,_ZNSt3__110unique_ptrINS_11__list_nodeI11coef_vectorPvEENS_22__allocator_destructorINS_9allocatorIS4_EEEEE11get_deleterEv
FN:2628,_ZNSt3__110unique_ptrINS_11__list_nodeI7ss_linkPvEENS_22__allocator_destructorINS_9allocatorIS4_EEEEE11get_deleterEv
FN:2628,_ZNSt3__110unique_ptrINS_11__list_nodeI13min_Eout_infoPvEENS_22__allocator_destructorINS_9allocatorIS4_EEEEE11get_deleterEv
FN:2628,_ZNSt3__110unique_ptrINS_11__list_nodeI14one_joint_distPvEENS_22__allocator_destructorINS_9allocatorIS4_EEEEE11get_deleterEv
FN:2628,_ZNSt3__110unique_ptrINS_11__list_nodeIN4cmDD14one_joint_distEPvEENS_22__allocator_destructorINS_9allocatorIS5_EEEEE11get_deleterEv
FN:2628,_ZNSt3__110unique_ptrINS_11__list_nodeI11Ein_Eta_HitPvEENS_22__allocator_destructorINS_9allocatorIS4_EEEEE11get_deleterEv
FN:2628,_ZNSt3__110unique_ptrINS_11__list_nodeI14Legendre_coefsPvEENS_22__allocator_destructorINS_9allocatorIS4_EEEEE11get_deleterEv
FN:2628,_ZNSt3__110unique_ptrINS_11__list_nodeI15Kalbach_one_EinPvEENS_22__allocator_destructorINS_9allocatorIS4_EEEEE11get_deleterEv
FN:2628,_ZNSt3__110unique_ptrINS_11__list_nodeI18cm_Legendre_vectorPvEENS_22__allocator_destructorINS_9allocatorIS4_EEEEE11get_deleterEv
FN:2628,_ZNSt3__110unique_ptrINS_11__list_nodeI24standard_Legendre_vectorPvEENS_22__allocator_destructorINS_9allocatorIS4_EEEEE11get_deleterEv
FN:2628,_ZNSt3__110unique_ptrINS_11__list_nodeIN4cmDD8one_EoutEPvEENS_22__allocator_destructorINS_9allocatorIS5_EEEEE11get_deleterEv
FN:2628,_ZNSt3__110unique_ptrINS_11__list_nodeI6one_muPvEENS_22__allocator_destructorINS_9allocatorIS4_EEEEE11get_deleterEv
FN:2628,_ZNSt3__110unique_ptrINS_11__list_nodeI13weight_vectorPvEENS_22__allocator_destructorINS_9allocatorIS4_EEEEE11get_deleterEv
FN:2628,_ZNSt3__110unique_ptrINS_11__list_nodeIN6quad_F12one_intervalEPvEENS_22__allocator_destructorINS_9allocatorIS5_EEEEE11get_deleterEv
FN:2628,_ZNSt3__110unique_ptrINS_11__list_nodeI15Boundary_cornerPvEENS_22__allocator_destructorINS_9allocatorIS4_EEEEE11get_deleterEv
FN:2628,_ZNSt3__110unique_ptrINS_11__list_nodeIdPvEENS_22__allocator_destructorINS_9allocatorIS3_EEEEE11get_deleterEv
FN:2628,_ZNSt3__110unique_ptrINS_11__list_nodeI21cumulative_prob_entryPvEENS_22__allocator_destructorINS_9allocatorIS4_EEEEE11get_deleterEv
FN:2628,_ZNSt3__110unique_ptrINS_11__list_nodeI9dd_vectorPvEENS_22__allocator_destructorINS_9allocatorIS4_EEEEE11get_deleterEv
FN:2628,_ZNSt3__110unique_ptrINS_11__list_nodeI12Eprob_vectorPvEENS_22__allocator_destructorINS_9allocatorIS4_EEEEE11get_deleterEv
FN:2628,_ZNSt3__110unique_ptrINS_11__list_nodeI15Vcm_quadBox_HitPvEENS_22__allocator_destructorINS_9allocatorIS4_EEEEE11get_deleterEv
FN:2641,_ZNSt3__110unique_ptrINS_11__list_nodeI14one_joint_distPvEENS_22__allocator_destructorINS_9allocatorIS4_EEEEE7releaseEv
FN:2641,_ZNSt3__110unique_ptrINS_11__list_nodeI12Eprob_vectorPvEENS_22__allocator_destructorINS_9allocatorIS4_EEEEE7releaseEv
FN:2641,_ZNSt3__110unique_ptrINS_11__list_nodeI21cumulative_prob_entryPvEENS_22__allocator_destructorINS_9allocatorIS4_EEEEE7releaseEv
FN:2641,_ZNSt3__110unique_ptrINS_11__list_nodeI14Legendre_coefsPvEENS_22__allocator_destructorINS_9allocatorIS4_EEEEE7releaseEv
FN:2641,_ZNSt3__110unique_ptrINS_11__list_nodeI7ss_linkPvEENS_22__allocator_destructorINS_9allocatorIS4_EEEEE7releaseEv
FN:2641,_ZNSt3__110unique_ptrINS_11__list_nodeI13weight_vectorPvEENS_22__allocator_destructorINS_9allocatorIS4_EEEEE7releaseEv
FN:2641,_ZNSt3__110unique_ptrINS_11__list_nodeIN6quad_F12one_intervalEPvEENS_22__allocator_destructorINS_9allocatorIS5_EEEEE7releaseEv
FN:2641,_ZNSt3__110unique_ptrINS_11__list_nodeI6one_muPvEENS_22__allocator_destructorINS_9allocatorIS4_EEEEE7releaseEv
FN:2641,_ZNSt3__110unique_ptrINS_11__list_nodeI18cm_Legendre_vectorPvEENS_22__allocator_destructorINS_9allocatorIS4_EEEEE7releaseEv
FN:2641,_ZNSt3__110unique_ptrINS_11__list_nodeIN4cmDD14one_joint_distEPvEENS_22__allocator_destructorINS_9allocatorIS5_EEEEE7releaseEv
FN:2641,_ZNSt3__110unique_ptrINS_11__list_nodeI9dd_vectorPvEENS_22__allocator_destructorINS_9allocatorIS4_EEEEE7releaseEv
FN:2641,_ZNSt3__110unique_ptrINS_11__list_nodeI13min_Eout_infoPvEENS_22__allocator_destructorINS_9allocatorIS4_EEEEE7releaseEv
FN:2641,_ZNSt3__110unique_ptrINS_11__list_nodeI24standard_Legendre_vectorPvEENS_22__allocator_destructorINS_9allocatorIS4_EEEEE7releaseEv
FN:2641,_ZNSt3__110unique_ptrINS_11__list_nodeIN4cmDD8one_EoutEPvEENS_22__allocator_destructorINS_9allocatorIS5_EEEEE7releaseEv
FN:2641,_ZNSt3__110unique_ptrINS_11__list_nodeI15Boundary_cornerPvEENS_22__allocator_destructorINS_9allocatorIS4_EEEEE7releaseEv
FN:2641,_ZNSt3__110unique_ptrI7__sFILEPFiPS1_EE7releaseEv
FN:2641,_ZNSt3__110unique_ptrINS_11__list_nodeI11Ein_Eta_HitPvEENS_22__allocator_destructorINS_9allocatorIS4_EEEEE7releaseEv
FN:2641,_ZNSt3__110unique_ptrINS_11__list_nodeIdPvEENS_22__allocator_destructorINS_9allocatorIS3_EEEEE7releaseEv
FN:2641,_ZNSt3__110unique_ptrINS_11__list_nodeI15Vcm_quadBox_HitPvEENS_22__allocator_destructorINS_9allocatorIS4_EEEEE7releaseEv
FN:2641,_ZNSt3__110unique_ptrINS_11__list_nodeI15Kalbach_one_EinPvEENS_22__allocator_destructorINS_9allocatorIS4_EEEEE7releaseEv
FN:2641,_ZNSt3__110unique_ptrINS_11__list_nodeI11coef_vectorPvEENS_22__allocator_destructorINS_9allocatorIS4_EEEEE7releaseEv
FN:2648,_ZNSt3__110unique_ptrINS_11__list_nodeI12Eprob_vectorPvEENS_22__allocator_destructorINS_9allocatorIS4_EEEEE5resetEPS4_
FN:2648,_ZNSt3__110unique_ptrINS_11__list_nodeIN4cmDD8one_EoutEPvEENS_22__allocator_destructorINS_9allocatorIS5_EEEEE5resetEPS5_
FN:2648,_ZNSt3__110unique_ptrINS_11__list_nodeI9dd_vectorPvEENS_22__allocator_destructorINS_9allocatorIS4_EEEEE5resetEPS4_
FN:2648,_ZNSt3__110unique_ptrINS_11__list_nodeI15Vcm_quadBox_HitPvEENS_22__allocator_destructorINS_9allocatorIS4_EEEEE5resetEPS4_
FN:2648,_ZNSt3__110unique_ptrINS_11__list_nodeI15Boundary_cornerPvEENS_22__allocator_destructorINS_9allocatorIS4_EEEEE5resetEPS4_
FN:2648,_ZNSt3__110unique_ptrINS_11__list_nodeI14Legendre_coefsPvEENS_22__allocator_destructorINS_9allocatorIS4_EEEEE5resetEPS4_
FN:2648,_ZNSt3__110unique_ptrINS_11__list_nodeI21cumulative_prob_entryPvEENS_22__allocator_destructorINS_9allocatorIS4_EEEEE5resetEPS4_
FN:2648,_ZNSt3__110unique_ptrINS_11__list_nodeI15Kalbach_one_EinPvEENS_22__allocator_destructorINS_9allocatorIS4_EEEEE5resetEPS4_
FN:2648,_ZNSt3__110unique_ptrINS_11__list_nodeI14one_joint_distPvEENS_22__allocator_destructorINS_9allocatorIS4_EEEEE5resetEPS4_
FN:2648,_ZNSt3__110unique_ptrINS_11__list_nodeI11coef_vectorPvEENS_22__allocator_destructorINS_9allocatorIS4_EEEEE5resetEPS4_
FN:2648,_ZNSt3__110unique_ptrINS_11__list_nodeI13weight_vectorPvEENS_22__allocator_destructorINS_9allocatorIS4_EEEEE5resetEPS4_
FN:2648,_ZNSt3__110unique_ptrINS_11__list_nodeIN4cmDD14one_joint_distEPvEENS_22__allocator_destructorINS_9allocatorIS5_EEEEE5resetEPS5_
FN:2648,_ZNSt3__110unique_ptrINS_11__list_nodeIN6quad_F12one_intervalEPvEENS_22__allocator_destructorINS_9allocatorIS5_EEEEE5resetEPS5_
FN:2648,_ZNSt3__110unique_ptrINS_11__list_nodeI11Ein_Eta_HitPvEENS_22__allocator_destructorINS_9allocatorIS4_EEEEE5resetEPS4_
FN:2648,_ZNSt3__110unique_ptrINS_11__list_nodeI18cm_Legendre_vectorPvEENS_22__allocator_destructorINS_9allocatorIS4_EEEEE5resetEPS4_
FN:2648,_ZNSt3__110unique_ptrINS_11__list_nodeI13min_Eout_infoPvEENS_22__allocator_destructorINS_9allocatorIS4_EEEEE5resetEPS4_
FN:2648,_ZNSt3__110unique_ptrI7__sFILEPFiPS1_EE5resetES2_
FN:2648,_ZNSt3__110unique_ptrINS_11__list_nodeIdPvEENS_22__allocator_destructorINS_9allocatorIS3_EEEEE5resetEPS3_
FN:2648,_ZNSt3__110unique_ptrINS_11__list_nodeI7ss_linkPvEENS_22__allocator_destructorINS_9allocatorIS4_EEEEE5resetEPS4_
FN:2648,_ZNSt3__110unique_ptrINS_11__list_nodeI24standard_Legendre_vectorPvEENS_22__allocator_destructorINS_9allocatorIS4_EEEEE5resetEPS4_
FN:2648,_ZNSt3__110unique_ptrINS_11__list_nodeI6one_muPvEENS_22__allocator_destructorINS_9allocatorIS4_EEEEE5resetEPS4_
FN:3218,_ZNSt3__122__allocator_destructorINS_9allocatorINS_11__list_nodeI13weight_vectorPvEEEEEC1ERS6_m
FN:3218,_ZNSt3__122__allocator_destructorINS_9allocatorINS_11__list_nodeI14Legendre_coefsPvEEEEEC2ERS6_m
FN:3218,_ZNSt3__122__allocator_destructorINS_9allocatorINS_11__list_nodeI12Eprob_vectorPvEEEEEC1ERS6_m
FN:3218,_ZNSt3__122__allocator_destructorINS_9allocatorINS_11__list_nodeI13min_Eout_infoPvEEEEEC2ERS6_m
FN:3218,_ZNSt3__122__allocator_destructorINS_9allocatorINS_11__list_nodeI14one_joint_distPvEEEEEC2ERS6_m
FN:3218,_ZNSt3__122__allocator_destructorINS_9allocatorINS_11__list_nodeI12Eprob_vectorPvEEEEEC2ERS6_m
FN:3218,_ZNSt3__122__allocator_destructorINS_9allocatorINS_11__list_nodeI15Kalbach_one_EinPvEEEEEC1ERS6_m
FN:3218,_ZNSt3__122__allocator_destructorINS_9allocatorINS_11__list_nodeI9dd_vectorPvEEEEEC1ERS6_m
FN:3218,_ZNSt3__122__allocator_destructorINS_9allocatorINS_11__list_nodeI14one_joint_distPvEEEEEC1ERS6_m
FN:3218,_ZNSt3__122__allocator_destructorINS_9allocatorINS_11__list_nodeI7ss_linkPvEEEEEC1ERS6_m
FN:3218,_ZNSt3__122__allocator_destructorINS_9allocatorINS_11__list_nodeI9dd_vectorPvEEEEEC2ERS6_m
FN:3218,_ZNSt3__122__allocator_destructorINS_9allocatorINS_11__list_nodeI6one_muPvEEEEEC2ERS6_m
FN:3218,_ZNSt3__122__allocator_destructorINS_9allocatorINS_11__list_nodeI15Boundary_cornerPvEEEEEC1ERS6_m
FN:3218,_ZNSt3__122__allocator_destructorINS_9allocatorINS_11__list_nodeI11Ein_Eta_HitPvEEEEEC2ERS6_m
FN:3218,_ZNSt3__122__allocator_destructorINS_9allocatorINS_11__list_nodeIN6quad_F12one_intervalEPvEEEEEC1ERS7_m
FN:3218,_ZNSt3__122__allocator_destructorINS_9allocatorINS_11__list_nodeIN4cmDD8one_EoutEPvEEEEEC1ERS7_m
FN:3218,_ZNSt3__122__allocator_destructorINS_9allocatorINS_11__list_nodeI24standard_Legendre_vectorPvEEEEEC2ERS6_m
FN:3218,_ZNSt3__122__allocator_destructorINS_9allocatorINS_11__list_nodeI7ss_linkPvEEEEEC2ERS6_m
FN:3218,_ZNSt3__122__allocator_destructorINS_9allocatorINS_11__list_nodeIN6quad_F12one_intervalEPvEEEEEC2ERS7_m
FN:3218,_ZNSt3__122__allocator_destructorINS_9allocatorINS_11__list_nodeI13min_Eout_infoPvEEEEEC1ERS6_m
FN:3218,_ZNSt3__122__allocator_destructorINS_9allocatorINS_11__list_nodeI11coef_vectorPvEEEEEC1ERS6_m
FN:3218,_ZNSt3__122__allocator_destructorINS_9allocatorINS_11__list_nodeI14Legendre_coefsPvEEEEEC1ERS6_m
FN:3218,_ZNSt3__122__allocator_destructorINS_9allocatorINS_11__list_nodeI21cumulative_prob_entryPvEEEEEC1ERS6_m
FN:3218,_ZNSt3__122__allocator_destructorINS_9allocatorINS_11__list_nodeI18cm_Legendre_vectorPvEEEEEC2ERS6_m
FN:3218,_ZNSt3__122__allocator_destructorINS_9allocatorINS_11__list_nodeI15Vcm_quadBox_HitPvEEEEEC1ERS6_m
FN:3218,_ZNSt3__122__allocator_destructorINS_9allocatorINS_11__list_nodeI6one_muPvEEEEEC1ERS6_m
FN:3218,_ZNSt3__122__allocator_destructorINS_9allocatorINS_11__list_nodeIdPvEEEEEC1ERS5_m
FN:3218,_ZNSt3__122__allocator_destructorINS_9allocatorINS_11__list_nodeI15Boundary_cornerPvEEEEEC2ERS6_m
FN:3218,_ZNSt3__122__allocator_destructorINS_9allocatorINS_11__list_nodeI15Kalbach_one_EinPvEEEEEC2ERS6_m
FN:3218,_ZNSt3__122__allocator_destructorINS_9allocatorINS_11__list_nodeIN4cmDD14one_joint_distEPvEEEEEC2ERS7_m
FN:3218,_ZNSt3__122__allocator_destructorINS_9allocatorINS_11__list_nodeI15Vcm_quadBox_HitPvEEEEEC2ERS6_m
FN:3218,_ZNSt3__122__allocator_destructorINS_9allocatorINS_11__list_nodeI18cm_Legendre_vectorPvEEEEEC1ERS6_m
FN:3218,_ZNSt3__122__allocator_destructorINS_9allocatorINS_11__list_nodeI24standard_Legendre_vectorPvEEEEEC1ERS6_m
FN:3218,_ZNSt3__122__allocator_destructorINS_9allocatorINS_11__list_nodeI11Ein_Eta_HitPvEEEEEC1ERS6_m
FN:3218,_ZNSt3__122__allocator_destructorINS_9allocatorINS_11__list_nodeIdPvEEEEEC2ERS5_m
FN:3218,_ZNSt3__122__allocator_destructorINS_9allocatorINS_11__list_nodeI13weight_vectorPvEEEEEC2ERS6_m
FN:3218,_ZNSt3__122__allocator_destructorINS_9allocatorINS_11__list_nodeI21cumulative_prob_entryPvEEEEEC2ERS6_m
FN:3218,_ZNSt3__122__allocator_destructorINS_9allocatorINS_11__list_nodeIN4cmDD8one_EoutEPvEEEEEC2ERS7_m
FN:3218,_ZNSt3__122__allocator_destructorINS_9allocatorINS_11__list_nodeIN4cmDD14one_joint_distEPvEEEEEC1ERS7_m
FN:3218,_ZNSt3__122__allocator_destructorINS_9allocatorINS_11__list_nodeI11coef_vectorPvEEEEEC2ERS6_m
FN:3222,_ZNSt3__122__allocator_destructorINS_9allocatorINS_11__list_nodeI11coef_vectorPvEEEEEclEPS5_
FN:3222,_ZNSt3__122__allocator_destructorINS_9allocatorINS_11__list_nodeI24standard_Legendre_vectorPvEEEEEclEPS5_
FN:3222,_ZNSt3__122__allocator_destructorINS_9allocatorINS_11__list_nodeI7ss_linkPvEEEEEclEPS5_
FN:3222,_ZNSt3__122__allocator_destructorINS_9allocatorINS_11__list_nodeI14one_joint_distPvEEEEEclEPS5_
FN:3222,_ZNSt3__122__allocator_destructorINS_9allocatorINS_11__list_nodeI11Ein_Eta_HitPvEEEEEclEPS5_
FN:3222,_ZNSt3__122__allocator_destructorINS_9allocatorINS_11__list_nodeI18cm_Legendre_vectorPvEEEEEclEPS5_
FN:3222,_ZNSt3__122__allocator_destructorINS_9allocatorINS_11__list_nodeIN6quad_F12one_intervalEPvEEEEEclEPS6_
FN:3222,_ZNSt3__122__allocator_destructorINS_9allocatorINS_11__list_nodeI15Vcm_quadBox_HitPvEEEEEclEPS5_
FN:3222,_ZNSt3__122__allocator_destructorINS_9allocatorINS_11__list_nodeI13min_Eout_infoPvEEEEEclEPS5_
FN:3222,_ZNSt3__122__allocator_destructorINS_9allocatorINS_11__list_nodeI14Legendre_coefsPvEEEEEclEPS5_
FN:3222,_ZNSt3__122__allocator_destructorINS_9allocatorINS_11__list_nodeIN4cmDD8one_EoutEPvEEEEEclEPS6_
FN:3222,_ZNSt3__122__allocator_destructorINS_9allocatorINS_11__list_nodeI15Boundary_cornerPvEEEEEclEPS5_
FN:3222,_ZNSt3__122__allocator_destructorINS_9allocatorINS_11__list_nodeI13weight_vectorPvEEEEEclEPS5_
FN:3222,_ZNSt3__122__allocator_destructorINS_9allocatorINS_11__list_nodeIN4cmDD14one_joint_distEPvEEEEEclEPS6_
FN:3222,_ZNSt3__122__allocator_destructorINS_9allocatorINS_11__list_nodeI9dd_vectorPvEEEEEclEPS5_
FN:3222,_ZNSt3__122__allocator_destructorINS_9allocatorINS_11__list_nodeIdPvEEEEEclEPS4_
FN:3222,_ZNSt3__122__allocator_destructorINS_9allocatorINS_11__list_nodeI12Eprob_vectorPvEEEEEclEPS5_
FN:3222,_ZNSt3__122__allocator_destructorINS_9allocatorINS_11__list_nodeI15Kalbach_one_EinPvEEEEEclEPS5_
FN:3222,_ZNSt3__122__allocator_destructorINS_9allocatorINS_11__list_nodeI21cumulative_prob_entryPvEEEEEclEPS5_
FN:3222,_ZNSt3__122__allocator_destructorINS_9allocatorINS_11__list_nodeI6one_muPvEEEEEclEPS5_
FNDA:424610970,_ZNSt3__122__compressed_pair_elemIRNS_9allocatorIdEELi1ELb0EE5__getEv
FNDA:86,_ZNSt3__117__compressed_pairIPNS_12basic_stringIcNS_11char_traitsIcEENS_9allocatorIcEEEENS4_IS6_EEEC1ES7_
FNDA:183445386,_ZNSt3__19allocatorIdE9constructIdEEvPdRKT_
FNDA:30609,_ZNSt3__19allocatorI8dd_entryE10deallocateEPS1_m
FNDA:74896284,_ZNSt3__122__compressed_pair_elemImLi0ELb0EEC2Em
FNDA:3442,_ZNSt3__114pointer_traitsIP12Eprob_vectorE10pointer_toERS1_
FNDA:41714,_ZNSt3__122__compressed_pair_elemIP8dd_entryLi0ELb0EEC2ES2_
FNDA:460,_ZNSt3__116allocator_traitsINS_9allocatorINS_11__list_nodeI9dd_vectorPvEEEEE10deallocateERS6_PS5_m
FNDA:1380,_ZNSt3__117__compressed_pairIPNS_11__list_nodeI9dd_vectorPvEENS_22__allocator_destructorINS_9allocatorIS4_EEEEEC2ES5_S9_
FNDA:279,_ZNSt3__110unique_ptrINS_11__list_nodeI18cm_Legendre_vectorPvEENS_22__allocator_destructorINS_9allocatorIS4_EEEEED1Ev
FNDA:19683,_ZNSt3__122__allocator_destructorINS_9allocatorINS_11__list_nodeIdPvEEEEEC2ERS5_m
FNDA:172,_ZNSt3__110unique_ptrI7__sFILEPFiPS1_EE5resetES2_
FNDA:59049,_ZNSt3__110unique_ptrINS_11__list_nodeIdPvEENS_22__allocator_destructorINS_9allocatorIS3_EEEEE7releaseEv
FNDA:278,_ZNSt3__122__allocator_destructorINS_9allocatorINS_11__list_nodeI24standard_Legendre_vectorPvEEEEEC1ERS6_m
FNDA:834,_ZNSt3__110unique_ptrINS_11__list_nodeI24standard_Legendre_vectorPvEENS_22__allocator_destructorINS_9allocatorIS4_EEEEED2Ev
FNDA:370709042,_ZNSt3__122__allocator_destructorINS_9allocatorINS_11__list_nodeI11Ein_Eta_HitPvEEEEEC1ERS6_m
FNDA:0,_ZNKSt3__110unique_ptrINS_11__list_nodeIN4cmDD8one_EoutEPvEENS_22__allocator_destructorINS_9allocatorIS5_EEEEE3getEv
FNDA:80,_ZNSt3__122__compressed_pair_elemINS_9allocatorINS_11__list_nodeI15Boundary_cornerPvEEEELi1ELb1EEC2Ev
FNDA:86,_ZNSt3__19allocatorINS_11__list_nodeI11coef_vectorPvEEEC2Ev
FNDA:741409778,_ZNSt3__117__compressed_pairImNS_9allocatorINS_11__list_nodeI11Ein_Eta_HitPvEEEEE5firstEv
FNDA:0,_ZNSt3__122__compressed_pair_elemINS_9allocatorINS_12basic_stringIcNS_11char_traitsIcEENS1_IcEEEEEELi1ELb1EE5__getEv
FNDA:12287,_ZNKSt3__117__compressed_pairImNS_9allocatorINS_11__list_nodeI11coef_vectorPvEEEEE5firstEv
FNDA:556,_ZNSt3__117__compressed_pairIPNS_11__list_nodeI24standard_Legendre_vectorPvEENS_22__allocator_destructorINS_9allocatorIS4_EEEEE6secondEv
FNDA:1112127126,_ZNSt3__110unique_ptrINS_11__list_nodeI11Ein_Eta_HitPvEENS_22__allocator_destructorINS_9allocatorIS4_EEEEE7releaseEv
FNDA:232,_ZNSt3__110unique_ptrINS_11__list_nodeI12Eprob_vectorPvEENS_22__allocator_destructorINS_9allocatorIS4_EEEEE11get_deleterEv
FNDA:2194,_ZNSt3__117__compressed_pairImNS_9allocatorINS_11__list_nodeIN4cmDD8one_EoutEPvEEEEE5firstEv
FNDA:74989,_ZNSt3__114pointer_traitsIP7ss_linkE10pointer_toERS1_
FNDA:86,_ZNSt3__122__compressed_pair_elemINS_9allocatorINS_11__list_nodeI15Kalbach_one_EinPvEEEELi1ELb1EEC2Ev
FNDA:22910122,_ZNSt3__114pointer_traitsIPNS_16__list_node_baseI11coef_vectorPvEEE10pointer_toERS4_
FNDA:1112127126,_ZNSt3__122__compressed_pair_elemIPNS_11__list_nodeI11Ein_Eta_HitPvEELi0ELb0EEC2ES5_
FNDA:291351060,_ZNKSt3__122__compressed_pair_elemINS_9allocatorI11Ein_Eta_HitEELi1ELb1EE5__getEv
FNDA:4358,_ZNSt3__122__compressed_pair_elemINS_22__allocator_destructorINS_9allocatorINS_11__list_nodeIN4cmDD8one_EoutEPvEEEEEELi1ELb0EE5__getEv
FNDA:186,_ZNSt3__110unique_ptrINS_11__list_nodeI18cm_Legendre_vectorPvEENS_22__allocator_destructorINS_9allocatorIS4_EEEEEcvNS_4__rvIS9_EEEv
FNDA:30609,_ZNSt3__122__compressed_pair_elemIRNS_9allocatorI8dd_entryEELi1ELb0EEC2ES4_
FNDA:378,_ZNSt3__110unique_ptrINS_11__list_nodeI13min_Eout_infoPvEENS_22__allocator_destructorINS_9allocatorIS4_EEEEED1Ev
FNDA:0,_ZNSt3__122__compressed_pair_elemIP9Ein_entryLi0ELb0EEC2ES2_
FNDA:4358,_ZNSt3__110unique_ptrINS_11__list_nodeIN4cmDD8one_EoutEPvEENS_22__allocator_destructorINS_9allocatorIS5_EEEEEC1ENS_4__rvISA_EE
FNDA:1110,_ZNSt3__117__compressed_pairImNS_9allocatorINS_11__list_nodeIdPvEEEEEC2Em
FNDA:93,_ZNSt3__122__allocator_destructorINS_9allocatorINS_11__list_nodeI18cm_Legendre_vectorPvEEEEEC1ERS6_m
FNDA:76,_ZNSt3__116allocator_traitsINS_9allocatorINS_11__list_nodeI6one_muPvEEEEE37select_on_container_copy_constructionERKS6_
FNDA:378,_ZNSt3__110unique_ptrINS_11__list_nodeI13min_Eout_infoPvEENS_22__allocator_destructorINS_9allocatorIS4_EEEEE5resetEPS4_
FNDA:920,_ZNSt3__110unique_ptrINS_11__list_nodeI9dd_vectorPvEENS_22__allocator_destructorINS_9allocatorIS4_EEEEE11get_deleterEv
FNDA:5520,_ZNSt3__122__compressed_pair_elemIPNS_11__list_nodeI9dd_vectorPvEELi0ELb0EE5__getEv
FNDA:15,_ZNSt3__116allocator_traitsINS_9allocatorINS_11__list_nodeIN4cmDD8one_EoutEPvEEEEE37select_on_container_copy_constructionERKS7_
FNDA:50256,_ZNSt3__116allocator_traitsINS_9allocatorINS_11__list_nodeI15Boundary_cornerPvEEEEE10deallocateERS6_PS5_m
FNDA:24372,_ZNSt3__114pointer_traitsIP13weight_vectorE10pointer_toERS1_
FNDA:43226172,_ZNSt3__110unique_ptrINS_11__list_nodeI15Vcm_quadBox_HitPvEENS_22__allocator_destructorINS_9allocatorIS4_EEEEEC1ENS_4__rvIS9_EE
FNDA:208,_ZNSt3__19allocatorINS_11__list_nodeI13min_Eout_infoPvEEEC2Ev
FNDA:603066910,_ZNKSt3__122__compressed_pair_elemImLi0ELb0EE5__getEv
FNDA:186,_ZNSt3__116allocator_traitsINS_9allocatorINS_11__list_nodeI15Kalbach_one_EinPvEEEEE9constructIS3_S3_EEvRS6_PT_RKT0_
FNDA:144,_ZNSt3__116allocator_traitsINS_9allocatorINS_11__list_nodeI11coef_vectorPvEEEEE10deallocateERS6_PS5_m
FNDA:370709042,_ZNSt3__116allocator_traitsINS_9allocatorINS_11__list_nodeI11Ein_Eta_HitPvEEEEE9__destroyIS3_EEvNS_17integral_constantIbLb0EEERS6_PT_
FNDA:460,_ZNSt3__19allocatorINS_11__list_nodeI9dd_vectorPvEEE8allocateEmPKv
FNDA:21613086,_ZNSt3__116allocator_traitsINS_9allocatorINS_11__list_nodeI15Vcm_quadBox_HitPvEEEEE9__destroyIS3_EEvNS_17integral_constantIbLb0EEERS6_PT_
FNDA:0,_ZNSt3__122__allocator_destructorINS_9allocatorINS_11__list_nodeI12Eprob_vectorPvEEEEEclEPS5_
FNDA:144,_ZNKSt3__110unique_ptrINS_11__list_nodeI11coef_vectorPvEENS_22__allocator_destructorINS_9allocatorIS4_EEEEEptEv
FNDA:64839258,_ZNSt3__110unique_ptrINS_11__list_nodeI15Vcm_quadBox_HitPvEENS_22__allocator_destructorINS_9allocatorIS4_EEEEED2Ev
FNDA:0,_ZNSt3__116allocator_traitsINS_9allocatorI9Ein_entryEEE11__constructIS2_S2_EEvNS_17integral_constantIbLb1EEERS3_PT_RKT0_
FNDA:2179,_ZNSt3__122__allocator_destructorINS_9allocatorINS_11__list_nodeIN4cmDD8one_EoutEPvEEEEEC2ERS7_m
FNDA:2248,_ZNSt3__116allocator_traitsINS_9allocatorI8dd_entryEEE19__construct_forwardIPS2_EEvRS3_T_S8_RS8_
FNDA:228,_ZNSt3__117__compressed_pairIPNS_11__list_nodeI14one_joint_distPvEENS_22__allocator_destructorINS_9allocatorIS4_EEEEEC2ES5_S9_
FNDA:15,_ZNSt3__116allocator_traitsINS_9allocatorINS_11__list_nodeIN4cmDD14one_joint_distEPvEEEEE9constructIS4_S4_EEvRS7_PT_RKT0_
FNDA:612994,_ZNSt3__117__compressed_pairIP8dd_entryNS_9allocatorIS1_EEE6secondEv
FNDA:76,_ZNSt3__19allocatorINS_11__list_nodeI14one_joint_distPvEEE10deallocateEPS4_m
FNDA:303123600,_ZNSt3__19allocatorI11Ein_Eta_HitEC2Ev
FNDA:57593046,_ZNKSt3__122__compressed_pair_elemIPNS_11__list_nodeI15Vcm_quadBox_HitPvEELi0ELb0EE5__getEv
FNDA:0,_ZNSt3__122__compressed_pair_elemINS_9allocatorI11Ein_entriesEELi1ELb1EE5__getEv
FNDA:61218,_ZNKSt3__19allocatorI8dd_entryE8max_sizeEv
FNDA:39366,_ZNSt3__122__compressed_pair_elemINS_22__allocator_destructorINS_9allocatorINS_11__list_nodeIdPvEEEEEELi1ELb0EE5__getEv
FNDA:7157,_ZNSt3__122__allocator_destructorINS_9allocatorINS_11__list_nodeI21cumulative_prob_entryPvEEEEEC2ERS6_m
FNDA:0,_ZNSt3__19allocatorI9Ein_entryE7destroyEPS1_
FNDA:120404259,_ZNSt3__116allocator_traitsINS_9allocatorINS_11__list_nodeIN6quad_F12one_intervalEPvEEEEE10deallocateERS7_PS6_m
FNDA:147,_ZNSt3__117__compressed_pairImNS_9allocatorINS_11__list_nodeI11coef_vectorPvEEEEE6secondEv
FNDA:920,_ZNSt3__110unique_ptrINS_11__list_nodeI9dd_vectorPvEENS_22__allocator_destructorINS_9allocatorIS4_EEEEEcvNS_4__rvIS9_EEEv
FNDA:97488,_ZNSt3__117__compressed_pairIPNS_11__list_nodeI13weight_vectorPvEENS_22__allocator_destructorINS_9allocatorIS4_EEEEE5firstEv
FNDA:348,_ZNSt3__117__compressed_pairIPNS_11__list_nodeI12Eprob_vectorPvEENS_22__allocator_destructorINS_9allocatorIS4_EEEEEC2ES5_S9_
FNDA:232,_ZNSt3__110unique_ptrINS_11__list_nodeI12Eprob_vectorPvEENS_22__allocator_destructorINS_9allocatorIS4_EEEEEC2ENS_4__rvIS9_EE
FNDA:8124,_ZNSt3__122__allocator_destructorINS_9allocatorINS_11__list_nodeI13weight_vectorPvEEEEEC2ERS6_m
FNDA:86,_ZNKSt3__117__compressed_pairImNS_9allocatorINS_11__list_nodeI13weight_vectorPvEEEEE5firstEv
FNDA:93,_ZNSt3__19allocatorINS_11__list_nodeI18cm_Legendre_vectorPvEEE10deallocateEPS4_m
FNDA:1205,_ZNSt3__116allocator_traitsINS_9allocatorINS_11__list_nodeI6one_muPvEEEEE10deallocateERS6_PS5_m
FNDA:318166,_ZNSt3__117__compressed_pairIP8dd_entryNS_9allocatorIS1_EEE5firstEv
FNDA:86,_ZNSt3__19allocatorINS_11__list_nodeI7ss_linkPvEEEC2Ev
FNDA:279,_ZNSt3__110unique_ptrINS_11__list_nodeI18cm_Legendre_vectorPvEENS_22__allocator_destructorINS_9allocatorIS4_EEEEE5resetEPS4_
FNDA:76,_ZNKSt3__122__compressed_pair_elemINS_9allocatorINS_11__list_nodeI6one_muPvEEEELi1ELb1EE5__getEv
FNDA:90609,_ZNSt3__110unique_ptrINS_11__list_nodeI14Legendre_coefsPvEENS_22__allocator_destructorINS_9allocatorIS4_EEEEED1Ev
FNDA:16248,_ZNSt3__117__compressed_pairIPNS_11__list_nodeI13weight_vectorPvEENS_22__allocator_destructorINS_9allocatorIS4_EEEEE6secondEv
FNDA:90609,_ZNKSt3__117__compressed_pairIPNS_11__list_nodeI14Legendre_coefsPvEENS_22__allocator_destructorINS_9allocatorIS4_EEEEE5firstEv
FNDA:76,_ZNSt3__116allocator_traitsINS_9allocatorINS_11__list_nodeI14one_joint_distPvEEEEE10deallocateERS6_PS5_m
FNDA:558,_ZNKSt3__110unique_ptrINS_11__list_nodeI15Kalbach_one_EinPvEENS_22__allocator_destructorINS_9allocatorIS4_EEEEEptEv
FNDA:291351060,_ZNSt3__116allocator_traitsINS_9allocatorI11Ein_Eta_HitEEE20__construct_backwardIPS2_EEvRS3_T_S8_RS8_
FNDA:19401,_ZNSt3__114pointer_traitsIPNS_16__list_node_baseI15Kalbach_one_EinPvEEE10pointer_toERS4_
FNDA:14314,_ZNSt3__122__compressed_pair_elemINS_22__allocator_destructorINS_9allocatorINS_11__list_nodeI21cumulative_prob_entryPvEEEEEELi1ELb0EE5__getEv
FNDA:86,_ZNSt3__19allocatorINS_11__list_nodeIN4cmDD14one_joint_distEPvEEEC2Ev
FNDA:612994,_ZNSt3__122__compressed_pair_elemINS_9allocatorI8dd_entryEELi1ELb1EE5__getEv
FNDA:291770976,_ZNSt3__122__compressed_pair_elemIRNS_9allocatorI11Ein_Eta_HitEELi1ELb0EE5__getEv
FNDA:30203,_ZNKSt3__19allocatorINS_11__list_nodeI14Legendre_coefsPvEEE8max_sizeEv
FNDA:15,_ZNSt3__117__compressed_pairImNS_9allocatorINS_11__list_nodeIN4cmDD8one_EoutEPvEEEEEC2EmS7_
FNDA:7157,_ZNSt3__110unique_ptrINS_11__list_nodeI21cumulative_prob_entryPvEENS_22__allocator_destructorINS_9allocatorIS4_EEEEEC1EPS4_S8_
FNDA:74839757,_ZNSt3__19allocatorINS_11__list_nodeIN6quad_F12one_intervalEPvEEEC2Ev
FNDA:0,_ZNSt3__122__allocator_destructorINS_9allocatorINS_11__list_nodeIdPvEEEEEclEPS4_
FNDA:371,_ZNKSt3__117__compressed_pairImNS_9allocatorINS_11__list_nodeI14Legendre_coefsPvEEEEE6secondEv
FNDA:2159,_ZNSt3__116allocator_traitsINS_9allocatorINS_11__list_nodeI7ss_linkPvEEEEE11__constructIS3_S3_EEvNS_17integral_constantIbLb0EEERS6_PT_RKT0_
FNDA:152,_ZNSt3__122__compressed_pair_elemINS_22__allocator_destructorINS_9allocatorINS_11__list_nodeI14one_joint_distPvEEEEEELi1ELb0EE5__getEv
FNDA:15,_ZNSt3__122__allocator_destructorINS_9allocatorINS_11__list_nodeIN4cmDD14one_joint_distEPvEEEEEC2ERS7_m
FNDA:126,_ZNSt3__19allocatorINS_11__list_nodeI13min_Eout_infoPvEEE8allocateEmPKv
FNDA:120404259,_ZNSt3__19allocatorINS_11__list_nodeIN6quad_F12one_intervalEPvEEE10deallocateEPS5_m
FNDA:97488,_ZNSt3__122__compressed_pair_elemIPNS_11__list_nodeI13weight_vectorPvEELi0ELb0EE5__getEv
FNDA:186,_ZNSt3__116allocator_traitsINS_9allocatorINS_11__list_nodeI15Kalbach_one_EinPvEEEEE9__destroyIS3_EEvNS_17integral_constantIbLb0EEERS6_PT_
FNDA:39366,_ZNSt3__110unique_ptrINS_11__list_nodeIdPvEENS_22__allocator_destructorINS_9allocatorIS3_EEEEEcvNS_4__rvIS8_EEEv
FNDA:1112127126,_ZNSt3__110unique_ptrINS_11__list_nodeI11Ein_Eta_HitPvEENS_22__allocator_destructorINS_9allocatorIS4_EEEEE5resetEPS4_
FNDA:8124,_ZNSt3__110unique_ptrINS_11__list_nodeI13weight_vectorPvEENS_22__allocator_destructorINS_9allocatorIS4_EEEEEC2EPS4_S8_
FNDA:50256,_ZNSt3__116allocator_traitsINS_9allocatorINS_11__list_nodeI15Boundary_cornerPvEEEEE9constructIS3_S3_EEvRS6_PT_RKT0_
FNDA:14314,_ZNSt3__110unique_ptrINS_11__list_nodeI21cumulative_prob_entryPvEENS_22__allocator_destructorINS_9allocatorIS4_EEEEE11get_deleterEv
FNDA:173967576,_ZNKSt3__122__compressed_pair_elemINS_9allocatorIdEELi1ELb1EE5__getEv
FNDA:86,_ZNSt3__122__compressed_pair_elemINS_9allocatorINS_11__list_nodeI7ss_linkPvEEEELi1ELb1EEC2Ev
FNDA:278,_ZNSt3__116allocator_traitsINS_9allocatorINS_11__list_nodeI24standard_Legendre_vectorPvEEEEE10deallocateERS6_PS5_m
FNDA:60406,_ZNSt3__110unique_ptrINS_11__list_nodeI14Legendre_coefsPvEENS_22__allocator_destructorINS_9allocatorIS4_EEEEEC2ENS_4__rvIS9_EE
FNDA:24372,_ZNSt3__110unique_ptrINS_11__list_nodeI13weight_vectorPvEENS_22__allocator_destructorINS_9allocatorIS4_EEEEED1Ev
FNDA:6477,_ZNKSt3__122__compressed_pair_elemIPNS_11__list_nodeI7ss_linkPvEELi0ELb0EE5__getEv
FNDA:0,_ZNKSt3__117__compressed_pairIP11Ein_entriesRNS_9allocatorIS1_EEE5firstEv
FNDA:372,_ZNSt3__114pointer_traitsIP18cm_Legendre_vectorE10pointer_toERS1_
FNDA:4166190,_ZNSt3__114pointer_traitsIPKN4cmDD14one_joint_distEE10pointer_toERS3_
FNDA:86,_ZNSt3__122__compressed_pair_elemINS_9allocatorINS_11__list_nodeIN4cmDD14one_joint_distEPvEEEELi1ELb1EEC2Ev
FNDA:21613086,_ZNSt3__122__allocator_destructorINS_9allocatorINS_11__list_nodeI15Vcm_quadBox_HitPvEEEEEC2ERS6_m
FNDA:25236192,_ZNSt3__122__compressed_pair_elemINS_9allocatorINS_11__list_nodeI15Vcm_quadBox_HitPvEEEELi1ELb1EE5__getEv
FNDA:344,_ZNSt3__1L16__to_raw_pointerINS_12basic_stringIcNS_11char_traitsIcEENS_9allocatorIcEEEEEEPT_S8_
FNDA:1165404240,_ZNSt3__122__compressed_pair_elemIP11Ein_Eta_HitLi0ELb0EE5__getEv
FNDA:38071761,_ZNKSt3__117__compressed_pairINS_12basic_stringIcNS_11char_traitsIcEENS_9allocatorIcEEE5__repES5_E5firstEv
FNDA:348,_ZNSt3__110unique_ptrINS_11__list_nodeI12Eprob_vectorPvEENS_22__allocator_destructorINS_9allocatorIS4_EEEEED2Ev
FNDA:76,_ZNSt3__117__compressed_pairImNS_9allocatorINS_11__list_nodeI6one_muPvEEEEEC1EmS6_
FNDA:2676,_ZNSt3__19allocatorINS_11__list_nodeI21cumulative_prob_entryPvEEEC2Ev
FNDA:0,_ZNSt3__117__compressed_pairIP11Ein_entriesNS_9allocatorIS1_EEE6secondEv
FNDA:371,_ZNSt3__117__compressed_pairImNS_9allocatorINS_11__list_nodeI14Legendre_coefsPvEEEEEC2EmS6_
FNDA:0,_ZNSt3__116allocator_traitsINS_9allocatorI11Ein_entriesEEE8max_sizeERKS3_
FNDA:39366,_ZNSt3__110unique_ptrINS_11__list_nodeIdPvEENS_22__allocator_destructorINS_9allocatorIS3_EEEEE11get_deleterEv
FNDA:150768,_ZNSt3__117__compressed_pairIPNS_11__list_nodeI15Boundary_cornerPvEENS_22__allocator_destructorINS_9allocatorIS4_EEEEEC1ES5_S9_
FNDA:1692,_ZNSt3__116allocator_traitsINS_9allocatorINS_11__list_nodeI21cumulative_prob_entryPvEEEEE39__select_on_container_copy_constructionENS_17integral_constantIbLb0EEERKS6_
FNDA:11567685,_ZNKSt3__19allocatorIcE8max_sizeEv
FNDA:144,_ZNSt3__122__allocator_destructorINS_9allocatorINS_11__list_nodeI11coef_vectorPvEEEEEC2ERS6_m
FNDA:30203,_ZNSt3__110unique_ptrINS_11__list_nodeI14Legendre_coefsPvEENS_22__allocator_destructorINS_9allocatorIS4_EEEEEC1EPS4_S8_
FNDA:11567682,_ZNSt3__116allocator_traitsINS_9allocatorIcEEE8max_sizeERKS2_
FNDA:16248,_ZNSt3__110unique_ptrINS_11__list_nodeI13weight_vectorPvEENS_22__allocator_destructorINS_9allocatorIS4_EEEEEcvNS_4__rvIS9_EEEv
FNDA:120404259,_ZNSt3__116allocator_traitsINS_9allocatorINS_11__list_nodeIN6quad_F12one_intervalEPvEEEEE11__constructIS4_S4_EEvNS_17integral_constantIbLb0EEERS7_PT_RKT0_
FNDA:116,_ZNSt3__116allocator_traitsINS_9allocatorINS_11__list_nodeI12Eprob_vectorPvEEEEE9constructIS3_S3_EEvRS6_PT_RKT0_
FNDA:0,_ZNSt3__122__allocator_destructorINS_9allocatorINS_11__list_nodeI6one_muPvEEEEEclEPS5_
FNDA:0,_ZNSt3__122__allocator_destructorINS_9allocatorINS_11__list_nodeI21cumulative_prob_entryPvEEEEEclEPS5_
FNDA:59049,_ZNSt3__117__compressed_pairIPNS_11__list_nodeIdPvEENS_22__allocator_destructorINS_9allocatorIS3_EEEEEC1ES4_S8_
FNDA:14314,_ZNSt3__117__compressed_pairIPNS_11__list_nodeI21cumulative_prob_entryPvEENS_22__allocator_destructorINS_9allocatorIS4_EEEEE6secondEv
FNDA:33559,_ZNSt3__122__compressed_pair_elemINS_9allocatorINS_11__list_nodeIdPvEEEELi1ELb1EE5__getEv
FNDA:86,_ZNKSt3__117__compressed_pairImNS_9allocatorINS_11__list_nodeI15Kalbach_one_EinPvEEEEE5firstEv
FNDA:67008,_ZNSt3__122__compressed_pair_elemINS_9allocatorINS_11__list_nodeI15Boundary_cornerPvEEEELi1ELb1EE5__getEv
FNDA:279,_ZNKSt3__110unique_ptrINS_11__list_nodeI18cm_Legendre_vectorPvEENS_22__allocator_destructorINS_9allocatorIS4_EEEEEptEv
FNDA:2159,_ZNKSt3__19allocatorINS_11__list_nodeI7ss_linkPvEEE8max_sizeEv
FNDA:2179,_ZNSt3__19allocatorINS_11__list_nodeIN4cmDD8one_EoutEPvEEE8allocateEmPKv
FNDA:90609,_ZNSt3__117__compressed_pairIPNS_11__list_nodeI14Legendre_coefsPvEENS_22__allocator_destructorINS_9allocatorIS4_EEEEEC1ES5_S9_
FNDA:46585,_ZNSt3__117__compressed_pairImNS_9allocatorINS_11__list_nodeI11Ein_Eta_HitPvEEEEEC1Em
FNDA:21471,_ZNKSt3__110unique_ptrINS_11__list_nodeI21cumulative_prob_entryPvEENS_22__allocator_destructorINS_9allocatorIS4_EEEEEptEv
FNDA:21613086,_ZNSt3__19allocatorINS_11__list_nodeI15Vcm_quadBox_HitPvEEE8allocateEmPKv
FNDA:15,_ZNSt3__122__allocator_destructorINS_9allocatorINS_11__list_nodeIN4cmDD14one_joint_distEPvEEEEEC1ERS7_m
FNDA:1692,_ZNSt3__117__compressed_pairImNS_9allocatorINS_11__list_nodeI21cumulative_prob_entryPvEEEEEC1EmS6_
FNDA:30609,_ZNKSt3__122__compressed_pair_elemINS_9allocatorI8dd_entryEELi1ELb1EE5__getEv
FNDA:120404259,_ZNSt3__110unique_ptrINS_11__list_nodeIN6quad_F12one_intervalEPvEENS_22__allocator_destructorINS_9allocatorIS5_EEEEEC1EPS5_S9_
FNDA:3615,_ZNSt3__110unique_ptrINS_11__list_nodeI6one_muPvEENS_22__allocator_destructorINS_9allocatorIS4_EEEEE5resetEPS4_
FNDA:1512,_ZNSt3__122__compressed_pair_elemIPNS_11__list_nodeI13min_Eout_infoPvEELi0ELb0EE5__getEv
FNDA:460,_ZNSt3__116allocator_traitsINS_9allocatorINS_11__list_nodeI9dd_vectorPvEEEEE7destroyIS3_EEvRS6_PT_
FNDA:608821965,_ZNSt3__117__compressed_pairIPdNS_9allocatorIdEEE6secondEv
FNDA:86,_ZNSt3__122__compressed_pair_elemIPNS_12basic_stringIcNS_11char_traitsIcEENS_9allocatorIcEEEELi0ELb0EEC2ES7_
FNDA:0,_ZNSt3__19allocatorI9Ein_entryE8allocateEmPKv
FNDA:208,_ZNSt3__122__compressed_pair_elemINS_9allocatorINS_11__list_nodeI13min_Eout_infoPvEEEELi1ELb1EEC2Ev
FNDA:21613086,_ZNSt3__116allocator_traitsINS_9allocatorINS_11__list_nodeI15Vcm_quadBox_HitPvEEEEE8allocateERS6_m
FNDA:127,_ZNSt3__122__compressed_pair_elemINS_9allocatorINS_11__list_nodeI12Eprob_vectorPvEEEELi1ELb1EE5__getEv
FNDA:218,_ZNKSt3__117__compressed_pairImNS_9allocatorINS_11__list_nodeI9dd_vectorPvEEEEE5firstEv
FNDA:469548,_ZNSt3__122__compressed_pair_elemIRNS_9allocatorI8dd_entryEELi1ELb0EE5__getEv
FNDA:144,_ZNSt3__19allocatorINS_11__list_nodeI11coef_vectorPvEEE8allocateEmPKv
FNDA:1110,_ZNSt3__117__compressed_pairImNS_9allocatorINS_11__list_nodeIdPvEEEEEC1Em
FNDA:131437252,_ZNSt3__114pointer_traitsIPNS_16__list_node_baseI14Legendre_coefsPvEEE10pointer_toERS4_
FNDA:86,_ZNSt3__117__compressed_pairImNS_9allocatorINS_11__list_nodeI11coef_vectorPvEEEEEC2Em
FNDA:172,_ZNKSt3__117__compressed_pairIPNS_12basic_stringIcNS_11char_traitsIcEENS_9allocatorIcEEEENS4_IS6_EEE5firstEv
FNDA:288,_ZNSt3__117__compressed_pairIPNS_11__list_nodeI11coef_vectorPvEENS_22__allocator_destructorINS_9allocatorIS4_EEEEE6secondEv
FNDA:21471,_ZNSt3__122__compressed_pair_elemINS_22__allocator_destructorINS_9allocatorINS_11__list_nodeI21cumulative_prob_entryPvEEEEEELi1ELb0EEC2ES8_
FNDA:45,_ZNSt3__117__compressed_pairIPNS_11__list_nodeIN4cmDD14one_joint_distEPvEENS_22__allocator_destructorINS_9allocatorIS5_EEEEEC2ES6_SA_
FNDA:432,_ZNSt3__110unique_ptrINS_11__list_nodeI11coef_vectorPvEENS_22__allocator_destructorINS_9allocatorIS4_EEEEE7releaseEv
FNDA:291351060,_ZNKSt3__117__compressed_pairIP11Ein_Eta_HitNS_9allocatorIS1_EEE6secondEv
FNDA:106003959,_ZNKSt3__117__compressed_pairIPdRNS_9allocatorIdEEE5firstEv
FNDA:64839258,_ZNSt3__117__compressed_pairIPNS_11__list_nodeI15Vcm_quadBox_HitPvEENS_22__allocator_destructorINS_9allocatorIS4_EEEEEC1ES5_S9_
FNDA:558,_ZNSt3__110unique_ptrINS_11__list_nodeI15Kalbach_one_EinPvEENS_22__allocator_destructorINS_9allocatorIS4_EEEEE7releaseEv
FNDA:16248,_ZNSt3__110unique_ptrINS_11__list_nodeI13weight_vectorPvEENS_22__allocator_destructorINS_9allocatorIS4_EEEEEC1ENS_4__rvIS9_EE
FNDA:361212777,_ZNKSt3__122__compressed_pair_elemIPNS_11__list_nodeIN6quad_F12one_intervalEPvEELi0ELb0EE5__getEv
FNDA:172,_ZNSt3__122__compressed_pair_elemIP7__sFILELi0ELb0EEC2ES2_
FNDA:288,_ZNKSt3__110unique_ptrINS_11__list_nodeI11coef_vectorPvEENS_22__allocator_destructorINS_9allocatorIS4_EEEEE3getEv
FNDA:172,_ZNSt3__110unique_ptrI7__sFILEPFiPS1_EEC2ES2_S4_
FNDA:2354143602,_ZNKSt3__117__compressed_pairIP11Ein_Eta_HitNS_9allocatorIS1_EEE5firstEv
FNDA:76,_ZNSt3__116allocator_traitsINS_9allocatorINS_11__list_nodeI14one_joint_distPvEEEEE9constructIS3_S3_EEvRS6_PT_RKT0_
FNDA:69699,_ZNSt3__114pointer_traitsIP14Legendre_coefsE10pointer_toERS1_
FNDA:39366,_ZNKSt3__110unique_ptrINS_11__list_nodeIdPvEENS_22__allocator_destructorINS_9allocatorIS3_EEEEE3getEv
FNDA:59049,_ZNSt3__110unique_ptrINS_11__list_nodeIdPvEENS_22__allocator_destructorINS_9allocatorIS3_EEEEE5resetEPS3_
FNDA:9179597,_ZNSt3__114pointer_traitsIPNS_16__list_node_baseI6one_muPvEEE10pointer_toERS4_
FNDA:150768,_ZNSt3__110unique_ptrINS_11__list_nodeI15Boundary_cornerPvEENS_22__allocator_destructorINS_9allocatorIS4_EEEEED1Ev
FNDA:180,_ZNSt3__122__compressed_pair_elemIPNS_11__list_nodeIN4cmDD14one_joint_distEPvEELi0ELb0EE5__getEv
FNDA:0,_ZNSt3__116allocator_traitsINS_9allocatorINS_12basic_stringIcNS_11char_traitsIcEENS1_IcEEEEEEE10deallocateERS7_PS6_m
FNDA:30609,_ZNSt3__117__compressed_pairIP8dd_entryRNS_9allocatorIS1_EEEC1ES2_S5_
FNDA:258,_ZNSt3__117__compressed_pairImNS_9allocatorINS_11__list_nodeI24standard_Legendre_vectorPvEEEEEC2Em
FNDA:381632,_ZNSt3__122__compressed_pair_elemIP8dd_entryLi0ELb0EE5__getEv
FNDA:698662,_ZNSt3__116allocator_traitsINS_9allocatorI8dd_entryEEE7destroyIS2_EEvRS3_PT_
FNDA:0,_ZNKSt3__117__compressed_pairIP9Ein_entryNS_9allocatorIS1_EEE5firstEv
FNDA:912,_ZNSt3__117__compressed_pairIPNS_11__list_nodeI14one_joint_distPvEENS_22__allocator_destructorINS_9allocatorIS4_EEEEE5firstEv
FNDA:920,_ZNSt3__110unique_ptrINS_11__list_nodeI9dd_vectorPvEENS_22__allocator_destructorINS_9allocatorIS4_EEEEEC1ENS_4__rvIS9_EE
FNDA:86,_ZNSt3__122__compressed_pair_elemINS_9allocatorINS_12basic_stringIcNS_11char_traitsIcEENS1_IcEEEEEELi1ELb1EEC2Ev
FNDA:76,_ZNSt3__122__compressed_pair_elemINS_9allocatorINS_11__list_nodeI6one_muPvEEEELi1ELb1EEC2Ev
FNDA:0,_ZNKSt3__110unique_ptrINS_11__list_nodeI21cumulative_prob_entryPvEENS_22__allocator_destructorINS_9allocatorIS4_EEEEE3getEv
FNDA:291770976,_ZNSt3__117__compressed_pairIP11Ein_Eta_HitRNS_9allocatorIS1_EEE6secondEv
FNDA:1392,_ZNSt3__117__compressed_pairIPNS_11__list_nodeI12Eprob_vectorPvEENS_22__allocator_destructorINS_9allocatorIS4_EEEEE5firstEv
FNDA:2179,_ZNSt3__116allocator_traitsINS_9allocatorINS_11__list_nodeIN4cmDD8one_EoutEPvEEEEE7destroyIS4_EEvRS7_PT_
FNDA:8210,_ZNSt3__117__compressed_pairImNS_9allocatorINS_11__list_nodeI13weight_vectorPvEEEEE5firstEv
FNDA:278,_ZNSt3__110unique_ptrINS_11__list_nodeI24standard_Legendre_vectorPvEENS_22__allocator_destructorINS_9allocatorIS4_EEEEEC1EPS4_S8_
FNDA:328084821,_ZNSt3__116allocator_traitsINS_9allocatorIdEEE9__destroyIdEEvNS_17integral_constantIbLb1EEERS2_PT_
FNDA:144,_ZNSt3__116allocator_traitsINS_9allocatorINS_11__list_nodeI11coef_vectorPvEEEEE9__destroyIS3_EEvNS_17integral_constantIbLb0EEERS6_PT_
FNDA:0,_ZNSt3__117__compressed_pairIP11Ein_entriesRNS_9allocatorIS1_EEEC2ES2_S5_
FNDA:59049,_ZNSt3__110unique_ptrINS_11__list_nodeIdPvEENS_22__allocator_destructorINS_9allocatorIS3_EEEEED1Ev
FNDA:126,_ZNSt3__110unique_ptrINS_11__list_nodeI13min_Eout_infoPvEENS_22__allocator_destructorINS_9allocatorIS4_EEEEEC2EPS4_S8_
FNDA:741418084,_ZNSt3__110unique_ptrINS_11__list_nodeI11Ein_Eta_HitPvEENS_22__allocator_destructorINS_9allocatorIS4_EEEEEC1ENS_4__rvIS9_EE
FNDA:144,_ZNSt3__110unique_ptrINS_11__list_nodeI11coef_vectorPvEENS_22__allocator_destructorINS_9allocatorIS4_EEEEEC1EPS4_S8_
FNDA:6477,_ZNSt3__117__compressed_pairIPNS_11__list_nodeI7ss_linkPvEENS_22__allocator_destructorINS_9allocatorIS4_EEEEEC2ES5_S9_
FNDA:46025,_ZNSt3__114pointer_traitsIPNS_16__list_node_baseI18cm_Legendre_vectorPvEEE10pointer_toERS4_
FNDA:0,_ZNSt3__116allocator_traitsINS_9allocatorI11Ein_entriesEEE7destroyIS2_EEvRS3_PT_
FNDA:228,_ZNKSt3__117__compressed_pairIPNS_11__list_nodeI14one_joint_distPvEENS_22__allocator_destructorINS_9allocatorIS4_EEEEE5firstEv
FNDA:30609,_ZNSt3__116allocator_traitsINS_9allocatorI8dd_entryEEE10__max_sizeENS_17integral_constantIbLb1EEERKS3_
FNDA:348,_ZNKSt3__117__compressed_pairIPNS_11__list_nodeI12Eprob_vectorPvEENS_22__allocator_destructorINS_9allocatorIS4_EEEEE5firstEv
FNDA:172,_ZNKSt3__122__compressed_pair_elemIPNS_12basic_stringIcNS_11char_traitsIcEENS_9allocatorIcEEEELi0ELb0EE5__getEv
FNDA:371,_ZNSt3__122__compressed_pair_elemINS_9allocatorINS_11__list_nodeI14Legendre_coefsPvEEEELi1ELb1EEC2ES6_
FNDA:39366,_ZNSt3__110unique_ptrINS_11__list_nodeIdPvEENS_22__allocator_destructorINS_9allocatorIS3_EEEEEC2ENS_4__rvIS8_EE
FNDA:2179,_ZNSt3__110unique_ptrINS_11__list_nodeIN4cmDD8one_EoutEPvEENS_22__allocator_destructorINS_9allocatorIS5_EEEEEC2EPS5_S9_
FNDA:43226172,_ZNSt3__110unique_ptrINS_11__list_nodeI15Vcm_quadBox_HitPvEENS_22__allocator_destructorINS_9allocatorIS4_EEEEE11get_deleterEv
FNDA:173967576,_ZNSt3__122__compressed_pair_elemIRNS_9allocatorIdEELi1ELb0EEC2ES3_
FNDA:0,_ZNSt3__122__allocator_destructorINS_9allocatorINS_11__list_nodeI15Kalbach_one_EinPvEEEEEclEPS5_
FNDA:6537,_ZNSt3__110unique_ptrINS_11__list_nodeIN4cmDD8one_EoutEPvEENS_22__allocator_destructorINS_9allocatorIS5_EEEEED1Ev
FNDA:76,_ZNKSt3__117__compressed_pairImNS_9allocatorINS_11__list_nodeI6one_muPvEEEEE6secondEv
FNDA:259357032,_ZNSt3__122__compressed_pair_elemIPNS_11__list_nodeI15Vcm_quadBox_HitPvEELi0ELb0EE5__getEv
FNDA:288,_ZNSt3__110unique_ptrINS_11__list_nodeI11coef_vectorPvEENS_22__allocator_destructorINS_9allocatorIS4_EEEEEC2ENS_4__rvIS9_EE
FNDA:30609,_ZNSt3__19allocatorI8dd_entryE8allocateEmPKv
FNDA:50256,_ZNSt3__116allocator_traitsINS_9allocatorINS_11__list_nodeI15Boundary_cornerPvEEEEE11__constructIS3_S3_EEvNS_17integral_constantIbLb0EEERS6_PT_RKT0_
FNDA:19683,_ZNSt3__116allocator_traitsINS_9allocatorINS_11__list_nodeIdPvEEEEE11__constructIddEEvNS_17integral_constantIbLb0EEERS5_PT_RKT0_
FNDA:834,_ZNSt3__110unique_ptrINS_11__list_nodeI24standard_Legendre_vectorPvEENS_22__allocator_destructorINS_9allocatorIS4_EEEEE5resetEPS4_
FNDA:64839258,_ZNSt3__110unique_ptrINS_11__list_nodeI15Vcm_quadBox_HitPvEENS_22__allocator_destructorINS_9allocatorIS4_EEEEE7releaseEv
FNDA:371,_ZNSt3__116allocator_traitsINS_9allocatorINS_11__list_nodeI14Legendre_coefsPvEEEEE37select_on_container_copy_constructionERKS6_
FNDA:371,_ZNSt3__117__compressed_pairImNS_9allocatorINS_11__list_nodeI14Legendre_coefsPvEEEEEC1EmS6_
FNDA:1112127126,_ZNSt3__122__compressed_pair_elemINS_22__allocator_destructorINS_9allocatorINS_11__list_nodeI11Ein_Eta_HitPvEEEEEELi1ELb0EEC2ES8_
FNDA:116,_ZNSt3__110unique_ptrINS_11__list_nodeI12Eprob_vectorPvEENS_22__allocator_destructorINS_9allocatorIS4_EEEEEC2EPS4_S8_
FNDA:3402574463,_ZNSt3__114pointer_traitsIPNS_16__list_node_baseIN6quad_F12one_intervalEPvEEE10pointer_toERS5_
FNDA:45,_ZNSt3__122__compressed_pair_elemIPNS_11__list_nodeIN4cmDD14one_joint_distEPvEELi0ELb0EEC2ES6_
FNDA:60406,_ZNSt3__122__compressed_pair_elemINS_22__allocator_destructorINS_9allocatorINS_11__list_nodeI14Legendre_coefsPvEEEEEELi1ELb0EE5__getEv
FNDA:0,_ZNSt3__19allocatorINS_12basic_stringIcNS_11char_traitsIcEENS0_IcEEEEE7destroyEPS5_
FNDA:1110,_ZNSt3__19allocatorINS_11__list_nodeIdPvEEEC2Ev
FNDA:60406,_ZNSt3__110unique_ptrINS_11__list_nodeI14Legendre_coefsPvEENS_22__allocator_destructorINS_9allocatorIS4_EEEEEcvNS_4__rvIS9_EEEv
FNDA:348,_ZNSt3__122__compressed_pair_elemIPNS_11__list_nodeI12Eprob_vectorPvEELi0ELb0EEC2ES5_
FNDA:6477,_ZNSt3__110unique_ptrINS_11__list_nodeI7ss_linkPvEENS_22__allocator_destructorINS_9allocatorIS4_EEEEE5resetEPS4_
FNDA:86,_ZNSt3__19allocatorINS_11__list_nodeI18cm_Legendre_vectorPvEEEC2Ev
FNDA:21471,_ZNKSt3__117__compressed_pairIPNS_11__list_nodeI21cumulative_prob_entryPvEENS_22__allocator_destructorINS_9allocatorIS4_EEEEE5firstEv
FNDA:4318,_ZNSt3__117__compressed_pairIPNS_11__list_nodeI7ss_linkPvEENS_22__allocator_destructorINS_9allocatorIS4_EEEEE6secondEv
FNDA:8210,_ZNSt3__122__compressed_pair_elemINS_9allocatorINS_11__list_nodeI13weight_vectorPvEEEELi1ELb1EE5__getEv
FNDA:46585,_ZNSt3__122__compressed_pair_elemINS_9allocatorINS_11__list_nodeI11Ein_Eta_HitPvEEEELi1ELb1EEC2Ev
FNDA:683249,_ZNSt3__122__compressed_pair_elemINS_9allocatorIcEELi1ELb1EEC2Ev
FNDA:460,_ZNSt3__116allocator_traitsINS_9allocatorINS_11__list_nodeI9dd_vectorPvEEEEE8allocateERS6_m
FNDA:1205,_ZNSt3__110unique_ptrINS_11__list_nodeI6one_muPvEENS_22__allocator_destructorINS_9allocatorIS4_EEEEEC2EPS4_S8_
FNDA:361212777,_ZNKSt3__110unique_ptrINS_11__list_nodeIN6quad_F12one_intervalEPvEENS_22__allocator_destructorINS_9allocatorIS5_EEEEEptEv
FNDA:0,_ZNSt3__116allocator_traitsINS_9allocatorI9Ein_entryEEE9__destroyIS2_EEvNS_17integral_constantIbLb1EEERS3_PT_
FNDA:179830,_ZNSt3__114pointer_traitsIP24standard_Legendre_vectorE10pointer_toERS1_
FNDA:1112127126,_ZNSt3__110unique_ptrINS_11__list_nodeI11Ein_Eta_HitPvEENS_22__allocator_destructorINS_9allocatorIS4_EEEEED2Ev
FNDA:192,_ZNSt3__117__compressed_pairImNS_9allocatorINS_11__list_nodeI15Kalbach_one_EinPvEEEEE5firstEv
FNDA:126,_ZNSt3__19allocatorINS_11__list_nodeI13min_Eout_infoPvEEE10deallocateEPS4_m
FNDA:186,_ZNSt3__110unique_ptrINS_11__list_nodeI15Kalbach_one_EinPvEENS_22__allocator_destructorINS_9allocatorIS4_EEEEEC1EPS4_S8_
FNDA:0,_ZNKSt3__122__compressed_pair_elemIP9Ein_entryLi0ELb0EE5__getEv
FNDA:252,_ZNSt3__110unique_ptrINS_11__list_nodeI13min_Eout_infoPvEENS_22__allocator_destructorINS_9allocatorIS4_EEEEEC1ENS_4__rvIS9_EE
FNDA:186,_ZNSt3__117__compressed_pairIPNS_11__list_nodeI18cm_Legendre_vectorPvEENS_22__allocator_destructorINS_9allocatorIS4_EEEEE6secondEv
FNDA:81,_ZNSt3__117__compressed_pairImNS_9allocatorINS_11__list_nodeI14one_joint_distPvEEEEE6secondEv
FNDA:291351060,_ZNSt3__116allocator_traitsINS_9allocatorI11Ein_Eta_HitEEE10deallocateERS3_PS2_m
FNDA:86,_ZNSt3__117__compressed_pairImNS_9allocatorINS_11__list_nodeI15Kalbach_one_EinPvEEEEEC2Em
FNDA:328084821,_ZNSt3__116allocator_traitsINS_9allocatorIdEEE7destroyIdEEvRS2_PT_
FNDA:21613086,_ZNSt3__110unique_ptrINS_11__list_nodeI15Vcm_quadBox_HitPvEENS_22__allocator_destructorINS_9allocatorIS4_EEEEEC1EPS4_S8_
FNDA:307926,_ZNSt3__114pointer_traitsIPK21cumulative_prob_entryE10pointer_toERS2_
FNDA:279,_ZNSt3__117__compressed_pairIPNS_11__list_nodeI18cm_Legendre_vectorPvEENS_22__allocator_destructorINS_9allocatorIS4_EEEEEC2ES5_S9_
FNDA:949531,_ZNSt3__122__compressed_pair_elemINS_12basic_stringIcNS_11char_traitsIcEENS_9allocatorIcEEE5__repELi0ELb0EE5__getEv
FNDA:129,_ZNSt3__117__compressed_pairImNS_9allocatorINS_11__list_nodeI13min_Eout_infoPvEEEEE6secondEv
FNDA:0,_ZNSt3__122__allocator_destructorINS_9allocatorINS_11__list_nodeI13min_Eout_infoPvEEEEEclEPS5_
FNDA:80,_ZNSt3__117__compressed_pairImNS_9allocatorINS_11__list_nodeI15Boundary_cornerPvEEEEEC1Em
FNDA:4358,_ZNSt3__110unique_ptrINS_11__list_nodeIN4cmDD8one_EoutEPvEENS_22__allocator_destructorINS_9allocatorIS5_EEEEE11get_deleterEv
FNDA:361212777,_ZNSt3__110unique_ptrINS_11__list_nodeIN6quad_F12one_intervalEPvEENS_22__allocator_destructorINS_9allocatorIS5_EEEEED2Ev
FNDA:0,_ZNSt3__116allocator_traitsINS_9allocatorI9Ein_entryEEE8max_sizeERKS3_
FNDA:11567682,_ZNSt3__116allocator_traitsINS_9allocatorIcEEE10__max_sizeENS_17integral_constantIbLb1EEERKS2_
FNDA:76,_ZNSt3__117__compressed_pairImNS_9allocatorINS_11__list_nodeI6one_muPvEEEEEC1Em
FNDA:15,_ZNSt3__19allocatorINS_11__list_nodeIN4cmDD8one_EoutEPvEEEC2Ev
FNDA:30203,_ZNSt3__116allocator_traitsINS_9allocatorINS_11__list_nodeI14Legendre_coefsPvEEEEE9__destroyIS3_EEvNS_17integral_constantIbLb0EEERS6_PT_
FNDA:0,_ZNSt3__116allocator_traitsINS_9allocatorI11Ein_entriesEEE10deallocateERS3_PS2_m
FNDA:24372,_ZNSt3__110unique_ptrINS_11__list_nodeI13weight_vectorPvEENS_22__allocator_destructorINS_9allocatorIS4_EEEEE5resetEPS4_
FNDA:81,_ZNSt3__117__compressed_pairImNS_9allocatorINS_11__list_nodeI14one_joint_distPvEEEEE5firstEv
FNDA:16,_ZNSt3__122__compressed_pair_elemINS_9allocatorINS_11__list_nodeIN4cmDD14one_joint_distEPvEEEELi1ELb1EE5__getEv
FNDA:6477,_ZNSt3__122__compressed_pair_elemIPNS_11__list_nodeI7ss_linkPvEELi0ELb0EEC2ES5_
FNDA:328084821,_ZNSt3__19allocatorIdE7destroyEPd
FNDA:741418084,_ZNSt3__122__compressed_pair_elemINS_22__allocator_destructorINS_9allocatorINS_11__list_nodeI11Ein_Eta_HitPvEEEEEELi1ELb0EE5__getEv
FNDA:0,_ZNSt3__122__allocator_destructorINS_9allocatorINS_11__list_nodeI14Legendre_coefsPvEEEEEclEPS5_
FNDA:1692,_ZNKSt3__122__compressed_pair_elemINS_9allocatorINS_11__list_nodeI21cumulative_prob_entryPvEEEELi1ELb1EE5__getEv
FNDA:21613086,_ZNSt3__19allocatorINS_11__list_nodeI15Vcm_quadBox_HitPvEEE10deallocateEPS4_m
FNDA:0,_ZNSt3__114pointer_traitsIPK8dd_entryE10pointer_toERS2_
FNDA:1380,_ZNSt3__110unique_ptrINS_11__list_nodeI9dd_vectorPvEENS_22__allocator_destructorINS_9allocatorIS4_EEEEE7releaseEv
FNDA:16248,_ZNSt3__110unique_ptrINS_11__list_nodeI13weight_vectorPvEENS_22__allocator_destructorINS_9allocatorIS4_EEEEEC2ENS_4__rvIS9_EE
FNDA:93,_ZNSt3__122__allocator_destructorINS_9allocatorINS_11__list_nodeI18cm_Legendre_vectorPvEEEEEC2ERS6_m
FNDA:86,_ZNSt3__117__compressed_pairImNS_9allocatorINS_11__list_nodeI12Eprob_vectorPvEEEEEC2Em
FNDA:30203,_ZNSt3__116allocator_traitsINS_9allocatorINS_11__list_nodeI14Legendre_coefsPvEEEEE9constructIS3_S3_EEvRS6_PT_RKT0_
FNDA:1692,_ZNSt3__116allocator_traitsINS_9allocatorINS_11__list_nodeI21cumulative_prob_entryPvEEEEE37select_on_container_copy_constructionERKS6_
FNDA:0,_ZNKSt3__19allocatorI11Ein_entriesE8max_sizeEv
FNDA:361212777,_ZNSt3__110unique_ptrINS_11__list_nodeIN6quad_F12one_intervalEPvEENS_22__allocator_destructorINS_9allocatorIS5_EEEEE5resetEPS5_
FNDA:86,_ZNSt3__122__compressed_pair_elemINS_9allocatorINS_11__list_nodeI12Eprob_vectorPvEEEELi1ELb1EEC2Ev
FNDA:2410,_ZNSt3__110unique_ptrINS_11__list_nodeI6one_muPvEENS_22__allocator_destructorINS_9allocatorIS4_EEEEE11get_deleterEv
FNDA:291351060,_ZNSt3__116allocator_traitsINS_9allocatorI11Ein_Eta_HitEEE8allocateERS3_m
FNDA:186,_ZNSt3__116allocator_traitsINS_9allocatorINS_11__list_nodeI15Kalbach_one_EinPvEEEEE8allocateERS6_m
FNDA:7157,_ZNSt3__116allocator_traitsINS_9allocatorINS_11__list_nodeI21cumulative_prob_entryPvEEEEE10deallocateERS6_PS5_m
FNDA:15,_ZNSt3__116allocator_traitsINS_9allocatorINS_11__list_nodeIN4cmDD8one_EoutEPvEEEEE39__select_on_container_copy_constructionENS_17integral_constantIbLb0EEERKS7_
FNDA:99,_ZNSt3__117__compressed_pairImNS_9allocatorINS_11__list_nodeI18cm_Legendre_vectorPvEEEEE5firstEv
FNDA:3,_ZNSt3__117__compressed_pairINS_12basic_stringIcNS_11char_traitsIcEENS_9allocatorIcEEE5__repES5_E6secondEv
FNDA:1896,_ZNSt3__114pointer_traitsIP11coef_vectorE10pointer_toERS1_
FNDA:116,_ZNSt3__116allocator_traitsINS_9allocatorINS_11__list_nodeI12Eprob_vectorPvEEEEE9__destroyIS3_EEvNS_17integral_constantIbLb0EEERS6_PT_
FNDA:64839258,_ZNSt3__117__compressed_pairIPNS_11__list_nodeI15Vcm_quadBox_HitPvEENS_22__allocator_destructorINS_9allocatorIS4_EEEEEC2ES5_S9_
FNDA:240808518,_ZNSt3__110unique_ptrINS_11__list_nodeIN6quad_F12one_intervalEPvEENS_22__allocator_destructorINS_9allocatorIS5_EEEEEC2ENS_4__rvISA_EE
FNDA:45,_ZNSt3__110unique_ptrINS_11__list_nodeIN4cmDD14one_joint_distEPvEENS_22__allocator_destructorINS_9allocatorIS5_EEEEE5resetEPS5_
FNDA:0,_ZNSt3__116allocator_traitsINS_9allocatorI9Ein_entryEEE8allocateERS3_m
FNDA:0,_ZNSt3__117__compressed_pairIP11Ein_entriesNS_9allocatorIS1_EEE5firstEv
FNDA:7157,_ZNSt3__122__allocator_destructorINS_9allocatorINS_11__list_nodeI21cumulative_prob_entryPvEEEEEC1ERS6_m
FNDA:7157,_ZNSt3__19allocatorINS_11__list_nodeI21cumulative_prob_entryPvEEE10deallocateEPS4_m
FNDA:144,_ZNSt3__116allocator_traitsINS_9allocatorINS_11__list_nodeI11coef_vectorPvEEEEE8allocateERS6_m
FNDA:173967576,_ZNSt3__19allocatorIdE8allocateEmPKv
FNDA:5084415503,_ZNSt3__114pointer_traitsIPNS_16__list_node_baseI11Ein_Eta_HitPvEEE10pointer_toERS4_
FNDA:422583,_ZNSt3__114pointer_traitsIPK12Eprob_vectorE10pointer_toERS2_
FNDA:0,_ZNSt3__117__compressed_pairIP11Ein_entriesNS_9allocatorIS1_EEEC1ES2_
FNDA:6477,_ZNKSt3__117__compressed_pairIPNS_11__list_nodeI7ss_linkPvEENS_22__allocator_destructorINS_9allocatorIS4_EEEEE5firstEv
FNDA:74839757,_ZNSt3__122__compressed_pair_elemINS_9allocatorINS_11__list_nodeIN6quad_F12one_intervalEPvEEEELi1ELb1EEC2Ev
FNDA:0,_ZNSt3__122__compressed_pair_elemIP9Ein_entryLi0ELb0EE5__getEv
FNDA:11105,_ZNSt3__122__compressed_pair_elemINS_9allocatorI8dd_entryEELi1ELb1EEC2Ev
FNDA:522351552,_ZNSt3__122__compressed_pair_elemINS_9allocatorINS_11__list_nodeI11Ein_Eta_HitPvEEEELi1ELb1EE5__getEv
FNDA:2159,_ZNSt3__116allocator_traitsINS_9allocatorINS_11__list_nodeI7ss_linkPvEEEEE7destroyIS3_EEvRS6_PT_
FNDA:912,_ZNSt3__122__compressed_pair_elemIPNS_11__list_nodeI14one_joint_distPvEELi0ELb0EE5__getEv
FNDA:144,_ZNSt3__122__allocator_destructorINS_9allocatorINS_11__list_nodeI11coef_vectorPvEEEEEC1ERS6_m
FNDA:45,_ZNSt3__110unique_ptrINS_11__list_nodeIN4cmDD14one_joint_distEPvEENS_22__allocator_destructorINS_9allocatorIS5_EEEEE7releaseEv
FNDA:59049,_ZNKSt3__122__compressed_pair_elemIPNS_11__list_nodeIdPvEELi0ELb0EE5__getEv
FNDA:556,_ZNSt3__110unique_ptrINS_11__list_nodeI24standard_Legendre_vectorPvEENS_22__allocator_destructorINS_9allocatorIS4_EEEEE11get_deleterEv
FNDA:698662,_ZNSt3__19allocatorI8dd_entryE9constructIS1_EEvPS1_RKT_
FNDA:11105,_ZNSt3__19allocatorI8dd_entryEC2Ev
FNDA:86,_ZNKSt3__117__compressed_pairImNS_9allocatorINS_11__list_nodeI18cm_Legendre_vectorPvEEEEE5firstEv
FNDA:362436,_ZNSt3__122__compressed_pair_elemIPNS_11__list_nodeI14Legendre_coefsPvEELi0ELb0EE5__getEv
FNDA:378,_ZNSt3__117__compressed_pairIPNS_11__list_nodeI13min_Eout_infoPvEENS_22__allocator_destructorINS_9allocatorIS4_EEEEEC2ES5_S9_
FNDA:173967576,_ZNKSt3__117__compressed_pairIPdNS_9allocatorIdEEE6secondEv
FNDA:556,_ZNSt3__110unique_ptrINS_11__list_nodeI24standard_Legendre_vectorPvEENS_22__allocator_destructorINS_9allocatorIS4_EEEEEC1ENS_4__rvIS9_EE
FNDA:120404259,_ZNSt3__116allocator_traitsINS_9allocatorINS_11__list_nodeIN6quad_F12one_intervalEPvEEEEE8allocateERS7_m
FNDA:2410,_ZNSt3__110unique_ptrINS_11__list_nodeI6one_muPvEENS_22__allocator_destructorINS_9allocatorIS4_EEEEEC2ENS_4__rvIS9_EE
FNDA:186,_ZNSt3__110unique_ptrINS_11__list_nodeI18cm_Legendre_vectorPvEENS_22__allocator_destructorINS_9allocatorIS4_EEEEEC2ENS_4__rvIS9_EE
FNDA:14314,_ZNSt3__110unique_ptrINS_11__list_nodeI21cumulative_prob_entryPvEENS_22__allocator_destructorINS_9allocatorIS4_EEEEEC2ENS_4__rvIS9_EE
FNDA:15,_ZNSt3__117__compressed_pairImNS_9allocatorINS_11__list_nodeIN4cmDD8one_EoutEPvEEEEEC1Em
FNDA:86,_ZNSt3__117__compressed_pairImNS_9allocatorINS_11__list_nodeI7ss_linkPvEEEEEC2Em
FNDA:144,_ZNSt3__116allocator_traitsINS_9allocatorINS_11__list_nodeI11coef_vectorPvEEEEE11__constructIS3_S3_EEvNS_17integral_constantIbLb0EEERS6_PT_RKT0_
FNDA:603072,_ZNSt3__117__compressed_pairIPNS_11__list_nodeI15Boundary_cornerPvEENS_22__allocator_destructorINS_9allocatorIS4_EEEEE5firstEv
FNDA:86,_ZNKSt3__117__compressed_pairImNS_9allocatorINS_11__list_nodeI7ss_linkPvEEEEE5firstEv
FNDA:67008,_ZNSt3__117__compressed_pairImNS_9allocatorINS_11__list_nodeI15Boundary_cornerPvEEEEE6secondEv
FNDA:558,_ZNSt3__122__compressed_pair_elemIPNS_11__list_nodeI15Kalbach_one_EinPvEELi0ELb0EEC2ES5_
FNDA:4318,_ZNSt3__110unique_ptrINS_11__list_nodeI7ss_linkPvEENS_22__allocator_destructorINS_9allocatorIS4_EEEEEC2ENS_4__rvIS9_EE
FNDA:30203,_ZNSt3__19allocatorINS_11__list_nodeI14Legendre_coefsPvEEE8allocateEmPKv
FNDA:1512,_ZNSt3__117__compressed_pairIPNS_11__list_nodeI13min_Eout_infoPvEENS_22__allocator_destructorINS_9allocatorIS4_EEEEE5firstEv
FNDA:126,_ZNSt3__116allocator_traitsINS_9allocatorINS_11__list_nodeI13min_Eout_infoPvEEEEE9__destroyIS3_EEvNS_17integral_constantIbLb0EEERS6_PT_
FNDA:28859298,_ZNKSt3__110unique_ptrINS_11__list_nodeI15Vcm_quadBox_HitPvEENS_22__allocator_destructorINS_9allocatorIS4_EEEEEptEv
FNDA:2676,_ZNSt3__117__compressed_pairImNS_9allocatorINS_11__list_nodeI21cumulative_prob_entryPvEEEEEC1Em
FNDA:186,_ZNSt3__110unique_ptrINS_11__list_nodeI18cm_Legendre_vectorPvEENS_22__allocator_destructorINS_9allocatorIS4_EEEEE11get_deleterEv
FNDA:100512,_ZNSt3__110unique_ptrINS_11__list_nodeI15Boundary_cornerPvEENS_22__allocator_destructorINS_9allocatorIS4_EEEEEC2ENS_4__rvIS9_EE
FNDA:1165194282,_ZNSt3__122__compressed_pair_elemINS_9allocatorI11Ein_Eta_HitEELi1ELb1EE5__getEv
FNDA:1549,_ZNSt3__122__compressed_pair_elemINS_9allocatorINS_11__list_nodeI14Legendre_coefsPvEEEELi1ELb1EEC2Ev
FNDA:126,_ZNSt3__122__allocator_destructorINS_9allocatorINS_11__list_nodeI13min_Eout_infoPvEEEEEC1ERS6_m
FNDA:3615,_ZNKSt3__110unique_ptrINS_11__list_nodeI6one_muPvEENS_22__allocator_destructorINS_9allocatorIS4_EEEEEptEv
FNDA:172,_ZNSt3__110unique_ptrI7__sFILEPFiPS1_EED1Ev
FNDA:0,_ZNSt3__122__allocator_destructorINS_9allocatorINS_11__list_nodeI15Vcm_quadBox_HitPvEEEEEclEPS5_
FNDA:2333972502,_ZNSt3__114pointer_traitsIP11Ein_Eta_HitE10pointer_toERS1_
FNDA:834,_ZNKSt3__122__compressed_pair_elemIPNS_11__list_nodeI24standard_Legendre_vectorPvEELi0ELb0EE5__getEv
FNDA:86,_ZNSt3__19allocatorINS_11__list_nodeI13weight_vectorPvEEEC2Ev
FNDA:2410,_ZNSt3__122__compressed_pair_elemINS_22__allocator_destructorINS_9allocatorINS_11__list_nodeI6one_muPvEEEEEELi1ELb0EE5__getEv
FNDA:173967576,_ZNSt3__117__compressed_pairIPdRNS_9allocatorIdEEEC1ES1_S4_
FNDA:90609,_ZNKSt3__110unique_ptrINS_11__list_nodeI14Legendre_coefsPvEENS_22__allocator_destructorINS_9allocatorIS4_EEEEEptEv
FNDA:0,_ZNSt3__122__allocator_destructorINS_9allocatorINS_11__list_nodeIN6quad_F12one_intervalEPvEEEEEclEPS6_
FNDA:6537,_ZNSt3__110unique_ptrINS_11__list_nodeIN4cmDD8one_EoutEPvEENS_22__allocator_destructorINS_9allocatorIS5_EEEEED2Ev
FNDA:50256,_ZNSt3__110unique_ptrINS_11__list_nodeI15Boundary_cornerPvEENS_22__allocator_destructorINS_9allocatorIS4_EEEEEC2EPS4_S8_
FNDA:120404259,_ZNSt3__122__allocator_destructorINS_9allocatorINS_11__list_nodeIN6quad_F12one_intervalEPvEEEEEC2ERS7_m
FNDA:2232,_ZNSt3__122__compressed_pair_elemIPNS_11__list_nodeI15Kalbach_one_EinPvEELi0ELb0EE5__getEv
FNDA:90609,_ZNKSt3__122__compressed_pair_elemIPNS_11__list_nodeI14Legendre_coefsPvEELi0ELb0EE5__getEv
FNDA:22597459,_ZNSt3__114pointer_traitsIPK11Ein_Eta_HitE10pointer_toERS2_
FNDA:186,_ZNSt3__19allocatorINS_11__list_nodeI15Kalbach_one_EinPvEEE8allocateEmPKv
FNDA:120404259,_ZNKSt3__19allocatorINS_11__list_nodeIN6quad_F12one_intervalEPvEEE8max_sizeEv
FNDA:30203,_ZNSt3__122__allocator_destructorINS_9allocatorINS_11__list_nodeI14Legendre_coefsPvEEEEEC1ERS6_m
FNDA:38071761,_ZNKSt3__122__compressed_pair_elemINS_12basic_stringIcNS_11char_traitsIcEENS_9allocatorIcEEE5__repELi0ELb0EE5__getEv
FNDA:432,_ZNSt3__122__compressed_pair_elemIPNS_11__list_nodeI11coef_vectorPvEELi0ELb0EEC2ES5_
FNDA:50256,_ZNSt3__116allocator_traitsINS_9allocatorINS_11__list_nodeI15Boundary_cornerPvEEEEE8allocateERS6_m
FNDA:370709042,_ZNSt3__116allocator_traitsINS_9allocatorINS_11__list_nodeI11Ein_Eta_HitPvEEEEE8allocateERS6_m
FNDA:357412962,_ZNSt3__117__compressed_pairIPdNS_9allocatorIdEEE5firstEv
FNDA:1380,_ZNSt3__122__compressed_pair_elemIPNS_11__list_nodeI9dd_vectorPvEELi0ELb0EEC2ES5_
FNDA:2410,_ZNSt3__110unique_ptrINS_11__list_nodeI6one_muPvEENS_22__allocator_destructorINS_9allocatorIS4_EEEEEcvNS_4__rvIS9_EEEv
FNDA:228,_ZNSt3__122__compressed_pair_elemIPNS_11__list_nodeI14one_joint_distPvEELi0ELb0EEC2ES5_
FNDA:86,_ZNSt3__19allocatorINS_11__list_nodeI15Kalbach_one_EinPvEEEC2Ev
FNDA:370709042,_ZNSt3__116allocator_traitsINS_9allocatorINS_11__list_nodeI11Ein_Eta_HitPvEEEEE10deallocateERS6_PS5_m
FNDA:38627991,_ZNSt3__114pointer_traitsIPK15Vcm_quadBox_HitE10pointer_toERS2_
FNDA:470460929,_ZNKSt3__110unique_ptrINS_11__list_nodeI11Ein_Eta_HitPvEENS_22__allocator_destructorINS_9allocatorIS4_EEEEEptEv
FNDA:222564409,_ZNSt3__114pointer_traitsIPNS_16__list_node_baseI15Vcm_quadBox_HitPvEEE10pointer_toERS4_
FNDA:556,_ZNSt3__110unique_ptrINS_11__list_nodeI24standard_Legendre_vectorPvEENS_22__allocator_destructorINS_9allocatorIS4_EEEEEcvNS_4__rvIS9_EEEv
FNDA:303123600,_ZNSt3__117__compressed_pairIP11Ein_Eta_HitNS_9allocatorIS1_EEEC2ES2_
FNDA:228,_ZNSt3__122__compressed_pair_elemINS_22__allocator_destructorINS_9allocatorINS_11__list_nodeI14one_joint_distPvEEEEEELi1ELb0EEC2ES8_
FNDA:279,_ZNSt3__122__compressed_pair_elemIPNS_11__list_nodeI18cm_Legendre_vectorPvEELi0ELb0EEC2ES5_
FNDA:259357032,_ZNSt3__117__compressed_pairIPNS_11__list_nodeI15Vcm_quadBox_HitPvEENS_22__allocator_destructorINS_9allocatorIS4_EEEEE5firstEv
FNDA:46585,_ZNSt3__117__compressed_pairImNS_9allocatorINS_11__list_nodeI11Ein_Eta_HitPvEEEEEC2Em
FNDA:186,_ZNSt3__110unique_ptrINS_11__list_nodeI15Kalbach_one_EinPvEENS_22__allocator_destructorINS_9allocatorIS4_EEEEEC2EPS4_S8_
FNDA:240808518,_ZNSt3__117__compressed_pairIPNS_11__list_nodeIN6quad_F12one_intervalEPvEENS_22__allocator_destructorINS_9allocatorIS5_EEEEE6secondEv
FNDA:278,_ZNSt3__110unique_ptrINS_11__list_nodeI24standard_Legendre_vectorPvEENS_22__allocator_destructorINS_9allocatorIS4_EEEEEC2EPS4_S8_
FNDA:348,_ZNSt3__110unique_ptrINS_11__list_nodeI12Eprob_vectorPvEENS_22__allocator_destructorINS_9allocatorIS4_EEEEED1Ev
FNDA:0,_ZNSt3__122__allocator_destructorINS_9allocatorINS_11__list_nodeI13weight_vectorPvEEEEEclEPS5_
FNDA:32,_ZNSt3__114pointer_traitsIPK24standard_Legendre_vectorE10pointer_toERS2_
FNDA:372,_ZNSt3__122__compressed_pair_elemINS_22__allocator_destructorINS_9allocatorINS_11__list_nodeI15Kalbach_one_EinPvEEEEEELi1ELb0EE5__getEv
FNDA:30,_ZNSt3__122__compressed_pair_elemINS_22__allocator_destructorINS_9allocatorINS_11__list_nodeIN4cmDD14one_joint_distEPvEEEEEELi1ELb0EE5__getEv
FNDA:208,_ZNSt3__19allocatorINS_11__list_nodeI9dd_vectorPvEEEC2Ev
FNDA:705348114,_ZNSt3__122__compressed_pair_elemIPdLi0ELb0EE5__getEv
FNDA:7909,_ZNSt3__114pointer_traitsIP9dd_vectorE10pointer_toERS1_
FNDA:0,_ZNSt3__117__compressed_pairIP9Ein_entryRNS_9allocatorIS1_EEE5firstEv
FNDA:19683,_ZNSt3__122__allocator_destructorINS_9allocatorINS_11__list_nodeIdPvEEEEEC1ERS5_m
FNDA:7157,_ZNSt3__110unique_ptrINS_11__list_nodeI21cumulative_prob_entryPvEENS_22__allocator_destructorINS_9allocatorIS4_EEEEEC2EPS4_S8_
FNDA:2245,_ZNSt3__117__compressed_pairImNS_9allocatorINS_11__list_nodeI7ss_linkPvEEEEE6secondEv
FNDA:741418084,_ZNSt3__110unique_ptrINS_11__list_nodeI11Ein_Eta_HitPvEENS_22__allocator_destructorINS_9allocatorIS4_EEEEEC2ENS_4__rvIS9_EE
FNDA:0,_ZNSt3__117__compressed_pairIP11Ein_entriesRNS_9allocatorIS1_EEE5firstEv
FNDA:100512,_ZNSt3__110unique_ptrINS_11__list_nodeI15Boundary_cornerPvEENS_22__allocator_destructorINS_9allocatorIS4_EEEEEcvNS_4__rvIS9_EEEv
FNDA:1205,_ZNSt3__122__allocator_destructorINS_9allocatorINS_11__list_nodeI6one_muPvEEEEEC1ERS6_m
FNDA:76,_ZNSt3__19allocatorINS_11__list_nodeI6one_muPvEEEC2Ev
FNDA:2569386740,_ZNSt3__114pointer_traitsIPN6quad_F12one_intervalEE10pointer_toERS2_
FNDA:2159,_ZNSt3__19allocatorINS_11__list_nodeI7ss_linkPvEEE8allocateEmPKv
FNDA:1116,_ZNSt3__122__compressed_pair_elemIPNS_11__list_nodeI18cm_Legendre_vectorPvEELi0ELb0EE5__getEv
FNDA:0,_ZNSt3__19allocatorI11Ein_entriesE8allocateEmPKv
FNDA:100512,_ZNSt3__110unique_ptrINS_11__list_nodeI15Boundary_cornerPvEENS_22__allocator_destructorINS_9allocatorIS4_EEEEE11get_deleterEv
FNDA:2179,_ZNSt3__116allocator_traitsINS_9allocatorINS_11__list_nodeIN4cmDD8one_EoutEPvEEEEE9constructIS4_S4_EEvRS7_PT_RKT0_
FNDA:558,_ZNSt3__122__compressed_pair_elemINS_22__allocator_destructorINS_9allocatorINS_11__list_nodeI15Kalbach_one_EinPvEEEEEELi1ELb0EEC2ES8_
FNDA:21471,_ZNSt3__122__compressed_pair_elemIPNS_11__list_nodeI21cumulative_prob_entryPvEELi0ELb0EEC2ES5_
FNDA:19683,_ZNSt3__110unique_ptrINS_11__list_nodeIdPvEENS_22__allocator_destructorINS_9allocatorIS3_EEEEEC2EPS3_S7_
FNDA:64839258,_ZNSt3__110unique_ptrINS_11__list_nodeI15Vcm_quadBox_HitPvEENS_22__allocator_destructorINS_9allocatorIS4_EEEEED1Ev
FNDA:0,_ZNSt3__116allocator_traitsINS_9allocatorI9Ein_entryEEE9constructIS2_S2_EEvRS3_PT_RKT0_
FNDA:7157,_ZNSt3__116allocator_traitsINS_9allocatorINS_11__list_nodeI21cumulative_prob_entryPvEEEEE9constructIS3_S3_EEvRS6_PT_RKT0_
FNDA:59049,_ZNSt3__122__compressed_pair_elemINS_22__allocator_destructorINS_9allocatorINS_11__list_nodeIdPvEEEEEELi1ELb0EEC2ES7_
FNDA:2159,_ZNSt3__110unique_ptrINS_11__list_nodeI7ss_linkPvEENS_22__allocator_destructorINS_9allocatorIS4_EEEEEC2EPS4_S8_
FNDA:116,_ZNSt3__116allocator_traitsINS_9allocatorINS_11__list_nodeI12Eprob_vectorPvEEEEE8allocateERS6_m
FNDA:150768,_ZNSt3__110unique_ptrINS_11__list_nodeI15Boundary_cornerPvEENS_22__allocator_destructorINS_9allocatorIS4_EEEEED2Ev
FNDA:2159,_ZNSt3__116allocator_traitsINS_9allocatorINS_11__list_nodeI7ss_linkPvEEEEE8allocateERS6_m
FNDA:21471,_ZNKSt3__122__compressed_pair_elemIPNS_11__list_nodeI21cumulative_prob_entryPvEELi0ELb0EE5__getEv
FNDA:920,_ZNSt3__117__compressed_pairImNS_9allocatorINS_11__list_nodeI15Vcm_quadBox_HitPvEEEEEC2Em
FNDA:258,_ZNSt3__122__compressed_pair_elemINS_9allocatorINS_11__list_nodeI24standard_Legendre_vectorPvEEEELi1ELb1EEC2Ev
FNDA:46585,_ZNSt3__19allocatorINS_11__list_nodeI11Ein_Eta_HitPvEEEC2Ev
FNDA:172,_ZNSt3__110unique_ptrI7__sFILEPFiPS1_EE7releaseEv
FNDA:0,_ZNSt3__122__allocator_destructorINS_9allocatorINS_11__list_nodeI9dd_vectorPvEEEEEclEPS5_
FNDA:208,_ZNKSt3__117__compressed_pairImNS_9allocatorINS_11__list_nodeI13min_Eout_infoPvEEEEE5firstEv
FNDA:80,_ZNSt3__117__compressed_pairImNS_9allocatorINS_11__list_nodeI15Boundary_cornerPvEEEEEC2Em
FNDA:116,_ZNSt3__116allocator_traitsINS_9allocatorINS_11__list_nodeI12Eprob_vectorPvEEEEE11__constructIS3_S3_EEvNS_17integral_constantIbLb0EEERS6_PT_RKT0_
FNDA:0,_ZNSt3__122__compressed_pair_elemIP11Ein_entriesLi0ELb0EEC2ES2_
FNDA:920,_ZNSt3__110unique_ptrINS_11__list_nodeI9dd_vectorPvEENS_22__allocator_destructorINS_9allocatorIS4_EEEEEC2ENS_4__rvIS9_EE
FNDA:279,_ZNKSt3__122__compressed_pair_elemIPNS_11__list_nodeI18cm_Legendre_vectorPvEELi0ELb0EE5__getEv
FNDA:371,_ZNKSt3__122__compressed_pair_elemINS_9allocatorINS_11__list_nodeI14Legendre_coefsPvEEEELi1ELb1EE5__getEv
FNDA:279,_ZNKSt3__117__compressed_pairIPNS_11__list_nodeI18cm_Legendre_vectorPvEENS_22__allocator_destructorINS_9allocatorIS4_EEEEE5firstEv
FNDA:76,_ZNSt3__116allocator_traitsINS_9allocatorINS_11__list_nodeI14one_joint_distPvEEEEE11__constructIS3_S3_EEvNS_17integral_constantIbLb0EEERS6_PT_RKT0_
FNDA:2179,_ZNSt3__116allocator_traitsINS_9allocatorINS_11__list_nodeIN4cmDD8one_EoutEPvEEEEE9__destroyIS4_EEvNS_17integral_constantIbLb0EEERS7_PT_
FNDA:173967576,_ZNSt3__116allocator_traitsINS_9allocatorIdEEE10__max_sizeENS_17integral_constantIbLb1EEERKS2_
FNDA:43226172,_ZNSt3__117__compressed_pairIPNS_11__list_nodeI15Vcm_quadBox_HitPvEENS_22__allocator_destructorINS_9allocatorIS4_EEEEE6secondEv
FNDA:4358,_ZNSt3__110unique_ptrINS_11__list_nodeIN4cmDD8one_EoutEPvEENS_22__allocator_destructorINS_9allocatorIS5_EEEEEcvNS_4__rvISA_EEEv
FNDA:186,_ZNSt3__122__allocator_destructorINS_9allocatorINS_11__list_nodeI15Kalbach_one_EinPvEEEEEC2ERS6_m
FNDA:6537,_ZNSt3__110unique_ptrINS_11__list_nodeIN4cmDD8one_EoutEPvEENS_22__allocator_destructorINS_9allocatorIS5_EEEEE7releaseEv
FNDA:150768,_ZNSt3__110unique_ptrINS_11__list_nodeI15Boundary_cornerPvEENS_22__allocator_destructorINS_9allocatorIS4_EEEEE7releaseEv
FNDA:19683,_ZNSt3__110unique_ptrINS_11__list_nodeIdPvEENS_22__allocator_destructorINS_9allocatorIS3_EEEEEC1EPS3_S7_
FNDA:126,_ZNSt3__116allocator_traitsINS_9allocatorINS_11__list_nodeI13min_Eout_infoPvEEEEE10deallocateERS6_PS5_m
FNDA:834,_ZNSt3__110unique_ptrINS_11__list_nodeI24standard_Legendre_vectorPvEENS_22__allocator_destructorINS_9allocatorIS4_EEEEE7releaseEv
FNDA:232,_ZNSt3__110unique_ptrINS_11__list_nodeI12Eprob_vectorPvEENS_22__allocator_destructorINS_9allocatorIS4_EEEEEC1ENS_4__rvIS9_EE
FNDA:0,_ZNSt3__122__allocator_destructorINS_9allocatorINS_11__list_nodeIN4cmDD14one_joint_distEPvEEEEEclEPS6_
FNDA:378,_ZNKSt3__117__compressed_pairIPNS_11__list_nodeI13min_Eout_infoPvEENS_22__allocator_destructorINS_9allocatorIS4_EEEEE5firstEv
FNDA:50256,_ZNSt3__122__allocator_destructorINS_9allocatorINS_11__list_nodeI15Boundary_cornerPvEEEEEC2ERS6_m
FNDA:0,_ZNKSt3__122__compressed_pair_elemIP11Ein_entriesLi0ELb0EE5__getEv
FNDA:348,_ZNKSt3__110unique_ptrINS_11__list_nodeI12Eprob_vectorPvEENS_22__allocator_destructorINS_9allocatorIS4_EEEEEptEv
FNDA:338987261,_ZNKSt3__117__compressed_pairImNS_9allocatorINS_11__list_nodeI11Ein_Eta_HitPvEEEEE5firstEv
FNDA:370709042,_ZNSt3__19allocatorINS_11__list_nodeI11Ein_Eta_HitPvEEE10deallocateEPS4_m
FNDA:0,_ZNSt3__122__compressed_pair_elemIPFiP7__sFILEELi1ELb0EE5__getEv
FNDA:361212777,_ZNSt3__117__compressed_pairIPNS_11__list_nodeIN6quad_F12one_intervalEPvEENS_22__allocator_destructorINS_9allocatorIS5_EEEEEC2ES6_SA_
FNDA:6537,_ZNSt3__122__compressed_pair_elemIPNS_11__list_nodeIN4cmDD8one_EoutEPvEELi0ELb0EEC2ES6_
FNDA:15,_ZNSt3__117__compressed_pairImNS_9allocatorINS_11__list_nodeIN4cmDD8one_EoutEPvEEEEEC1EmS7_
FNDA:252,_ZNSt3__122__compressed_pair_elemINS_22__allocator_destructorINS_9allocatorINS_11__list_nodeI13min_Eout_infoPvEEEEEELi1ELb0EE5__getEv
FNDA:688,_ZNSt3__122__compressed_pair_elemIP7__sFILELi0ELb0EE5__getEv
FNDA:1205,_ZNSt3__19allocatorINS_11__list_nodeI6one_muPvEEE10deallocateEPS4_m
FNDA:1029285302,_ZNSt3__122__compressed_pair_elemImLi0ELb0EE5__getEv
FNDA:0,_ZNSt3__19allocatorINS_12basic_stringIcNS_11char_traitsIcEENS0_IcEEEEE10deallocateEPS5_m
FNDA:74839757,_ZNSt3__117__compressed_pairImNS_9allocatorINS_11__list_nodeIN6quad_F12one_intervalEPvEEEEEC1Em
FNDA:26148,_ZNSt3__122__compressed_pair_elemIPNS_11__list_nodeIN4cmDD8one_EoutEPvEELi0ELb0EE5__getEv
FNDA:228,_ZNSt3__117__compressed_pairIPNS_11__list_nodeI14one_joint_distPvEENS_22__allocator_destructorINS_9allocatorIS4_EEEEEC1ES5_S9_
FNDA:90609,_ZNSt3__110unique_ptrINS_11__list_nodeI14Legendre_coefsPvEENS_22__allocator_destructorINS_9allocatorIS4_EEEEED2Ev
FNDA:0,_ZNSt3__1L16__to_raw_pointerI11Ein_entriesEEPT_S3_
FNDA:76,_ZNKSt3__19allocatorINS_11__list_nodeI14one_joint_distPvEEE8max_sizeEv
FNDA:1687048,_ZNSt3__1L16__to_raw_pointerI8dd_entryEEPT_S3_
FNDA:144,_ZNSt3__110unique_ptrINS_11__list_nodeI11coef_vectorPvEENS_22__allocator_destructorINS_9allocatorIS4_EEEEEC2EPS4_S8_
FNDA:370709042,_ZNSt3__116allocator_traitsINS_9allocatorINS_11__list_nodeI11Ein_Eta_HitPvEEEEE11__constructIS3_S3_EEvNS_17integral_constantIbLb0EEERS6_PT_RKT0_
FNDA:228,_ZNSt3__110unique_ptrINS_11__list_nodeI14one_joint_distPvEENS_22__allocator_destructorINS_9allocatorIS4_EEEEED2Ev
FNDA:19683,_ZNKSt3__19allocatorINS_11__list_nodeIdPvEEE8max_sizeEv
FNDA:0,_ZNSt3__117__compressed_pairIP7__sFILEPFiS2_EE6secondEv
FNDA:129,_ZNSt3__117__compressed_pairImNS_9allocatorINS_11__list_nodeI13min_Eout_infoPvEEEEE5firstEv
FNDA:30203,_ZNSt3__110unique_ptrINS_11__list_nodeI14Legendre_coefsPvEENS_22__allocator_destructorINS_9allocatorIS4_EEEEEC2EPS4_S8_
FNDA:1401,_ZNKSt3__117__compressed_pairImNS_9allocatorINS_11__list_nodeIdPvEEEEE5firstEv
FNDA:0,_ZNSt3__122__allocator_destructorINS_9allocatorINS_11__list_nodeIN4cmDD8one_EoutEPvEEEEEclEPS6_
FNDA:1692,_ZNKSt3__117__compressed_pairImNS_9allocatorINS_11__list_nodeI21cumulative_prob_entryPvEEEEE6secondEv
FNDA:0,_ZNKSt3__110unique_ptrINS_11__list_nodeI6one_muPvEENS_22__allocator_destructorINS_9allocatorIS4_EEEEE3getEv
FNDA:606573808,_ZNKSt3__110unique_ptrINS_11__list_nodeI11Ein_Eta_HitPvEENS_22__allocator_destructorINS_9allocatorIS4_EEEEE3getEv
FNDA:834,_ZNSt3__122__compressed_pair_elemIPNS_11__list_nodeI24standard_Legendre_vectorPvEELi0ELb0EEC2ES5_
FNDA:25908,_ZNSt3__122__compressed_pair_elemIPNS_11__list_nodeI7ss_linkPvEELi0ELb0EE5__getEv
FNDA:7157,_ZNSt3__19allocatorINS_11__list_nodeI21cumulative_prob_entryPvEEE8allocateEmPKv
FNDA:3615,_ZNKSt3__122__compressed_pair_elemIPNS_11__list_nodeI6one_muPvEELi0ELb0EE5__getEv
FNDA:173967576,_ZNSt3__117__compressed_pairIPdRNS_9allocatorIdEEEC2ES1_S4_
FNDA:6477,_ZNSt3__110unique_ptrINS_11__list_nodeI7ss_linkPvEENS_22__allocator_destructorINS_9allocatorIS4_EEEEED1Ev
FNDA:99,_ZNSt3__122__compressed_pair_elemINS_9allocatorINS_11__list_nodeI18cm_Legendre_vectorPvEEEELi1ELb1EE5__getEv
FNDA:1112127126,_ZNSt3__117__compressed_pairIPNS_11__list_nodeI11Ein_Eta_HitPvEENS_22__allocator_destructorINS_9allocatorIS4_EEEEEC2ES5_S9_
FNDA:291351060,_ZNSt3__19allocatorI11Ein_Eta_HitE10deallocateEPS1_m
FNDA:15,_ZNSt3__117__compressed_pairImNS_9allocatorINS_11__list_nodeIN4cmDD8one_EoutEPvEEEEEC2Em
FNDA:378,_ZNSt3__110unique_ptrINS_11__list_nodeI13min_Eout_infoPvEENS_22__allocator_destructorINS_9allocatorIS4_EEEEE7releaseEv
FNDA:116,_ZNSt3__19allocatorINS_11__list_nodeI12Eprob_vectorPvEEE8allocateEmPKv
FNDA:0,_ZNSt3__19allocatorI11Ein_entriesE10deallocateEPS1_m
FNDA:116,_ZNSt3__110unique_ptrINS_11__list_nodeI12Eprob_vectorPvEENS_22__allocator_destructorINS_9allocatorIS4_EEEEEC1EPS4_S8_
FNDA:1205,_ZNSt3__110unique_ptrINS_11__list_nodeI6one_muPvEENS_22__allocator_destructorINS_9allocatorIS4_EEEEEC1EPS4_S8_
FNDA:0,_ZNSt3__122__allocator_destructorINS_9allocatorINS_11__list_nodeI15Boundary_cornerPvEEEEEclEPS5_
FNDA:370709042,_ZNSt3__116allocator_traitsINS_9allocatorINS_11__list_nodeI11Ein_Eta_HitPvEEEEE7destroyIS3_EEvRS6_PT_
FNDA:19683,_ZNSt3__116allocator_traitsINS_9allocatorINS_11__list_nodeIdPvEEEEE9__destroyIdEEvNS_17integral_constantIbLb0EEERS5_PT_
FNDA:240808518,_ZNSt3__110unique_ptrINS_11__list_nodeIN6quad_F12one_intervalEPvEENS_22__allocator_destructorINS_9allocatorIS5_EEEEE11get_deleterEv
FNDA:236196,_ZNSt3__122__compressed_pair_elemIPNS_11__list_nodeIdPvEELi0ELb0EE5__getEv
FNDA:460,_ZNSt3__116allocator_traitsINS_9allocatorINS_11__list_nodeI9dd_vectorPvEEEEE11__constructIS3_S3_EEvNS_17integral_constantIbLb0EEERS6_PT_RKT0_
FNDA:258,_ZNSt3__117__compressed_pairImNS_9allocatorINS_11__list_nodeI24standard_Legendre_vectorPvEEEEEC1Em
FNDA:16248,_ZNSt3__110unique_ptrINS_11__list_nodeI13weight_vectorPvEENS_22__allocator_destructorINS_9allocatorIS4_EEEEE11get_deleterEv
FNDA:55165,_ZNSt3__114pointer_traitsIP21cumulative_prob_entryE10pointer_toERS1_
FNDA:19683,_ZNSt3__116allocator_traitsINS_9allocatorINS_11__list_nodeIdPvEEEEE7destroyIdEEvRS5_PT_
FNDA:432,_ZNSt3__110unique_ptrINS_11__list_nodeI11coef_vectorPvEENS_22__allocator_destructorINS_9allocatorIS4_EEEEED1Ev
FNDA:120404259,_ZNSt3__110unique_ptrINS_11__list_nodeIN6quad_F12one_intervalEPvEENS_22__allocator_destructorINS_9allocatorIS5_EEEEEC2EPS5_S9_
FNDA:1933,_ZNSt3__117__compressed_pairINS_12basic_stringIcNS_11char_traitsIcEENS_9allocatorIcEEE5__repES5_EC2ENS_12__second_tagES5_
FNDA:21613086,_ZNSt3__122__allocator_destructorINS_9allocatorINS_11__list_nodeI15Vcm_quadBox_HitPvEEEEEC1ERS6_m
FNDA:93,_ZNSt3__116allocator_traitsINS_9allocatorINS_11__list_nodeI18cm_Legendre_vectorPvEEEEE11__constructIS3_S3_EEvNS_17integral_constantIbLb0EEERS6_PT_RKT0_
FNDA:372,_ZNSt3__110unique_ptrINS_11__list_nodeI15Kalbach_one_EinPvEENS_22__allocator_destructorINS_9allocatorIS4_EEEEEC1ENS_4__rvIS9_EE
FNDA:236196,_ZNSt3__117__compressed_pairIPNS_11__list_nodeIdPvEENS_22__allocator_destructorINS_9allocatorIS3_EEEEE5firstEv
FNDA:1281,_ZNSt3__117__compressed_pairImNS_9allocatorINS_11__list_nodeI6one_muPvEEEEE5firstEv
FNDA:1487571,_ZNSt3__114pointer_traitsIPNS_16__list_node_baseI15Boundary_cornerPvEEE10pointer_toERS4_
FNDA:205972,_ZNKSt3__122__compressed_pair_elemIP8dd_entryLi0ELb0EE5__getEv
FNDA:361212777,_ZNSt3__122__compressed_pair_elemIPNS_11__list_nodeIN6quad_F12one_intervalEPvEELi0ELb0EEC2ES6_
FNDA:33559,_ZNSt3__117__compressed_pairImNS_9allocatorINS_11__list_nodeIdPvEEEEE6secondEv
FNDA:0,_ZNSt3__117__compressed_pairIP9Ein_entryNS_9allocatorIS1_EEEC1ES2_
FNDA:152,_ZNSt3__117__compressed_pairIPNS_11__list_nodeI14one_joint_distPvEENS_22__allocator_destructorINS_9allocatorIS4_EEEEE6secondEv
FNDA:4403,_ZNSt3__114pointer_traitsIPN4cmDD14one_joint_distEE10pointer_toERS2_
FNDA:348,_ZNKSt3__122__compressed_pair_elemIPNS_11__list_nodeI12Eprob_vectorPvEELi0ELb0EE5__getEv
FNDA:12216910,_ZNKSt3__122__compressed_pair_elemINS_9allocatorIcEELi1ELb1EE5__getEv
FNDA:19683,_ZNSt3__19allocatorINS_11__list_nodeIdPvEEE10deallocateEPS3_m
FNDA:0,_ZNSt3__1L16__to_raw_pointerI9Ein_entryEEPT_S3_
FNDA:424632,_ZNSt3__114pointer_traitsIPNS_16__list_node_baseI21cumulative_prob_entryPvEEE10pointer_toERS4_
FNDA:0,_ZNSt3__117__compressed_pairIPNS_12basic_stringIcNS_11char_traitsIcEENS_9allocatorIcEEEENS4_IS6_EEE6secondEv
FNDA:150768,_ZNSt3__117__compressed_pairIPNS_11__list_nodeI15Boundary_cornerPvEENS_22__allocator_destructorINS_9allocatorIS4_EEEEEC2ES5_S9_
FNDA:39366,_ZNSt3__110unique_ptrINS_11__list_nodeIdPvEENS_22__allocator_destructorINS_9allocatorIS3_EEEEEC1ENS_4__rvIS8_EE
FNDA:86,_ZNSt3__117__compressed_pairImNS_9allocatorINS_11__list_nodeI11coef_vectorPvEEEEEC1Em
FNDA:1179732844,_ZNKSt3__122__compressed_pair_elemIPdLi0ELb0EE5__getEv
FNDA:67963694,_ZNSt3__122__compressed_pair_elemINS_9allocatorIdEELi1ELb1EEC2Ev
FNDA:2194,_ZNSt3__122__compressed_pair_elemINS_9allocatorINS_11__list_nodeIN4cmDD8one_EoutEPvEEEELi1ELb1EE5__getEv
FNDA:28733748,_ZNKSt3__110unique_ptrINS_11__list_nodeI15Vcm_quadBox_HitPvEENS_22__allocator_destructorINS_9allocatorIS4_EEEEE3getEv
FNDA:2159,_ZNSt3__116allocator_traitsINS_9allocatorINS_11__list_nodeI7ss_linkPvEEEEE10deallocateERS6_PS5_m
FNDA:1549,_ZNSt3__117__compressed_pairImNS_9allocatorINS_11__list_nodeI14Legendre_coefsPvEEEEEC2Em
FNDA:834,_ZNSt3__110unique_ptrINS_11__list_nodeI24standard_Legendre_vectorPvEENS_22__allocator_destructorINS_9allocatorIS4_EEEEED1Ev
FNDA:30203,_ZNSt3__116allocator_traitsINS_9allocatorINS_11__list_nodeI14Legendre_coefsPvEEEEE10deallocateERS6_PS5_m
FNDA:7157,_ZNSt3__116allocator_traitsINS_9allocatorINS_11__list_nodeI21cumulative_prob_entryPvEEEEE11__constructIS3_S3_EEvNS_17integral_constantIbLb0EEERS6_PT_RKT0_
FNDA:889073,_ZNSt3__114pointer_traitsIPK15Boundary_cornerE10pointer_toERS2_
FNDA:158119804,_ZNSt3__114pointer_traitsIPNS_16__list_node_baseIN4cmDD8one_EoutEPvEEE10pointer_toERS5_
FNDA:133116,_ZNSt3__114pointer_traitsIPK9dd_vectorE10pointer_toERS2_
FNDA:21471,_ZNSt3__110unique_ptrINS_11__list_nodeI21cumulative_prob_entryPvEENS_22__allocator_destructorINS_9allocatorIS4_EEEEED1Ev
FNDA:86,_ZNKSt3__117__compressed_pairImNS_9allocatorINS_11__list_nodeIN4cmDD14one_joint_distEPvEEEEE5firstEv
FNDA:0,_ZNSt3__122__allocator_destructorINS_9allocatorINS_11__list_nodeI18cm_Legendre_vectorPvEEEEEclEPS5_
FNDA:3,_ZNSt3__19allocatorIcE8allocateEmPKv
FNDA:6477,_ZNSt3__110unique_ptrINS_11__list_nodeI7ss_linkPvEENS_22__allocator_destructorINS_9allocatorIS4_EEEEED2Ev
FNDA:1112127126,_ZNSt3__117__compressed_pairIPNS_11__list_nodeI11Ein_Eta_HitPvEENS_22__allocator_destructorINS_9allocatorIS4_EEEEEC1ES5_S9_
FNDA:86,_ZNSt3__19allocatorINS_12basic_stringIcNS_11char_traitsIcEENS0_IcEEEEEC2Ev
FNDA:3615,_ZNSt3__110unique_ptrINS_11__list_nodeI6one_muPvEENS_22__allocator_destructorINS_9allocatorIS4_EEEEED1Ev
FNDA:8124,_ZNSt3__116allocator_traitsINS_9allocatorINS_11__list_nodeI13weight_vectorPvEEEEE7destroyIS3_EEvRS6_PT_
FNDA:834,_ZNSt3__117__compressed_pairIPNS_11__list_nodeI24standard_Legendre_vectorPvEENS_22__allocator_destructorINS_9allocatorIS4_EEEEEC1ES5_S9_
FNDA:100354,_ZNSt3__117__compressed_pairImNS_9allocatorINS_11__list_nodeI15Boundary_cornerPvEEEEE5firstEv
FNDA:432,_ZNSt3__117__compressed_pairIPNS_11__list_nodeI11coef_vectorPvEENS_22__allocator_destructorINS_9allocatorIS4_EEEEEC2ES5_S9_
FNDA:30203,_ZNSt3__116allocator_traitsINS_9allocatorINS_11__list_nodeI14Legendre_coefsPvEEEEE11__constructIS3_S3_EEvNS_17integral_constantIbLb0EEERS6_PT_RKT0_
FNDA:688,_ZNSt3__117__compressed_pairIP7__sFILEPFiS2_EE5firstEv
FNDA:150768,_ZNKSt3__122__compressed_pair_elemIPNS_11__list_nodeI15Boundary_cornerPvEELi0ELb0EE5__getEv
FNDA:144,_ZNSt3__19allocatorINS_11__list_nodeI11coef_vectorPvEEE10deallocateEPS4_m
FNDA:2354353560,_ZNKSt3__122__compressed_pair_elemIP11Ein_Eta_HitLi0ELb0EE5__getEv
FNDA:0,_ZNSt3__122__compressed_pair_elemIP11Ein_entriesLi0ELb0EE5__getEv
FNDA:1205,_ZNSt3__116allocator_traitsINS_9allocatorINS_11__list_nodeI6one_muPvEEEEE9__destroyIS3_EEvNS_17integral_constantIbLb0EEERS6_PT_
FNDA:2179,_ZNSt3__110unique_ptrINS_11__list_nodeIN4cmDD8one_EoutEPvEENS_22__allocator_destructorINS_9allocatorIS5_EEEEEC1EPS5_S9_
FNDA:522351552,_ZNSt3__117__compressed_pairImNS_9allocatorINS_11__list_nodeI11Ein_Eta_HitPvEEEEE6secondEv
FNDA:370709042,_ZNSt3__122__allocator_destructorINS_9allocatorINS_11__list_nodeI11Ein_Eta_HitPvEEEEEC2ERS6_m
FNDA:24372,_ZNSt3__117__compressed_pairIPNS_11__list_nodeI13weight_vectorPvEENS_22__allocator_destructorINS_9allocatorIS4_EEEEEC1ES5_S9_
FNDA:741418084,_ZNSt3__110unique_ptrINS_11__list_nodeI11Ein_Eta_HitPvEENS_22__allocator_destructorINS_9allocatorIS4_EEEEE11get_deleterEv
FNDA:208,_ZNSt3__117__compressed_pairImNS_9allocatorINS_11__list_nodeI13min_Eout_infoPvEEEEEC2Em
FNDA:2159,_ZNSt3__19allocatorINS_11__list_nodeI7ss_linkPvEEE10deallocateEPS4_m
FNDA:173967576,_ZNSt3__116allocator_traitsINS_9allocatorIdEEE20__construct_backwardIdEENS_9enable_ifIXaaooL_ZNS_17integral_constantIbLb1EE5valueEEntsr15__has_constructIS2_PT_S8_EE5valuesr31is_trivially_move_constructibleIS8_EE5valueEvE4typeERS2_S9_S9_RS9_
FNDA:147,_ZNSt3__122__compressed_pair_elemINS_9allocatorINS_11__list_nodeI11coef_vectorPvEEEELi1ELb1EE5__getEv
FNDA:21471,_ZNSt3__110unique_ptrINS_11__list_nodeI21cumulative_prob_entryPvEENS_22__allocator_destructorINS_9allocatorIS4_EEEEE5resetEPS4_
FNDA:0,_ZNKSt3__110unique_ptrINS_11__list_nodeI14Legendre_coefsPvEENS_22__allocator_destructorINS_9allocatorIS4_EEEEE3getEv
FNDA:50256,_ZNSt3__122__allocator_destructorINS_9allocatorINS_11__list_nodeI15Boundary_cornerPvEEEEEC1ERS6_m
FNDA:347935152,_ZNSt3__117__compressed_pairIPdRNS_9allocatorIdEEE5firstEv
FNDA:1205,_ZNSt3__122__allocator_destructorINS_9allocatorINS_11__list_nodeI6one_muPvEEEEEC2ERS6_m
FNDA:60406,_ZNSt3__117__compressed_pairIPNS_11__list_nodeI14Legendre_coefsPvEENS_22__allocator_destructorINS_9allocatorIS4_EEEEE6secondEv
FNDA:698662,_ZNSt3__116allocator_traitsINS_9allocatorI8dd_entryEEE9__destroyIS2_EEvNS_17integral_constantIbLb1EEERS3_PT_
FNDA:30609,_ZNSt3__116allocator_traitsINS_9allocatorI8dd_entryEEE20__construct_backwardIPS2_EEvRS3_T_S8_RS8_
FNDA:1205,_ZNSt3__116allocator_traitsINS_9allocatorINS_11__list_nodeI6one_muPvEEEEE8allocateERS6_m
FNDA:2175125591,_ZNSt3__1L16__to_raw_pointerIdEEPT_S2_
FNDA:19683,_ZNSt3__116allocator_traitsINS_9allocatorINS_11__list_nodeIdPvEEEEE9constructIddEEvRS5_PT_RKT0_
FNDA:432,_ZNKSt3__117__compressed_pairIPNS_11__list_nodeI11coef_vectorPvEENS_22__allocator_destructorINS_9allocatorIS4_EEEEE5firstEv
FNDA:30,_ZNSt3__110unique_ptrINS_11__list_nodeIN4cmDD14one_joint_distEPvEENS_22__allocator_destructorINS_9allocatorIS5_EEEEE11get_deleterEv
FNDA:86,_ZNKSt3__117__compressed_pairImNS_9allocatorINS_11__list_nodeI12Eprob_vectorPvEEEEE5firstEv
FNDA:173967576,_ZNSt3__116allocator_traitsINS_9allocatorIdEEE10deallocateERS2_Pdm
FNDA:241931270,_ZNSt3__122__compressed_pair_elemIPdLi0ELb0EEC2ES1_
FNDA:17261,_ZNSt3__114pointer_traitsIP15Kalbach_one_EinE10pointer_toERS1_
FNDA:1310640,_ZNSt3__114pointer_traitsIPKcE10pointer_toERS1_
FNDA:0,_ZNSt3__117__compressed_pairIP9Ein_entryRNS_9allocatorIS1_EEEC1ES2_S5_
FNDA:3615,_ZNSt3__117__compressed_pairIPNS_11__list_nodeI6one_muPvEENS_22__allocator_destructorINS_9allocatorIS4_EEEEEC2ES5_S9_
FNDA:0,_ZNSt3__122__compressed_pair_elemIRNS_9allocatorI9Ein_entryEELi1ELb0EE5__getEv
FNDA:172,_ZNSt3__117__compressed_pairIP7__sFILEPFiS2_EEC1ES2_S4_
FNDA:460,_ZNSt3__122__allocator_destructorINS_9allocatorINS_11__list_nodeI9dd_vectorPvEEEEEC2ERS6_m
FNDA:59049,_ZNSt3__122__compressed_pair_elemIPNS_11__list_nodeIdPvEELi0ELb0EEC2ES4_
FNDA:1077034737,_ZNKSt3__117__compressed_pairIPNS_11__list_nodeI11Ein_Eta_HitPvEENS_22__allocator_destructorINS_9allocatorIS4_EEEEE5firstEv
FNDA:0,_ZNSt3__117__compressed_pairIP11Ein_entriesRNS_9allocatorIS1_EEEC1ES2_S5_
FNDA:86,_ZNSt3__117__compressed_pairImNS_9allocatorINS_11__list_nodeI18cm_Legendre_vectorPvEEEEEC2Em
FNDA:59049,_ZNSt3__117__compressed_pairIPNS_11__list_nodeIdPvEENS_22__allocator_destructorINS_9allocatorIS3_EEEEEC2ES4_S8_
FNDA:432,_ZNKSt3__122__compressed_pair_elemIPNS_11__list_nodeI11coef_vectorPvEELi0ELb0EE5__getEv
FNDA:50256,_ZNKSt3__19allocatorINS_11__list_nodeI15Boundary_cornerPvEEE8max_sizeEv
FNDA:86,_ZNSt3__19allocatorINS_11__list_nodeI12Eprob_vectorPvEEEC2Ev
FNDA:0,_ZNSt3__122__compressed_pair_elemINS_9allocatorI9Ein_entryEELi1ELb1EEC2Ev
FNDA:0,_ZNKSt3__19allocatorI9Ein_entryE8max_sizeEv
FNDA:86,_ZNSt3__117__compressed_pairIPNS_12basic_stringIcNS_11char_traitsIcEENS_9allocatorIcEEEENS4_IS6_EEEC2ES7_
FNDA:93,_ZNSt3__110unique_ptrINS_11__list_nodeI18cm_Legendre_vectorPvEENS_22__allocator_destructorINS_9allocatorIS4_EEEEEC1EPS4_S8_
FNDA:460,_ZNKSt3__19allocatorINS_11__list_nodeI9dd_vectorPvEEE8max_sizeEv
FNDA:126,_ZNSt3__116allocator_traitsINS_9allocatorINS_11__list_nodeI13min_Eout_infoPvEEEEE11__constructIS3_S3_EEvNS_17integral_constantIbLb0EEERS6_PT_RKT0_
FNDA:278,_ZNSt3__116allocator_traitsINS_9allocatorINS_11__list_nodeI24standard_Legendre_vectorPvEEEEE7destroyIS3_EEvRS6_PT_
FNDA:30609,_ZNSt3__116allocator_traitsINS_9allocatorI8dd_entryEEE8allocateERS3_m
FNDA:1380,_ZNSt3__110unique_ptrINS_11__list_nodeI9dd_vectorPvEENS_22__allocator_destructorINS_9allocatorIS4_EEEEED1Ev
FNDA:150768,_ZNKSt3__117__compressed_pairIPNS_11__list_nodeI15Boundary_cornerPvEENS_22__allocator_destructorINS_9allocatorIS4_EEEEE5firstEv
FNDA:291561018,_ZNSt3__116allocator_traitsINS_9allocatorI11Ein_Eta_HitEEE11__constructIS2_S2_EEvNS_17integral_constantIbLb1EEERS3_PT_RKT0_
FNDA:86,_ZNKSt3__117__compressed_pairImNS_9allocatorINS_11__list_nodeI14one_joint_distPvEEEEE5firstEv
FNDA:2159,_ZNSt3__110unique_ptrINS_11__list_nodeI7ss_linkPvEENS_22__allocator_destructorINS_9allocatorIS4_EEEEEC1EPS4_S8_
FNDA:1444851108,_ZNSt3__117__compressed_pairIPNS_11__list_nodeIN6quad_F12one_intervalEPvEENS_22__allocator_destructorINS_9allocatorIS5_EEEEE5firstEv
FNDA:361212777,_ZNSt3__110unique_ptrINS_11__list_nodeIN6quad_F12one_intervalEPvEENS_22__allocator_destructorINS_9allocatorIS5_EEEEED1Ev
FNDA:370709042,_ZNSt3__116allocator_traitsINS_9allocatorINS_11__list_nodeI11Ein_Eta_HitPvEEEEE9constructIS3_S3_EEvRS6_PT_RKT0_
FNDA:0,_ZNSt3__122__allocator_destructorINS_9allocatorINS_11__list_nodeI14one_joint_distPvEEEEEclEPS5_
FNDA:126,_ZNSt3__116allocator_traitsINS_9allocatorINS_11__list_nodeI13min_Eout_infoPvEEEEE8allocateERS6_m
FNDA:16832,_ZNKSt3__117__compressed_pairImNS_9allocatorINS_11__list_nodeI15Boundary_cornerPvEEEEE5firstEv
FNDA:1728,_ZNSt3__122__compressed_pair_elemIPNS_11__list_nodeI11coef_vectorPvEELi0ELb0EE5__getEv
FNDA:288,_ZNSt3__122__compressed_pair_elemINS_22__allocator_destructorINS_9allocatorINS_11__list_nodeI11coef_vectorPvEEEEEELi1ELb0EE5__getEv
FNDA:81,_ZNSt3__122__compressed_pair_elemINS_9allocatorINS_11__list_nodeI14one_joint_distPvEEEELi1ELb1EE5__getEv
FNDA:2159,_ZNSt3__122__allocator_destructorINS_9allocatorINS_11__list_nodeI7ss_linkPvEEEEEC1ERS6_m
FNDA:2030,_ZNKSt3__117__compressed_pairImNS_9allocatorINS_11__list_nodeI14Legendre_coefsPvEEEEE5firstEv
FNDA:86,_ZNSt3__122__compressed_pair_elemINS_9allocatorINS_11__list_nodeI18cm_Legendre_vectorPvEEEELi1ELb1EEC2Ev
FNDA:2410,_ZNSt3__117__compressed_pairIPNS_11__list_nodeI6one_muPvEENS_22__allocator_destructorINS_9allocatorIS4_EEEEE6secondEv
FNDA:460,_ZNSt3__116allocator_traitsINS_9allocatorINS_11__list_nodeI9dd_vectorPvEEEEE9constructIS3_S3_EEvRS6_PT_RKT0_
FNDA:4610950,_ZNSt3__114pointer_traitsIPK14Legendre_coefsE10pointer_toERS2_
FNDA:698662,_ZNSt3__116allocator_traitsINS_9allocatorI8dd_entryEEE9constructIS2_S2_EEvRS3_PT_RKT0_
FNDA:21613086,_ZNSt3__116allocator_traitsINS_9allocatorINS_11__list_nodeI15Vcm_quadBox_HitPvEEEEE11__constructIS3_S3_EEvNS_17integral_constantIbLb0EEERS6_PT_RKT0_
FNDA:4448508504,_ZNSt3__122__compressed_pair_elemIPNS_11__list_nodeI11Ein_Eta_HitPvEELi0ELb0EE5__getEv
FNDA:16248,_ZNSt3__122__compressed_pair_elemINS_22__allocator_destructorINS_9allocatorINS_11__list_nodeI13weight_vectorPvEEEEEELi1ELb0EE5__getEv
FNDA:93,_ZNSt3__116allocator_traitsINS_9allocatorINS_11__list_nodeI18cm_Legendre_vectorPvEEEEE9constructIS3_S3_EEvRS6_PT_RKT0_
FNDA:93,_ZNSt3__19allocatorINS_11__list_nodeI18cm_Legendre_vectorPvEEE8allocateEmPKv
FNDA:186,_ZNSt3__110unique_ptrINS_11__list_nodeI18cm_Legendre_vectorPvEENS_22__allocator_destructorINS_9allocatorIS4_EEEEEC1ENS_4__rvIS9_EE
FNDA:2194,_ZNSt3__117__compressed_pairImNS_9allocatorINS_11__list_nodeIN4cmDD8one_EoutEPvEEEEE6secondEv
FNDA:0,_ZNSt3__122__compressed_pair_elemIRNS_9allocatorI9Ein_entryEELi1ELb0EEC2ES4_
FNDA:64839258,_ZNSt3__122__compressed_pair_elemINS_22__allocator_destructorINS_9allocatorINS_11__list_nodeI15Vcm_quadBox_HitPvEEEEEELi1ELb0EEC2ES8_
FNDA:50256,_ZNSt3__116allocator_traitsINS_9allocatorINS_11__list_nodeI15Boundary_cornerPvEEEEE7destroyIS3_EEvRS6_PT_
FNDA:90609,_ZNSt3__110unique_ptrINS_11__list_nodeI14Legendre_coefsPvEENS_22__allocator_destructorINS_9allocatorIS4_EEEEE5resetEPS4_
FNDA:232,_ZNSt3__117__compressed_pairIPNS_11__list_nodeI12Eprob_vectorPvEENS_22__allocator_destructorINS_9allocatorIS4_EEEEE6secondEv
FNDA:76,_ZNSt3__116allocator_traitsINS_9allocatorINS_11__list_nodeI14one_joint_distPvEEEEE8allocateERS6_m
FNDA:64839258,_ZNSt3__122__compressed_pair_elemIPNS_11__list_nodeI15Vcm_quadBox_HitPvEELi0ELb0EEC2ES5_
FNDA:173967576,_ZNSt3__116allocator_traitsINS_9allocatorIdEEE8max_sizeERKS2_
FNDA:15,_ZNSt3__110unique_ptrINS_11__list_nodeIN4cmDD14one_joint_distEPvEENS_22__allocator_destructorINS_9allocatorIS5_EEEEEC2EPS5_S9_
FNDA:0,_ZNSt3__19allocatorI11Ein_entriesE7destroyEPS1_
FNDA:76,_ZNSt3__19allocatorINS_11__list_nodeI14one_joint_distPvEEE8allocateEmPKv
FNDA:186,_ZNSt3__116allocator_traitsINS_9allocatorINS_11__list_nodeI15Kalbach_one_EinPvEEEEE11__constructIS3_S3_EEvNS_17integral_constantIbLb0EEERS6_PT_RKT0_
FNDA:741418084,_ZNSt3__110unique_ptrINS_11__list_nodeI11Ein_Eta_HitPvEENS_22__allocator_destructorINS_9allocatorIS4_EEEEEcvNS_4__rvIS9_EEEv
FNDA:186,_ZNKSt3__19allocatorINS_11__list_nodeI15Kalbach_one_EinPvEEE8max_sizeEv
FNDA:685182,_ZNSt3__122__compressed_pair_elemINS_12basic_stringIcNS_11char_traitsIcEENS_9allocatorIcEEE5__repELi0ELb0EEC2Ev
FNDA:0,_ZNSt3__122__allocator_destructorINS_9allocatorINS_11__list_nodeI11Ein_Eta_HitPvEEEEEclEPS5_
FNDA:0,_ZNSt3__122__compressed_pair_elemIRNS_9allocatorI11Ein_entriesEELi1ELb0EEC2ES4_
FNDA:90609,_ZNSt3__122__compressed_pair_elemIPNS_11__list_nodeI14Legendre_coefsPvEELi0ELb0EEC2ES5_
FNDA:76,_ZNSt3__116allocator_traitsINS_9allocatorINS_11__list_nodeI6one_muPvEEEEE39__select_on_container_copy_constructionENS_17integral_constantIbLb0EEERKS6_
FNDA:1205,_ZNSt3__116allocator_traitsINS_9allocatorINS_11__list_nodeI6one_muPvEEEEE7destroyIS3_EEvRS6_PT_
FNDA:85884,_ZNSt3__122__compressed_pair_elemIPNS_11__list_nodeI21cumulative_prob_entryPvEELi0ELb0EE5__getEv
FNDA:86,_ZNSt3__117__compressed_pairImNS_9allocatorINS_11__list_nodeI15Kalbach_one_EinPvEEEEEC1Em
FNDA:93,_ZNSt3__116allocator_traitsINS_9allocatorINS_11__list_nodeI18cm_Legendre_vectorPvEEEEE7destroyIS3_EEvRS6_PT_
FNDA:152,_ZNKSt3__117__compressed_pairImNS_9allocatorINS_11__list_nodeI6one_muPvEEEEE5firstEv
FNDA:129,_ZNSt3__122__compressed_pair_elemINS_9allocatorINS_11__list_nodeI13min_Eout_infoPvEEEELi1ELb1EE5__getEv
FNDA:240808518,_ZNSt3__122__compressed_pair_elemINS_22__allocator_destructorINS_9allocatorINS_11__list_nodeIN6quad_F12one_intervalEPvEEEEEELi1ELb0EE5__getEv
FNDA:460,_ZNSt3__110unique_ptrINS_11__list_nodeI9dd_vectorPvEENS_22__allocator_destructorINS_9allocatorIS4_EEEEEC1EPS4_S8_
FNDA:76,_ZNSt3__116allocator_traitsINS_9allocatorINS_11__list_nodeI14one_joint_distPvEEEEE7destroyIS3_EEvRS6_PT_
FNDA:172,_ZNSt3__117__compressed_pairIP7__sFILEPFiS2_EEC2ES2_S4_
FNDA:14314,_ZNSt3__110unique_ptrINS_11__list_nodeI21cumulative_prob_entryPvEENS_22__allocator_destructorINS_9allocatorIS4_EEEEEcvNS_4__rvIS9_EEEv
FNDA:19683,_ZNSt3__116allocator_traitsINS_9allocatorINS_11__list_nodeIdPvEEEEE10deallocateERS5_PS4_m
FNDA:228,_ZNSt3__110unique_ptrINS_11__list_nodeI14one_joint_distPvEENS_22__allocator_destructorINS_9allocatorIS4_EEEEE5resetEPS4_
FNDA:172,_ZNSt3__110unique_ptrI7__sFILEPFiPS1_EED2Ev
FNDA:0,_ZNSt3__117__compressed_pairIP9Ein_entryRNS_9allocatorIS1_EEE6secondEv
FNDA:460,_ZNSt3__116allocator_traitsINS_9allocatorINS_11__list_nodeI9dd_vectorPvEEEEE9__destroyIS3_EEvNS_17integral_constantIbLb0EEERS6_PT_
FNDA:228,_ZNKSt3__122__compressed_pair_elemIPNS_11__list_nodeI14one_joint_distPvEELi0ELb0EE5__getEv
FNDA:0,_ZNSt3__117__compressed_pairIP11Ein_entriesRNS_9allocatorIS1_EEE6secondEv
FNDA:74839757,_ZNSt3__117__compressed_pairImNS_9allocatorINS_11__list_nodeIN6quad_F12one_intervalEPvEEEEEC2Em
FNDA:834,_ZNSt3__122__compressed_pair_elemINS_22__allocator_destructorINS_9allocatorINS_11__list_nodeI24standard_Legendre_vectorPvEEEEEELi1ELb0EEC2ES8_
FNDA:24372,_ZNKSt3__117__compressed_pairIPNS_11__list_nodeI13weight_vectorPvEENS_22__allocator_destructorINS_9allocatorIS4_EEEEE5firstEv
FNDA:90609,_ZNSt3__122__compressed_pair_elemINS_22__allocator_destructorINS_9allocatorINS_11__list_nodeI14Legendre_coefsPvEEEEEELi1ELb0EEC2ES8_
FNDA:583,_ZNSt3__114pointer_traitsIP13min_Eout_infoE10pointer_toERS1_
FNDA:50256,_ZNSt3__116allocator_traitsINS_9allocatorINS_11__list_nodeI15Boundary_cornerPvEEEEE9__destroyIS3_EEvNS_17integral_constantIbLb0EEERS6_PT_
FNDA:608821965,_ZNSt3__122__compressed_pair_elemINS_9allocatorIdEELi1ELb1EE5__getEv
FNDA:44161,_ZNSt3__114pointer_traitsIPK18cm_Legendre_vectorE10pointer_toERS2_
FNDA:45,_ZNSt3__110unique_ptrINS_11__list_nodeIN4cmDD14one_joint_distEPvEENS_22__allocator_destructorINS_9allocatorIS5_EEEEED2Ev
FNDA:197756,_ZNSt3__114pointer_traitsIPcE10pointer_toERc
FNDA:558,_ZNSt3__110unique_ptrINS_11__list_nodeI15Kalbach_one_EinPvEENS_22__allocator_destructorINS_9allocatorIS4_EEEEED2Ev
FNDA:558,_ZNSt3__110unique_ptrINS_11__list_nodeI15Kalbach_one_EinPvEENS_22__allocator_destructorINS_9allocatorIS4_EEEEE5resetEPS4_
FNDA:67963694,_ZNSt3__117__compressed_pairIPdNS_9allocatorIdEEEC1ES1_
FNDA:21613086,_ZNSt3__110unique_ptrINS_11__list_nodeI15Vcm_quadBox_HitPvEENS_22__allocator_destructorINS_9allocatorIS4_EEEEEC2EPS4_S8_
FNDA:232,_ZNSt3__110unique_ptrINS_11__list_nodeI12Eprob_vectorPvEENS_22__allocator_destructorINS_9allocatorIS4_EEEEEcvNS_4__rvIS9_EEEv
FNDA:0,_ZNSt3__116allocator_traitsINS_9allocatorI11Ein_entriesEEE8allocateERS3_m
FNDA:2179,_ZNSt3__116allocator_traitsINS_9allocatorINS_11__list_nodeIN4cmDD8one_EoutEPvEEEEE11__constructIS4_S4_EEvNS_17integral_constantIbLb0EEERS7_PT_RKT0_
FNDA:186,_ZNSt3__116allocator_traitsINS_9allocatorINS_11__list_nodeI15Kalbach_one_EinPvEEEEE10deallocateERS6_PS5_m
FNDA:173967576,_ZNSt3__19allocatorIdE10deallocateEPdm
FNDA:278,_ZNSt3__122__allocator_destructorINS_9allocatorINS_11__list_nodeI24standard_Legendre_vectorPvEEEEEC2ERS6_m
FNDA:11105,_ZNSt3__117__compressed_pairIP8dd_entryNS_9allocatorIS1_EEEC2ES2_
FNDA:378,_ZNSt3__110unique_ptrINS_11__list_nodeI13min_Eout_infoPvEENS_22__allocator_destructorINS_9allocatorIS4_EEEEED2Ev
FNDA:3624026,_ZNKSt3__117__compressed_pairImNS_9allocatorINS_11__list_nodeI15Vcm_quadBox_HitPvEEEEE5firstEv
FNDA:15,_ZNSt3__116allocator_traitsINS_9allocatorINS_11__list_nodeIN4cmDD14one_joint_distEPvEEEEE10deallocateERS7_PS6_m
FNDA:116,_ZNSt3__116allocator_traitsINS_9allocatorINS_11__list_nodeI12Eprob_vectorPvEEEEE10deallocateERS6_PS5_m
FNDA:43226172,_ZNSt3__110unique_ptrINS_11__list_nodeI15Vcm_quadBox_HitPvEENS_22__allocator_destructorINS_9allocatorIS4_EEEEEcvNS_4__rvIS9_EEEv
FNDA:45,_ZNSt3__117__compressed_pairIPNS_11__list_nodeIN4cmDD14one_joint_distEPvEENS_22__allocator_destructorINS_9allocatorIS5_EEEEEC1ES6_SA_
FNDA:0,_ZNSt3__117__compressed_pairIP9Ein_entryNS_9allocatorIS1_EEEC2ES2_
FNDA:378,_ZNSt3__117__compressed_pairIPNS_11__list_nodeI13min_Eout_infoPvEENS_22__allocator_destructorINS_9allocatorIS4_EEEEEC1ES5_S9_
FNDA:698662,_ZNSt3__116allocator_traitsINS_9allocatorI8dd_entryEEE11__constructIS2_S2_EEvNS_17integral_constantIbLb1EEERS3_PT_RKT0_
FNDA:227515,_ZNSt3__114pointer_traitsIPNS_16__list_node_baseIdPvEEE10pointer_toERS3_
FNDA:76,_ZNSt3__110unique_ptrINS_11__list_nodeI14one_joint_distPvEENS_22__allocator_destructorINS_9allocatorIS4_EEEEEC1EPS4_S8_
FNDA:279,_ZNSt3__110unique_ptrINS_11__list_nodeI18cm_Legendre_vectorPvEENS_22__allocator_destructorINS_9allocatorIS4_EEEEE7releaseEv
FNDA:432,_ZNSt3__110unique_ptrINS_11__list_nodeI11coef_vectorPvEENS_22__allocator_destructorINS_9allocatorIS4_EEEEE5resetEPS4_
FNDA:30203,_ZNSt3__19allocatorINS_11__list_nodeI14Legendre_coefsPvEEE10deallocateEPS4_m
FNDA:25586,_ZNKSt3__117__compressed_pairIP8dd_entryRNS_9allocatorIS1_EEE5firstEv
FNDA:2159,_ZNSt3__122__allocator_destructorINS_9allocatorINS_11__list_nodeI7ss_linkPvEEEEEC2ERS6_m
FNDA:834,_ZNKSt3__117__compressed_pairIPNS_11__list_nodeI24standard_Legendre_vectorPvEENS_22__allocator_destructorINS_9allocatorIS4_EEEEE5firstEv
FNDA:8124,_ZNSt3__116allocator_traitsINS_9allocatorINS_11__list_nodeI13weight_vectorPvEEEEE9constructIS3_S3_EEvRS6_PT_RKT0_
FNDA:21471,_ZNSt3__117__compressed_pairIPNS_11__list_nodeI21cumulative_prob_entryPvEENS_22__allocator_destructorINS_9allocatorIS4_EEEEEC1ES5_S9_
FNDA:30,_ZNSt3__110unique_ptrINS_11__list_nodeIN4cmDD14one_joint_distEPvEENS_22__allocator_destructorINS_9allocatorIS5_EEEEEC2ENS_4__rvISA_EE
FNDA:291561018,_ZNSt3__19allocatorI11Ein_Eta_HitE7destroyEPS1_
FNDA:370709042,_ZNSt3__19allocatorINS_11__list_nodeI11Ein_Eta_HitPvEEE8allocateEmPKv
FNDA:15,_ZNKSt3__117__compressed_pairImNS_9allocatorINS_11__list_nodeIN4cmDD8one_EoutEPvEEEEE6secondEv
FNDA:432,_ZNSt3__122__compressed_pair_elemINS_22__allocator_destructorINS_9allocatorINS_11__list_nodeI11coef_vectorPvEEEEEELi1ELb0EEC2ES8_
FNDA:209958,_ZNKSt3__117__compressed_pairIP11Ein_Eta_HitRNS_9allocatorIS1_EEE5firstEv
FNDA:3,_ZNSt3__122__compressed_pair_elemINS_9allocatorIcEELi1ELb1EE5__getEv
FNDA:370709042,_ZNSt3__110unique_ptrINS_11__list_nodeI11Ein_Eta_HitPvEENS_22__allocator_destructorINS_9allocatorIS4_EEEEEC1EPS4_S8_
FNDA:558,_ZNSt3__110unique_ptrINS_11__list_nodeI15Kalbach_one_EinPvEENS_22__allocator_destructorINS_9allocatorIS4_EEEEED1Ev
FNDA:3615,_ZNSt3__110unique_ptrINS_11__list_nodeI6one_muPvEENS_22__allocator_destructorINS_9allocatorIS4_EEEEE7releaseEv
FNDA:15,_ZNKSt3__19allocatorINS_11__list_nodeIN4cmDD14one_joint_distEPvEEE8max_sizeEv
FNDA:7157,_ZNSt3__116allocator_traitsINS_9allocatorINS_11__list_nodeI21cumulative_prob_entryPvEEEEE7destroyIS3_EEvRS6_PT_
FNDA:127,_ZNSt3__117__compressed_pairImNS_9allocatorINS_11__list_nodeI12Eprob_vectorPvEEEEE5firstEv
FNDA:1112127126,_ZNSt3__110unique_ptrINS_11__list_nodeI11Ein_Eta_HitPvEENS_22__allocator_destructorINS_9allocatorIS4_EEEEED1Ev
FNDA:1205,_ZNSt3__116allocator_traitsINS_9allocatorINS_11__list_nodeI6one_muPvEEEEE9constructIS3_S3_EEvRS6_PT_RKT0_
FNDA:21613086,_ZNSt3__116allocator_traitsINS_9allocatorINS_11__list_nodeI15Vcm_quadBox_HitPvEEEEE7destroyIS3_EEvRS6_PT_
FNDA:279,_ZNSt3__110unique_ptrINS_11__list_nodeI18cm_Legendre_vectorPvEENS_22__allocator_destructorINS_9allocatorIS4_EEEEED2Ev
FNDA:2179,_ZNSt3__116allocator_traitsINS_9allocatorINS_11__list_nodeIN4cmDD8one_EoutEPvEEEEE8allocateERS7_m
FNDA:2179,_ZNSt3__122__allocator_destructorINS_9allocatorINS_11__list_nodeIN4cmDD8one_EoutEPvEEEEEC1ERS7_m
FNDA:683249,_ZNSt3__19allocatorIcEC2Ev
FNDA:30203,_ZNSt3__116allocator_traitsINS_9allocatorINS_11__list_nodeI14Legendre_coefsPvEEEEE7destroyIS3_EEvRS6_PT_
FNDA:372,_ZNSt3__110unique_ptrINS_11__list_nodeI15Kalbach_one_EinPvEENS_22__allocator_destructorINS_9allocatorIS4_EEEEE11get_deleterEv
FNDA:0,_ZNSt3__19allocatorI9Ein_entryE10deallocateEPS1_m
FNDA:7157,_ZNSt3__116allocator_traitsINS_9allocatorINS_11__list_nodeI21cumulative_prob_entryPvEEEEE9__destroyIS3_EEvNS_17integral_constantIbLb0EEERS6_PT_
FNDA:86,_ZNSt3__117__compressed_pairImNS_9allocatorINS_11__list_nodeI14one_joint_distPvEEEEEC2Em
FNDA:278,_ZNSt3__116allocator_traitsINS_9allocatorINS_11__list_nodeI24standard_Legendre_vectorPvEEEEE11__constructIS3_S3_EEvNS_17integral_constantIbLb0EEERS6_PT_RKT0_
FNDA:26148,_ZNSt3__117__compressed_pairIPNS_11__list_nodeIN4cmDD8one_EoutEPvEENS_22__allocator_destructorINS_9allocatorIS5_EEEEE5firstEv
FNDA:279,_ZNSt3__117__compressed_pairIPNS_11__list_nodeI18cm_Legendre_vectorPvEENS_22__allocator_destructorINS_9allocatorIS4_EEEEEC1ES5_S9_
FNDA:50256,_ZNSt3__19allocatorINS_11__list_nodeI15Boundary_cornerPvEEE10deallocateEPS4_m
FNDA:4318,_ZNSt3__122__compressed_pair_elemINS_22__allocator_destructorINS_9allocatorINS_11__list_nodeI7ss_linkPvEEEEEELi1ELb0EE5__getEv
FNDA:5520,_ZNSt3__117__compressed_pairIPNS_11__list_nodeI9dd_vectorPvEENS_22__allocator_destructorINS_9allocatorIS4_EEEEE5firstEv
FNDA:60406,_ZNSt3__110unique_ptrINS_11__list_nodeI14Legendre_coefsPvEENS_22__allocator_destructorINS_9allocatorIS4_EEEEE11get_deleterEv
FNDA:15,_ZNKSt3__122__compressed_pair_elemINS_9allocatorINS_11__list_nodeIN4cmDD8one_EoutEPvEEEELi1ELb1EE5__getEv
FNDA:424610970,_ZNSt3__117__compressed_pairIPdRNS_9allocatorIdEEE6secondEv
FNDA:278,_ZNSt3__116allocator_traitsINS_9allocatorINS_11__list_nodeI24standard_Legendre_vectorPvEEEEE9constructIS3_S3_EEvRS6_PT_RKT0_
FNDA:6477,_ZNSt3__117__compressed_pairIPNS_11__list_nodeI7ss_linkPvEENS_22__allocator_destructorINS_9allocatorIS4_EEEEEC1ES5_S9_
FNDA:24372,_ZNSt3__110unique_ptrINS_11__list_nodeI13weight_vectorPvEENS_22__allocator_destructorINS_9allocatorIS4_EEEEE7releaseEv
FNDA:683249,_ZNSt3__117__compressed_pairINS_12basic_stringIcNS_11char_traitsIcEENS_9allocatorIcEEE5__repES5_EC1Ev
FNDA:116,_ZNSt3__116allocator_traitsINS_9allocatorINS_11__list_nodeI12Eprob_vectorPvEEEEE7destroyIS3_EEvRS6_PT_
FNDA:6537,_ZNKSt3__122__compressed_pair_elemIPNS_11__list_nodeIN4cmDD8one_EoutEPvEELi0ELb0EE5__getEv
FNDA:594474660,_ZNSt3__122__compressed_pair_elemIP11Ein_Eta_HitLi0ELb0EEC2ES2_
FNDA:1728,_ZNSt3__117__compressed_pairIPNS_11__list_nodeI11coef_vectorPvEENS_22__allocator_destructorINS_9allocatorIS4_EEEEE5firstEv
FNDA:120404259,_ZNSt3__122__allocator_destructorINS_9allocatorINS_11__list_nodeIN6quad_F12one_intervalEPvEEEEEC1ERS7_m
FNDA:59049,_ZNKSt3__117__compressed_pairIPNS_11__list_nodeIdPvEENS_22__allocator_destructorINS_9allocatorIS3_EEEEE5firstEv
FNDA:3615,_ZNSt3__122__compressed_pair_elemIPNS_11__list_nodeI6one_muPvEELi0ELb0EEC2ES5_
FNDA:2676,_ZNSt3__117__compressed_pairImNS_9allocatorINS_11__list_nodeI21cumulative_prob_entryPvEEEEEC2Em
FNDA:260417237,_ZNKSt3__117__compressed_pairImNS_9allocatorINS_11__list_nodeIN6quad_F12one_intervalEPvEEEEE5firstEv
FNDA:86,_ZNSt3__117__compressed_pairImNS_9allocatorINS_11__list_nodeIN4cmDD14one_joint_distEPvEEEEEC2Em
FNDA:0,_ZNSt3__19allocatorI11Ein_entriesEC2Ev
FNDA:80,_ZNSt3__19allocatorINS_11__list_nodeI15Boundary_cornerPvEEEC2Ev
FNDA:372,_ZNSt3__110unique_ptrINS_11__list_nodeI15Kalbach_one_EinPvEENS_22__allocator_destructorINS_9allocatorIS4_EEEEEC2ENS_4__rvIS9_EE
FNDA:558,_ZNKSt3__122__compressed_pair_elemIPNS_11__list_nodeI15Kalbach_one_EinPvEELi0ELb0EE5__getEv
FNDA:1165194282,_ZNSt3__117__compressed_pairIP11Ein_Eta_HitNS_9allocatorIS1_EEE6secondEv
FNDA:556,_ZNSt3__122__compressed_pair_elemINS_22__allocator_destructorINS_9allocatorINS_11__list_nodeI24standard_Legendre_vectorPvEEEEEELi1ELb0EE5__getEv
FNDA:192,_ZNSt3__117__compressed_pairImNS_9allocatorINS_11__list_nodeI15Kalbach_one_EinPvEEEEE6secondEv
FNDA:2159,_ZNSt3__116allocator_traitsINS_9allocatorINS_11__list_nodeI7ss_linkPvEEEEE9__destroyIS3_EEvNS_17integral_constantIbLb0EEERS6_PT_
FNDA:361212777,_ZNSt3__110unique_ptrINS_11__list_nodeIN6quad_F12one_intervalEPvEENS_22__allocator_destructorINS_9allocatorIS5_EEEEE7releaseEv
FNDA:6537,_ZNKSt3__110unique_ptrINS_11__list_nodeIN4cmDD8one_EoutEPvEENS_22__allocator_destructorINS_9allocatorIS5_EEEEEptEv
FNDA:76,_ZNSt3__117__compressed_pairImNS_9allocatorINS_11__list_nodeI6one_muPvEEEEEC2Em
FNDA:85884,_ZNSt3__117__compressed_pairIPNS_11__list_nodeI21cumulative_prob_entryPvEENS_22__allocator_destructorINS_9allocatorIS4_EEEEE5firstEv
FNDA:19683,_ZNSt3__116allocator_traitsINS_9allocatorINS_11__list_nodeIdPvEEEEE8allocateERS5_m
FNDA:93,_ZNKSt3__19allocatorINS_11__list_nodeI18cm_Legendre_vectorPvEEE8max_sizeEv
FNDA:288,_ZNSt3__110unique_ptrINS_11__list_nodeI11coef_vectorPvEENS_22__allocator_destructorINS_9allocatorIS4_EEEEEC1ENS_4__rvIS9_EE
FNDA:2410,_ZNSt3__110unique_ptrINS_11__list_nodeI6one_muPvEENS_22__allocator_destructorINS_9allocatorIS4_EEEEEC1ENS_4__rvIS9_EE
FNDA:0,_ZNSt3__116allocator_traitsINS_9allocatorI11Ein_entriesEEE20__construct_backwardIPS2_EEvRS3_T_S8_RS8_
FNDA:172,_ZNSt3__122__compressed_pair_elemIPFiP7__sFILEELi1ELb0EEC2ES4_
FNDA:294,_ZNSt3__122__compressed_pair_elemINS_9allocatorINS_11__list_nodeI24standard_Legendre_vectorPvEEEELi1ELb1EE5__getEv
FNDA:291351060,_ZNSt3__19allocatorI11Ein_Eta_HitE8allocateEmPKv
FNDA:1205,_ZNSt3__19allocatorINS_11__list_nodeI6one_muPvEEE8allocateEmPKv
FNDA:0,_ZNSt3__117__compressed_pairIP9Ein_entryNS_9allocatorIS1_EEE5firstEv
FNDA:6537,_ZNKSt3__117__compressed_pairIPNS_11__list_nodeIN4cmDD8one_EoutEPvEENS_22__allocator_destructorINS_9allocatorIS5_EEEEE5firstEv
FNDA:1692,_ZNSt3__117__compressed_pairImNS_9allocatorINS_11__list_nodeI21cumulative_prob_entryPvEEEEEC2EmS6_
FNDA:1933,_ZNSt3__122__compressed_pair_elemINS_9allocatorIcEELi1ELb1EEC2ES2_
FNDA:120404259,_ZNSt3__116allocator_traitsINS_9allocatorINS_11__list_nodeIN6quad_F12one_intervalEPvEEEEE7destroyIS4_EEvRS7_PT_
FNDA:228,_ZNKSt3__110unique_ptrINS_11__list_nodeI14one_joint_distPvEENS_22__allocator_destructorINS_9allocatorIS4_EEEEEptEv
FNDA:19683,_ZNSt3__19allocatorINS_11__list_nodeIdPvEEE8allocateEmPKv
FNDA:1380,_ZNSt3__110unique_ptrINS_11__list_nodeI9dd_vectorPvEENS_22__allocator_destructorINS_9allocatorIS4_EEEEED2Ev
FNDA:173967576,_ZNSt3__116allocator_traitsINS_9allocatorIdEEE8allocateERS2_m
FNDA:558,_ZNSt3__117__compressed_pairIPNS_11__list_nodeI15Kalbach_one_EinPvEENS_22__allocator_destructorINS_9allocatorIS4_EEEEEC2ES5_S9_
FNDA:0,_ZNSt3__116allocator_traitsINS_9allocatorI9Ein_entryEEE20__construct_backwardIPS2_EEvRS3_T_S8_RS8_
FNDA:559199,_ZNSt3__114pointer_traitsIPK13min_Eout_infoE10pointer_toERS2_
FNDA:24372,_ZNSt3__122__compressed_pair_elemINS_22__allocator_destructorINS_9allocatorINS_11__list_nodeI13weight_vectorPvEEEEEELi1ELb0EEC2ES8_
FNDA:4016420,_ZNSt3__114pointer_traitsIPNS_16__list_node_baseI14one_joint_distPvEEE10pointer_toERS4_
FNDA:1077034737,_ZNKSt3__122__compressed_pair_elemIPNS_11__list_nodeI11Ein_Eta_HitPvEELi0ELb0EE5__getEv
FNDA:76,_ZNSt3__116allocator_traitsINS_9allocatorINS_11__list_nodeI14one_joint_distPvEEEEE9__destroyIS3_EEvNS_17integral_constantIbLb0EEERS6_PT_
FNDA:370709042,_ZNKSt3__19allocatorINS_11__list_nodeI11Ein_Eta_HitPvEEE8max_sizeEv
FNDA:144,_ZNKSt3__19allocatorINS_11__list_nodeI11coef_vectorPvEEE8max_sizeEv
FNDA:14460,_ZNSt3__117__compressed_pairIPNS_11__list_nodeI6one_muPvEENS_22__allocator_destructorINS_9allocatorIS4_EEEEE5firstEv
FNDA:291351060,_ZNSt3__117__compressed_pairIP11Ein_Eta_HitRNS_9allocatorIS1_EEEC1ES2_S5_
FNDA:515,_ZNSt3__117__compressed_pairImNS_9allocatorINS_11__list_nodeI9dd_vectorPvEEEEE6secondEv
FNDA:361212777,_ZNKSt3__117__compressed_pairIPNS_11__list_nodeIN6quad_F12one_intervalEPvEENS_22__allocator_destructorINS_9allocatorIS5_EEEEE5firstEv
FNDA:45,_ZNSt3__110unique_ptrINS_11__list_nodeIN4cmDD14one_joint_distEPvEENS_22__allocator_destructorINS_9allocatorIS5_EEEEED1Ev
FNDA:1380,_ZNSt3__122__compressed_pair_elemINS_22__allocator_destructorINS_9allocatorINS_11__list_nodeI9dd_vectorPvEEEEEELi1ELb0EEC2ES8_
FNDA:4126424916,_ZNSt3__1L16__to_raw_pointerI11Ein_Eta_HitEEPT_S3_
FNDA:361212777,_ZNSt3__117__compressed_pairIPNS_11__list_nodeIN6quad_F12one_intervalEPvEENS_22__allocator_destructorINS_9allocatorIS5_EEEEEC1ES6_SA_
FNDA:920,_ZNSt3__19allocatorINS_11__list_nodeI15Vcm_quadBox_HitPvEEEC2Ev
FNDA:126,_ZNSt3__122__allocator_destructorINS_9allocatorINS_11__list_nodeI13min_Eout_infoPvEEEEEC2ERS6_m
FNDA:371,_ZNSt3__116allocator_traitsINS_9allocatorINS_11__list_nodeI14Legendre_coefsPvEEEEE39__select_on_container_copy_constructionENS_17integral_constantIbLb0EEERKS6_
FNDA:1110,_ZNSt3__122__compressed_pair_elemINS_9allocatorINS_11__list_nodeIdPvEEEELi1ELb1EEC2Ev
FNDA:15,_ZNSt3__19allocatorINS_11__list_nodeIN4cmDD14one_joint_distEPvEEE10deallocateEPS5_m
FNDA:126,_ZNSt3__116allocator_traitsINS_9allocatorINS_11__list_nodeI13min_Eout_infoPvEEEEE7destroyIS3_EEvRS6_PT_
FNDA:10,_ZNSt3__114pointer_traitsIPK14one_joint_distE10pointer_toERS2_
FNDA:6477,_ZNSt3__122__compressed_pair_elemINS_22__allocator_destructorINS_9allocatorINS_11__list_nodeI7ss_linkPvEEEEEELi1ELb0EEC2ES8_
FNDA:45,_ZNSt3__122__compressed_pair_elemINS_22__allocator_destructorINS_9allocatorINS_11__list_nodeIN4cmDD14one_joint_distEPvEEEEEELi1ELb0EEC2ES9_
FNDA:460,_ZNSt3__19allocatorINS_11__list_nodeI9dd_vectorPvEEE10deallocateEPS4_m
FNDA:4358,_ZNSt3__117__compressed_pairIPNS_11__list_nodeIN4cmDD8one_EoutEPvEENS_22__allocator_destructorINS_9allocatorIS5_EEEEE6secondEv
FNDA:24372,_ZNKSt3__110unique_ptrINS_11__list_nodeI13weight_vectorPvEENS_22__allocator_destructorINS_9allocatorIS4_EEEEEptEv
FNDA:21471,_ZNSt3__110unique_ptrINS_11__list_nodeI21cumulative_prob_entryPvEENS_22__allocator_destructorINS_9allocatorIS4_EEEEE7releaseEv
FNDA:303123600,_ZNSt3__122__compressed_pair_elemINS_9allocatorI11Ein_Eta_HitEELi1ELb1EEC2Ev
FNDA:6537,_ZNSt3__110unique_ptrINS_11__list_nodeIN4cmDD8one_EoutEPvEENS_22__allocator_destructorINS_9allocatorIS5_EEEEE5resetEPS5_
FNDA:50256,_ZNSt3__110unique_ptrINS_11__list_nodeI15Boundary_cornerPvEENS_22__allocator_destructorINS_9allocatorIS4_EEEEEC1EPS4_S8_
FNDA:24372,_ZNSt3__122__compressed_pair_elemIPNS_11__list_nodeI13weight_vectorPvEELi0ELb0EEC2ES5_
FNDA:2952089,_ZNSt3__1L16__to_raw_pointerIKcEEPT_S3_
FNDA:2245,_ZNSt3__117__compressed_pairImNS_9allocatorINS_11__list_nodeI7ss_linkPvEEEEE5firstEv
FNDA:240808518,_ZNSt3__122__compressed_pair_elemINS_9allocatorINS_11__list_nodeIN6quad_F12one_intervalEPvEEEELi1ELb1EE5__getEv
FNDA:60406,_ZNSt3__110unique_ptrINS_11__list_nodeI14Legendre_coefsPvEENS_22__allocator_destructorINS_9allocatorIS4_EEEEEC1ENS_4__rvIS9_EE
FNDA:1281,_ZNSt3__117__compressed_pairImNS_9allocatorINS_11__list_nodeI6one_muPvEEEEE6secondEv
FNDA:21471,_ZNSt3__117__compressed_pairIPNS_11__list_nodeI21cumulative_prob_entryPvEENS_22__allocator_destructorINS_9allocatorIS4_EEEEEC2ES5_S9_
FNDA:278,_ZNSt3__19allocatorINS_11__list_nodeI24standard_Legendre_vectorPvEEE10deallocateEPS4_m
FNDA:43226172,_ZNSt3__110unique_ptrINS_11__list_nodeI15Vcm_quadBox_HitPvEENS_22__allocator_destructorINS_9allocatorIS4_EEEEEC2ENS_4__rvIS9_EE
FNDA:480,_ZNSt3__114pointer_traitsIPK6one_muE10pointer_toERS2_
FNDA:4318,_ZNSt3__110unique_ptrINS_11__list_nodeI7ss_linkPvEENS_22__allocator_destructorINS_9allocatorIS4_EEEEE11get_deleterEv
FNDA:1549,_ZNSt3__19allocatorINS_11__list_nodeI14Legendre_coefsPvEEEC2Ev
FNDA:515,_ZNSt3__122__compressed_pair_elemINS_9allocatorINS_11__list_nodeI9dd_vectorPvEEEELi1ELb1EE5__getEv
FNDA:180,_ZNSt3__117__compressed_pairIPNS_11__list_nodeIN4cmDD14one_joint_distEPvEENS_22__allocator_destructorINS_9allocatorIS5_EEEEE5firstEv
FNDA:86,_ZNSt3__117__compressed_pairImNS_9allocatorINS_11__list_nodeI12Eprob_vectorPvEEEEEC1Em
FNDA:25236192,_ZNSt3__117__compressed_pairImNS_9allocatorINS_11__list_nodeI15Vcm_quadBox_HitPvEEEEE6secondEv
FNDA:931631,_ZNSt3__114pointer_traitsIPNS_16__list_node_baseI13weight_vectorPvEEE10pointer_toERS4_
FNDA:99,_ZNSt3__117__compressed_pairImNS_9allocatorINS_11__list_nodeI18cm_Legendre_vectorPvEEEEE6secondEv
FNDA:76,_ZNSt3__122__compressed_pair_elemINS_9allocatorINS_11__list_nodeI6one_muPvEEEELi1ELb1EEC2ES6_
FNDA:370709042,_ZNSt3__110unique_ptrINS_11__list_nodeI11Ein_Eta_HitPvEENS_22__allocator_destructorINS_9allocatorIS4_EEEEEC2EPS4_S8_
FNDA:144,_ZNSt3__116allocator_traitsINS_9allocatorINS_11__list_nodeI11coef_vectorPvEEEEE9constructIS3_S3_EEvRS6_PT_RKT0_
FNDA:0,_ZNSt3__117__compressed_pairIP9Ein_entryRNS_9allocatorIS1_EEEC2ES2_S5_
FNDA:0,_ZNSt3__122__allocator_destructorINS_9allocatorINS_11__list_nodeI11coef_vectorPvEEEEEclEPS5_
FNDA:43226172,_ZNSt3__122__compressed_pair_elemINS_22__allocator_destructorINS_9allocatorINS_11__list_nodeI15Vcm_quadBox_HitPvEEEEEELi1ELb0EE5__getEv
FNDA:30609,_ZNSt3__116allocator_traitsINS_9allocatorI8dd_entryEEE8max_sizeERKS3_
FNDA:76,_ZNSt3__122__allocator_destructorINS_9allocatorINS_11__list_nodeI14one_joint_distPvEEEEEC2ERS6_m
FNDA:582702120,_ZNSt3__117__compressed_pairIP11Ein_Eta_HitRNS_9allocatorIS1_EEE5firstEv
FNDA:9157678,_ZNSt3__114pointer_traitsIP6one_muE10pointer_toERS1_
FNDA:8124,_ZNSt3__19allocatorINS_11__list_nodeI13weight_vectorPvEEE10deallocateEPS4_m
FNDA:1380,_ZNSt3__110unique_ptrINS_11__list_nodeI9dd_vectorPvEENS_22__allocator_destructorINS_9allocatorIS4_EEEEE5resetEPS4_
FNDA:378,_ZNSt3__122__compressed_pair_elemINS_22__allocator_destructorINS_9allocatorINS_11__list_nodeI13min_Eout_infoPvEEEEEELi1ELb0EEC2ES8_
FNDA:603072,_ZNSt3__122__compressed_pair_elemIPNS_11__list_nodeI15Boundary_cornerPvEELi0ELb0EE5__getEv
FNDA:291561018,_ZNSt3__116allocator_traitsINS_9allocatorI11Ein_Eta_HitEEE9constructIS2_S2_EEvRS3_PT_RKT0_
FNDA:949531,_ZNSt3__117__compressed_pairINS_12basic_stringIcNS_11char_traitsIcEENS_9allocatorIcEEE5__repES5_E5firstEv
FNDA:100512,_ZNSt3__122__compressed_pair_elemINS_22__allocator_destructorINS_9allocatorINS_11__list_nodeI15Boundary_cornerPvEEEEEELi1ELb0EE5__getEv
FNDA:14460,_ZNSt3__122__compressed_pair_elemIPNS_11__list_nodeI6one_muPvEELi0ELb0EE5__getEv
FNDA:1205,_ZNSt3__116allocator_traitsINS_9allocatorINS_11__list_nodeI6one_muPvEEEEE11__constructIS3_S3_EEvNS_17integral_constantIbLb0EEERS6_PT_RKT0_
FNDA:240808518,_ZNSt3__110unique_ptrINS_11__list_nodeIN6quad_F12one_intervalEPvEENS_22__allocator_destructorINS_9allocatorIS5_EEEEEC1ENS_4__rvISA_EE
FNDA:30609,_ZNSt3__117__compressed_pairIP8dd_entryRNS_9allocatorIS1_EEEC2ES2_S5_
FNDA:920,_ZNSt3__122__compressed_pair_elemINS_22__allocator_destructorINS_9allocatorINS_11__list_nodeI9dd_vectorPvEEEEEELi1ELb0EE5__getEv
FNDA:15,_ZNSt3__116allocator_traitsINS_9allocatorINS_11__list_nodeIN4cmDD14one_joint_distEPvEEEEE7destroyIS4_EEvRS7_PT_
FNDA:0,_ZNSt3__116allocator_traitsINS_9allocatorI11Ein_entriesEEE10__max_sizeENS_17integral_constantIbLb1EEERKS3_
FNDA:144,_ZNSt3__114pointer_traitsIPK11coef_vectorE10pointer_toERS2_
FNDA:45,_ZNKSt3__122__compressed_pair_elemIPNS_11__list_nodeIN4cmDD14one_joint_distEPvEELi0ELb0EE5__getEv
FNDA:15,_ZNSt3__116allocator_traitsINS_9allocatorINS_11__list_nodeIN4cmDD14one_joint_distEPvEEEEE11__constructIS4_S4_EEvNS_17integral_constantIbLb0EEERS7_PT_RKT0_
FNDA:60512,_ZNSt3__117__compressed_pairImNS_9allocatorINS_11__list_nodeIdPvEEEEE5firstEv
FNDA:126,_ZNSt3__110unique_ptrINS_11__list_nodeI13min_Eout_infoPvEENS_22__allocator_destructorINS_9allocatorIS4_EEEEEC1EPS4_S8_
FNDA:834,_ZNSt3__117__compressed_pairIPNS_11__list_nodeI24standard_Legendre_vectorPvEENS_22__allocator_destructorINS_9allocatorIS4_EEEEEC2ES5_S9_
FNDA:252,_ZNKSt3__110unique_ptrINS_11__list_nodeI13min_Eout_infoPvEENS_22__allocator_destructorINS_9allocatorIS4_EEEEE3getEv
FNDA:192,_ZNSt3__122__compressed_pair_elemINS_9allocatorINS_11__list_nodeI15Kalbach_one_EinPvEEEELi1ELb1EE5__getEv
FNDA:127,_ZNSt3__117__compressed_pairImNS_9allocatorINS_11__list_nodeI12Eprob_vectorPvEEEEE6secondEv
FNDA:8124,_ZNKSt3__19allocatorINS_11__list_nodeI13weight_vectorPvEEE8max_sizeEv
FNDA:76,_ZNSt3__110unique_ptrINS_11__list_nodeI14one_joint_distPvEENS_22__allocator_destructorINS_9allocatorIS4_EEEEEC2EPS4_S8_
FNDA:30,_ZNSt3__110unique_ptrINS_11__list_nodeIN4cmDD14one_joint_distEPvEENS_22__allocator_destructorINS_9allocatorIS5_EEEEEC1ENS_4__rvISA_EE
FNDA:1380,_ZNSt3__117__compressed_pairIPNS_11__list_nodeI9dd_vectorPvEENS_22__allocator_destructorINS_9allocatorIS4_EEEEEC1ES5_S9_
FNDA:291351060,_ZNSt3__117__compressed_pairIP11Ein_Eta_HitRNS_9allocatorIS1_EEEC2ES2_S5_
FNDA:86,_ZNSt3__117__compressed_pairImNS_9allocatorINS_11__list_nodeIN4cmDD14one_joint_distEPvEEEEEC1Em
FNDA:1073728885,_ZNKSt3__117__compressed_pairIPdNS_9allocatorIdEEE5firstEv
FNDA:288,_ZNSt3__110unique_ptrINS_11__list_nodeI11coef_vectorPvEENS_22__allocator_destructorINS_9allocatorIS4_EEEEE11get_deleterEv
FNDA:147,_ZNSt3__117__compressed_pairImNS_9allocatorINS_11__list_nodeI11coef_vectorPvEEEEE5firstEv
FNDA:46847053,_ZNSt3__117__compressed_pairImNS_9allocatorINS_11__list_nodeI15Vcm_quadBox_HitPvEEEEE5firstEv
FNDA:30,_ZNSt3__110unique_ptrINS_11__list_nodeIN4cmDD14one_joint_distEPvEENS_22__allocator_destructorINS_9allocatorIS5_EEEEEcvNS_4__rvISA_EEEv
FNDA:0,_ZNSt3__116allocator_traitsINS_9allocatorI11Ein_entriesEEE9__destroyIS2_EEvNS_17integral_constantIbLb1EEERS3_PT_
FNDA:93,_ZNSt3__116allocator_traitsINS_9allocatorINS_11__list_nodeI18cm_Legendre_vectorPvEEEEE8allocateERS6_m
FNDA:186,_ZNSt3__116allocator_traitsINS_9allocatorINS_11__list_nodeI15Kalbach_one_EinPvEEEEE7destroyIS3_EEvRS6_PT_
FNDA:45,_ZNKSt3__110unique_ptrINS_11__list_nodeIN4cmDD14one_joint_distEPvEENS_22__allocator_destructorINS_9allocatorIS5_EEEEEptEv
FNDA:183445386,_ZNSt3__116allocator_traitsINS_9allocatorIdEEE9constructIddEEvRS2_PT_RKT0_
FNDA:2232,_ZNSt3__117__compressed_pairIPNS_11__list_nodeI15Kalbach_one_EinPvEENS_22__allocator_destructorINS_9allocatorIS4_EEEEE5firstEv
FNDA:21471,_ZNSt3__110unique_ptrINS_11__list_nodeI21cumulative_prob_entryPvEENS_22__allocator_destructorINS_9allocatorIS4_EEEEED2Ev
FNDA:180386,_ZNKSt3__117__compressed_pairIP8dd_entryNS_9allocatorIS1_EEE5firstEv
FNDA:228,_ZNSt3__110unique_ptrINS_11__list_nodeI14one_joint_distPvEENS_22__allocator_destructorINS_9allocatorIS4_EEEEED1Ev
FNDA:252,_ZNSt3__117__compressed_pairIPNS_11__list_nodeI13min_Eout_infoPvEENS_22__allocator_destructorINS_9allocatorIS4_EEEEE6secondEv
FNDA:86,_ZNSt3__117__compressed_pairImNS_9allocatorINS_11__list_nodeI13weight_vectorPvEEEEEC2Em
FNDA:4170887,_ZNSt3__114pointer_traitsIPNS_16__list_node_baseIN4cmDD14one_joint_distEPvEEE10pointer_toERS5_
FNDA:50256,_ZNKSt3__110unique_ptrINS_11__list_nodeI15Boundary_cornerPvEENS_22__allocator_destructorINS_9allocatorIS4_EEEEEptEv
FNDA:348,_ZNSt3__122__compressed_pair_elemINS_22__allocator_destructorINS_9allocatorINS_11__list_nodeI12Eprob_vectorPvEEEEEELi1ELb0EEC2ES8_
FNDA:558,_ZNKSt3__117__compressed_pairIPNS_11__list_nodeI15Kalbach_one_EinPvEENS_22__allocator_destructorINS_9allocatorIS4_EEEEE5firstEv
FNDA:0,_ZNKSt3__117__compressed_pairIP9Ein_entryNS_9allocatorIS1_EEE6secondEv
FNDA:4358,_ZNSt3__110unique_ptrINS_11__list_nodeIN4cmDD8one_EoutEPvEENS_22__allocator_destructorINS_9allocatorIS5_EEEEEC2ENS_4__rvISA_EE
FNDA:258,_ZNSt3__19allocatorINS_11__list_nodeI24standard_Legendre_vectorPvEEEC2Ev
FNDA:86,_ZNSt3__19allocatorINS_11__list_nodeI14one_joint_distPvEEEC2Ev
FNDA:183445386,_ZNSt3__116allocator_traitsINS_9allocatorIdEEE11__constructIddEEvNS_17integral_constantIbLb1EEERS2_PT_RKT0_
FNDA:24372,_ZNSt3__117__compressed_pairIPNS_11__list_nodeI13weight_vectorPvEENS_22__allocator_destructorINS_9allocatorIS4_EEEEEC2ES5_S9_
FNDA:7157,_ZNKSt3__19allocatorINS_11__list_nodeI21cumulative_prob_entryPvEEE8max_sizeEv
FNDA:8124,_ZNSt3__116allocator_traitsINS_9allocatorINS_11__list_nodeI13weight_vectorPvEEEEE8allocateERS6_m
FNDA:278,_ZNSt3__116allocator_traitsINS_9allocatorINS_11__list_nodeI24standard_Legendre_vectorPvEEEEE8allocateERS6_m
FNDA:0,_ZNSt3__122__compressed_pair_elemINS_9allocatorI9Ein_entryEELi1ELb1EE5__getEv
FNDA:186,_ZNSt3__19allocatorINS_11__list_nodeI15Kalbach_one_EinPvEEE10deallocateEPS4_m
FNDA:90609,_ZNSt3__117__compressed_pairIPNS_11__list_nodeI14Legendre_coefsPvEENS_22__allocator_destructorINS_9allocatorIS4_EEEEEC2ES5_S9_
FNDA:278,_ZNSt3__116allocator_traitsINS_9allocatorINS_11__list_nodeI24standard_Legendre_vectorPvEEEEE9__destroyIS3_EEvNS_17integral_constantIbLb0EEERS6_PT_
FNDA:469548,_ZNSt3__117__compressed_pairIP8dd_entryRNS_9allocatorIS1_EEE6secondEv
FNDA:294,_ZNSt3__117__compressed_pairImNS_9allocatorINS_11__list_nodeI24standard_Legendre_vectorPvEEEEE5firstEv
FNDA:0,_ZNSt3__122__compressed_pair_elemIRNS_9allocatorI11Ein_entriesEELi1ELb0EE5__getEv
FNDA:0,_ZNSt3__116allocator_traitsINS_9allocatorI9Ein_entryEEE10deallocateERS3_PS2_m
FNDA:86,_ZNSt3__117__compressed_pairImNS_9allocatorINS_11__list_nodeI13weight_vectorPvEEEEEC1Em
FNDA:1444851108,_ZNSt3__122__compressed_pair_elemIPNS_11__list_nodeIN6quad_F12one_intervalEPvEELi0ELb0EE5__getEv
FNDA:6537,_ZNSt3__117__compressed_pairIPNS_11__list_nodeIN4cmDD8one_EoutEPvEENS_22__allocator_destructorINS_9allocatorIS5_EEEEEC2ES6_SA_
FNDA:21613086,_ZNKSt3__19allocatorINS_11__list_nodeI15Vcm_quadBox_HitPvEEE8max_sizeEv
FNDA:361212777,_ZNSt3__122__compressed_pair_elemINS_22__allocator_destructorINS_9allocatorINS_11__list_nodeIN6quad_F12one_intervalEPvEEEEEELi1ELb0EEC2ES9_
FNDA:15,_ZNSt3__122__compressed_pair_elemINS_9allocatorINS_11__list_nodeIN4cmDD8one_EoutEPvEEEELi1ELb1EEC2ES7_
FNDA:58893,_ZNSt3__114pointer_traitsIPN4cmDD8one_EoutEE10pointer_toERS2_
FNDA:116,_ZNKSt3__19allocatorINS_11__list_nodeI12Eprob_vectorPvEEE8max_sizeEv
FNDA:0,_ZNKSt3__117__compressed_pairIP11Ein_entriesNS_9allocatorIS1_EEE5firstEv
FNDA:8124,_ZNSt3__122__allocator_destructorINS_9allocatorINS_11__list_nodeI13weight_vectorPvEEEEEC1ERS6_m
FNDA:582702120,_ZNKSt3__19allocatorI11Ein_Eta_HitE8max_sizeEv
FNDA:16,_ZNSt3__117__compressed_pairImNS_9allocatorINS_11__list_nodeIN4cmDD14one_joint_distEPvEEEEE5firstEv
FNDA:15,_ZNSt3__110unique_ptrINS_11__list_nodeIN4cmDD14one_joint_distEPvEENS_22__allocator_destructorINS_9allocatorIS5_EEEEEC1EPS5_S9_
FNDA:7428,_ZNSt3__117__compressed_pairImNS_9allocatorINS_11__list_nodeI21cumulative_prob_entryPvEEEEE6secondEv
FNDA:8124,_ZNSt3__19allocatorINS_11__list_nodeI13weight_vectorPvEEE8allocateEmPKv
FNDA:8124,_ZNSt3__116allocator_traitsINS_9allocatorINS_11__list_nodeI13weight_vectorPvEEEEE10deallocateERS6_PS5_m
FNDA:348,_ZNSt3__110unique_ptrINS_11__list_nodeI12Eprob_vectorPvEENS_22__allocator_destructorINS_9allocatorIS4_EEEEE7releaseEv
FNDA:126,_ZNSt3__116allocator_traitsINS_9allocatorINS_11__list_nodeI13min_Eout_infoPvEEEEE9constructIS3_S3_EEvRS6_PT_RKT0_
FNDA:0,_ZNSt3__122__compressed_pair_elemINS_9allocatorI11Ein_entriesEELi1ELb1EEC2Ev
FNDA:3336,_ZNSt3__122__compressed_pair_elemIPNS_11__list_nodeI24standard_Legendre_vectorPvEELi0ELb0EE5__getEv
FNDA:0,_ZNSt3__116allocator_traitsINS_9allocatorI9Ein_entryEEE10__max_sizeENS_17integral_constantIbLb1EEERKS3_
FNDA:116,_ZNSt3__122__allocator_destructorINS_9allocatorINS_11__list_nodeI12Eprob_vectorPvEEEEEC1ERS6_m
FNDA:116,_ZNSt3__19allocatorINS_11__list_nodeI12Eprob_vectorPvEEE10deallocateEPS4_m
FNDA:86,_ZNSt3__117__compressed_pairImNS_9allocatorINS_11__list_nodeI14one_joint_distPvEEEEEC1Em
FNDA:228,_ZNSt3__110unique_ptrINS_11__list_nodeI14one_joint_distPvEENS_22__allocator_destructorINS_9allocatorIS4_EEEEE7releaseEv
FNDA:3615,_ZNSt3__122__compressed_pair_elemINS_22__allocator_destructorINS_9allocatorINS_11__list_nodeI6one_muPvEEEEEELi1ELb0EEC2ES8_
FNDA:100512,_ZNSt3__117__compressed_pairIPNS_11__list_nodeI15Boundary_cornerPvEENS_22__allocator_destructorINS_9allocatorIS4_EEEEE6secondEv
FNDA:0,_ZNKSt3__117__compressed_pairIP9Ein_entryRNS_9allocatorIS1_EEE5firstEv
FNDA:152,_ZNSt3__110unique_ptrINS_11__list_nodeI14one_joint_distPvEENS_22__allocator_destructorINS_9allocatorIS4_EEEEEC1ENS_4__rvIS9_EE
FNDA:36129,_ZNSt3__117__compressed_pairImNS_9allocatorINS_11__list_nodeI14Legendre_coefsPvEEEEE5firstEv
FNDA:120404259,_ZNSt3__116allocator_traitsINS_9allocatorINS_11__list_nodeIN6quad_F12one_intervalEPvEEEEE9constructIS4_S4_EEvRS7_PT_RKT0_
FNDA:0,_ZNSt3__116allocator_traitsINS_9allocatorI11Ein_entriesEEE9constructIS2_S2_EEvRS3_PT_RKT0_
FNDA:2245,_ZNSt3__122__compressed_pair_elemINS_9allocatorINS_11__list_nodeI7ss_linkPvEEEELi1ELb1EE5__getEv
FNDA:3615,_ZNSt3__110unique_ptrINS_11__list_nodeI6one_muPvEENS_22__allocator_destructorINS_9allocatorIS4_EEEEED2Ev
FNDA:30609,_ZNKSt3__117__compressed_pairIP8dd_entryNS_9allocatorIS1_EEE6secondEv
FNDA:252,_ZNSt3__110unique_ptrINS_11__list_nodeI13min_Eout_infoPvEENS_22__allocator_destructorINS_9allocatorIS4_EEEEEC2ENS_4__rvIS9_EE
FNDA:172,_ZNSt3__110unique_ptrI7__sFILEPFiPS1_EEC1ES2_S4_
FNDA:25908,_ZNSt3__117__compressed_pairIPNS_11__list_nodeI7ss_linkPvEENS_22__allocator_destructorINS_9allocatorIS4_EEEEE5firstEv
FNDA:30203,_ZNSt3__122__allocator_destructorINS_9allocatorINS_11__list_nodeI14Legendre_coefsPvEEEEEC2ERS6_m
FNDA:93,_ZNSt3__116allocator_traitsINS_9allocatorINS_11__list_nodeI18cm_Legendre_vectorPvEEEEE9__destroyIS3_EEvNS_17integral_constantIbLb0EEERS6_PT_
FNDA:3615,_ZNKSt3__117__compressed_pairIPNS_11__list_nodeI6one_muPvEENS_22__allocator_destructorINS_9allocatorIS4_EEEEE5firstEv
FNDA:252,_ZNSt3__110unique_ptrINS_11__list_nodeI13min_Eout_infoPvEENS_22__allocator_destructorINS_9allocatorIS4_EEEEEcvNS_4__rvIS9_EEEv
FNDA:1692,_ZNSt3__122__compressed_pair_elemINS_9allocatorINS_11__list_nodeI21cumulative_prob_entryPvEEEELi1ELb1EEC2ES6_
FNDA:12216910,_ZNKSt3__117__compressed_pairINS_12basic_stringIcNS_11char_traitsIcEENS_9allocatorIcEEE5__repES5_E6secondEv
FNDA:348,_ZNSt3__117__compressed_pairIPNS_11__list_nodeI12Eprob_vectorPvEENS_22__allocator_destructorINS_9allocatorIS4_EEEEEC1ES5_S9_
FNDA:15,_ZNSt3__122__compressed_pair_elemINS_9allocatorINS_11__list_nodeIN4cmDD8one_EoutEPvEEEELi1ELb1EEC2Ev
FNDA:348,_ZNSt3__110unique_ptrINS_11__list_nodeI12Eprob_vectorPvEENS_22__allocator_destructorINS_9allocatorIS4_EEEEE5resetEPS4_
FNDA:158030221,_ZNSt3__114pointer_traitsIPKN4cmDD8one_EoutEE10pointer_toERS3_
FNDA:1050445,_ZNSt3__114pointer_traitsIPNS_16__list_node_baseI13min_Eout_infoPvEEE10pointer_toERS4_
FNDA:378,_ZNKSt3__122__compressed_pair_elemIPNS_11__list_nodeI13min_Eout_infoPvEELi0ELb0EE5__getEv
FNDA:30900,_ZNSt3__122__compressed_pair_elemINS_9allocatorINS_11__list_nodeI14Legendre_coefsPvEEEELi1ELb1EE5__getEv
FNDA:279,_ZNSt3__122__compressed_pair_elemINS_22__allocator_destructorINS_9allocatorINS_11__list_nodeI18cm_Legendre_vectorPvEEEEEELi1ELb0EEC2ES8_
FNDA:152,_ZNSt3__110unique_ptrINS_11__list_nodeI14one_joint_distPvEENS_22__allocator_destructorINS_9allocatorIS4_EEEEE11get_deleterEv
FNDA:186,_ZNSt3__122__allocator_destructorINS_9allocatorINS_11__list_nodeI15Kalbach_one_EinPvEEEEEC1ERS6_m
FNDA:0,_ZNKSt3__117__compressed_pairIP11Ein_entriesNS_9allocatorIS1_EEE6secondEv
FNDA:0,_ZNSt3__19allocatorI9Ein_entryE9constructIS1_EEvPS1_RKT_
FNDA:57593046,_ZNKSt3__117__compressed_pairIPNS_11__list_nodeI15Vcm_quadBox_HitPvEENS_22__allocator_destructorINS_9allocatorIS4_EEEEE5firstEv
FNDA:258,_ZNKSt3__117__compressed_pairImNS_9allocatorINS_11__list_nodeI24standard_Legendre_vectorPvEEEEE5firstEv
FNDA:2179,_ZNSt3__19allocatorINS_11__list_nodeIN4cmDD8one_EoutEPvEEE10deallocateEPS5_m
FNDA:120404259,_ZNSt3__19allocatorINS_11__list_nodeIN6quad_F12one_intervalEPvEEE8allocateEmPKv
FNDA:372,_ZNSt3__110unique_ptrINS_11__list_nodeI15Kalbach_one_EinPvEENS_22__allocator_destructorINS_9allocatorIS4_EEEEEcvNS_4__rvIS9_EEEv
FNDA:0,_ZNSt3__19allocatorI11Ein_entriesE9constructIS1_EEvPS1_RKT_
FNDA:3615,_ZNSt3__117__compressed_pairIPNS_11__list_nodeI6one_muPvEENS_22__allocator_destructorINS_9allocatorIS4_EEEEEC1ES5_S9_
FNDA:208,_ZNSt3__122__compressed_pair_elemINS_9allocatorINS_11__list_nodeI9dd_vectorPvEEEELi1ELb1EEC2Ev
FNDA:86,_ZNSt3__117__compressed_pairImNS_9allocatorINS_11__list_nodeI18cm_Legendre_vectorPvEEEEEC1Em
FNDA:126,_ZNKSt3__19allocatorINS_11__list_nodeI13min_Eout_infoPvEEE8max_sizeEv
FNDA:7157,_ZNSt3__116allocator_traitsINS_9allocatorINS_11__list_nodeI21cumulative_prob_entryPvEEEEE8allocateERS6_m
FNDA:288,_ZNSt3__110unique_ptrINS_11__list_nodeI11coef_vectorPvEENS_22__allocator_destructorINS_9allocatorIS4_EEEEEcvNS_4__rvIS9_EEEv
FNDA:1281,_ZNSt3__122__compressed_pair_elemINS_9allocatorINS_11__list_nodeI6one_muPvEEEELi1ELb1EE5__getEv
FNDA:145085,_ZNSt3__114pointer_traitsIPNS_16__list_node_baseI9dd_vectorPvEEE10pointer_toERS4_
FNDA:93,_ZNSt3__110unique_ptrINS_11__list_nodeI18cm_Legendre_vectorPvEENS_22__allocator_destructorINS_9allocatorIS4_EEEEEC2EPS4_S8_
FNDA:30609,_ZNSt3__116allocator_traitsINS_9allocatorI8dd_entryEEE10deallocateERS3_PS2_m
FNDA:67963694,_ZNSt3__117__compressed_pairIPdNS_9allocatorIdEEEC2ES1_
FNDA:1205,_ZNKSt3__19allocatorINS_11__list_nodeI6one_muPvEEE8max_sizeEv
FNDA:100512,_ZNKSt3__110unique_ptrINS_11__list_nodeI15Boundary_cornerPvEENS_22__allocator_destructorINS_9allocatorIS4_EEEEE3getEv
FNDA:427889,_ZNSt3__114pointer_traitsIPNS_16__list_node_baseI12Eprob_vectorPvEEE10pointer_toERS4_
FNDA:150768,_ZNSt3__110unique_ptrINS_11__list_nodeI15Boundary_cornerPvEENS_22__allocator_destructorINS_9allocatorIS4_EEEEE5resetEPS4_
FNDA:920,_ZNSt3__117__compressed_pairIPNS_11__list_nodeI9dd_vectorPvEENS_22__allocator_destructorINS_9allocatorIS4_EEEEE6secondEv
FNDA:347935152,_ZNKSt3__19allocatorIdE8max_sizeEv
FNDA:582702120,_ZNSt3__117__compressed_pairIP11Ein_Eta_HitNS_9allocatorIS1_EEE5firstEv
FNDA:30900,_ZNSt3__117__compressed_pairImNS_9allocatorINS_11__list_nodeI14Legendre_coefsPvEEEEE6secondEv
FNDA:12,_ZNSt3__114pointer_traitsIPK15Kalbach_one_EinE10pointer_toERS2_
FNDA:30,_ZNKSt3__117__compressed_pairImNS_9allocatorINS_11__list_nodeIN4cmDD8one_EoutEPvEEEEE5firstEv
FNDA:208,_ZNSt3__117__compressed_pairImNS_9allocatorINS_11__list_nodeI9dd_vectorPvEEEEEC2Em
FNDA:2676,_ZNSt3__122__compressed_pair_elemINS_9allocatorINS_11__list_nodeI21cumulative_prob_entryPvEEEELi1ELb1EEC2Ev
FNDA:378,_ZNSt3__122__compressed_pair_elemIPNS_11__list_nodeI13min_Eout_infoPvEELi0ELb0EEC2ES5_
FNDA:0,_ZNSt3__116allocator_traitsINS_9allocatorINS_12basic_stringIcNS_11char_traitsIcEENS1_IcEEEEEEE9__destroyIS6_EEvNS_17integral_constantIbLb1EEERS7_PT_
FNDA:76,_ZNSt3__122__allocator_destructorINS_9allocatorINS_11__list_nodeI14one_joint_distPvEEEEEC1ERS6_m
FNDA:232,_ZNSt3__122__compressed_pair_elemINS_22__allocator_destructorINS_9allocatorINS_11__list_nodeI12Eprob_vectorPvEEEEEELi1ELb0EE5__getEv
FNDA:2159,_ZNSt3__116allocator_traitsINS_9allocatorINS_11__list_nodeI7ss_linkPvEEEEE9constructIS3_S3_EEvRS6_PT_RKT0_
FNDA:6477,_ZNKSt3__110unique_ptrINS_11__list_nodeI7ss_linkPvEENS_22__allocator_destructorINS_9allocatorIS4_EEEEEptEv
FNDA:3336,_ZNSt3__117__compressed_pairIPNS_11__list_nodeI24standard_Legendre_vectorPvEENS_22__allocator_destructorINS_9allocatorIS4_EEEEE5firstEv
FNDA:0,_ZNSt3__116allocator_traitsINS_9allocatorI9Ein_entryEEE7destroyIS2_EEvRS3_PT_
FNDA:6537,_ZNSt3__122__compressed_pair_elemINS_22__allocator_destructorINS_9allocatorINS_11__list_nodeIN4cmDD8one_EoutEPvEEEEEELi1ELb0EEC2ES9_
FNDA:144,_ZNSt3__116allocator_traitsINS_9allocatorINS_11__list_nodeI11coef_vectorPvEEEEE7destroyIS3_EEvRS6_PT_
FNDA:208,_ZNSt3__117__compressed_pairImNS_9allocatorINS_11__list_nodeI9dd_vectorPvEEEEEC1Em
FNDA:240808518,_ZNSt3__117__compressed_pairImNS_9allocatorINS_11__list_nodeIN6quad_F12one_intervalEPvEEEEE6secondEv
FNDA:460,_ZNSt3__122__allocator_destructorINS_9allocatorINS_11__list_nodeI9dd_vectorPvEEEEEC1ERS6_m
FNDA:8124,_ZNSt3__110unique_ptrINS_11__list_nodeI13weight_vectorPvEENS_22__allocator_destructorINS_9allocatorIS4_EEEEEC1EPS4_S8_
FNDA:150768,_ZNSt3__122__compressed_pair_elemINS_22__allocator_destructorINS_9allocatorINS_11__list_nodeI15Boundary_cornerPvEEEEEELi1ELb0EEC2ES8_
FNDA:126,_ZNKSt3__110unique_ptrINS_11__list_nodeI13min_Eout_infoPvEENS_22__allocator_destructorINS_9allocatorIS4_EEEEEptEv
FNDA:30,_ZNSt3__117__compressed_pairIPNS_11__list_nodeIN4cmDD14one_joint_distEPvEENS_22__allocator_destructorINS_9allocatorIS5_EEEEE6secondEv
FNDA:86,_ZNSt3__117__compressed_pairImNS_9allocatorINS_11__list_nodeI7ss_linkPvEEEEEC1Em
FNDA:152,_ZNSt3__110unique_ptrINS_11__list_nodeI14one_joint_distPvEENS_22__allocator_destructorINS_9allocatorIS4_EEEEEC2ENS_4__rvIS9_EE
FNDA:432,_ZNSt3__110unique_ptrINS_11__list_nodeI11coef_vectorPvEENS_22__allocator_destructorINS_9allocatorIS4_EEEEED2Ev
FNDA:1116,_ZNSt3__117__compressed_pairIPNS_11__list_nodeI18cm_Legendre_vectorPvEENS_22__allocator_destructorINS_9allocatorIS4_EEEEE5firstEv
FNDA:4015583,_ZNSt3__114pointer_traitsIP14one_joint_distE10pointer_toERS1_
FNDA:1549,_ZNSt3__117__compressed_pairImNS_9allocatorINS_11__list_nodeI14Legendre_coefsPvEEEEEC1Em
FNDA:16,_ZNSt3__117__compressed_pairImNS_9allocatorINS_11__list_nodeIN4cmDD14one_joint_distEPvEEEEE6secondEv
FNDA:698662,_ZNSt3__19allocatorI8dd_entryE7destroyEPS1_
FNDA:278,_ZNSt3__19allocatorINS_11__list_nodeI24standard_Legendre_vectorPvEEE8allocateEmPKv
FNDA:291351060,_ZNSt3__122__compressed_pair_elemIRNS_9allocatorI11Ein_Eta_HitEELi1ELb0EEC2ES4_
FNDA:120404259,_ZNSt3__116allocator_traitsINS_9allocatorINS_11__list_nodeIN6quad_F12one_intervalEPvEEEEE9__destroyIS4_EEvNS_17integral_constantIbLb0EEERS7_PT_
FNDA:2179,_ZNSt3__116allocator_traitsINS_9allocatorINS_11__list_nodeIN4cmDD8one_EoutEPvEEEEE10deallocateERS7_PS6_m
FNDA:1933,_ZNSt3__117__compressed_pairINS_12basic_stringIcNS_11char_traitsIcEENS_9allocatorIcEEE5__repES5_EC1ENS_12__second_tagES5_
FNDA:160087,_ZNSt3__114pointer_traitsIPNS_16__list_node_baseI7ss_linkPvEEE10pointer_toERS4_
FNDA:67963694,_ZNSt3__19allocatorIdEC2Ev
FNDA:0,_ZNSt3__122__allocator_destructorINS_9allocatorINS_11__list_nodeI7ss_linkPvEEEEEclEPS5_
FNDA:64839258,_ZNSt3__110unique_ptrINS_11__list_nodeI15Vcm_quadBox_HitPvEENS_22__allocator_destructorINS_9allocatorIS4_EEEEE5resetEPS4_
FNDA:50256,_ZNSt3__19allocatorINS_11__list_nodeI15Boundary_cornerPvEEE8allocateEmPKv
FNDA:278,_ZNKSt3__19allocatorINS_11__list_nodeI24standard_Legendre_vectorPvEEE8max_sizeEv
FNDA:100512,_ZNSt3__110unique_ptrINS_11__list_nodeI15Boundary_cornerPvEENS_22__allocator_destructorINS_9allocatorIS4_EEEEEC1ENS_4__rvIS9_EE
FNDA:152,_ZNSt3__110unique_ptrINS_11__list_nodeI14one_joint_distPvEENS_22__allocator_destructorINS_9allocatorIS4_EEEEEcvNS_4__rvIS9_EEEv
FNDA:1392,_ZNSt3__122__compressed_pair_elemIPNS_11__list_nodeI12Eprob_vectorPvEELi0ELb0EE5__getEv
FNDA:21613086,_ZNSt3__116allocator_traitsINS_9allocatorINS_11__list_nodeI15Vcm_quadBox_HitPvEEEEE10deallocateERS6_PS5_m
FNDA:8124,_ZNSt3__116allocator_traitsINS_9allocatorINS_11__list_nodeI13weight_vectorPvEEEEE9__destroyIS3_EEvNS_17integral_constantIbLb0EEERS6_PT_
FNDA:252,_ZNSt3__110unique_ptrINS_11__list_nodeI13min_Eout_infoPvEENS_22__allocator_destructorINS_9allocatorIS4_EEEEE11get_deleterEv
FNDA:182266,_ZNSt3__114pointer_traitsIPNS_16__list_node_baseI24standard_Legendre_vectorPvEEE10pointer_toERS4_
FNDA:4368,_ZNKSt3__117__compressed_pairImNS_9allocatorINS_11__list_nodeI21cumulative_prob_entryPvEEEEE5firstEv
FNDA:240808518,_ZNSt3__117__compressed_pairImNS_9allocatorINS_11__list_nodeIN6quad_F12one_intervalEPvEEEEE5firstEv
FNDA:834,_ZNKSt3__110unique_ptrINS_11__list_nodeI24standard_Legendre_vectorPvEENS_22__allocator_destructorINS_9allocatorIS4_EEEEEptEv
FNDA:0,_ZNSt3__122__allocator_destructorINS_9allocatorINS_11__list_nodeI24standard_Legendre_vectorPvEEEEEclEPS5_
FNDA:4318,_ZNSt3__110unique_ptrINS_11__list_nodeI7ss_linkPvEENS_22__allocator_destructorINS_9allocatorIS4_EEEEEC1ENS_4__rvIS9_EE
FNDA:208,_ZNSt3__117__compressed_pairImNS_9allocatorINS_11__list_nodeI13min_Eout_infoPvEEEEEC1Em
FNDA:8124,_ZNSt3__116allocator_traitsINS_9allocatorINS_11__list_nodeI13weight_vectorPvEEEEE11__constructIS3_S3_EEvNS_17integral_constantIbLb0EEERS6_PT_RKT0_
FNDA:2179,_ZNKSt3__19allocatorINS_11__list_nodeIN4cmDD8one_EoutEPvEEE8max_sizeEv
FNDA:556,_ZNSt3__110unique_ptrINS_11__list_nodeI24standard_Legendre_vectorPvEENS_22__allocator_destructorINS_9allocatorIS4_EEEEEC2ENS_4__rvIS9_EE
FNDA:240808518,_ZNSt3__110unique_ptrINS_11__list_nodeIN6quad_F12one_intervalEPvEENS_22__allocator_destructorINS_9allocatorIS5_EEEEEcvNS_4__rvISA_EEEv
FNDA:39366,_ZNSt3__117__compressed_pairIPNS_11__list_nodeIdPvEENS_22__allocator_destructorINS_9allocatorIS3_EEEEE6secondEv
FNDA:291351060,_ZNSt3__116allocator_traitsINS_9allocatorI11Ein_Eta_HitEEE8max_sizeERKS3_
FNDA:76,_ZNSt3__117__compressed_pairImNS_9allocatorINS_11__list_nodeI6one_muPvEEEEEC2EmS6_
FNDA:515,_ZNSt3__117__compressed_pairImNS_9allocatorINS_11__list_nodeI9dd_vectorPvEEEEE5firstEv
FNDA:15,_ZNSt3__19allocatorINS_11__list_nodeIN4cmDD14one_joint_distEPvEEE8allocateEmPKv
FNDA:432,_ZNSt3__117__compressed_pairIPNS_11__list_nodeI11coef_vectorPvEENS_22__allocator_destructorINS_9allocatorIS4_EEEEEC1ES5_S9_
FNDA:86,_ZNSt3__122__compressed_pair_elemINS_9allocatorINS_11__list_nodeI14one_joint_distPvEEEELi1ELb1EEC2Ev
FNDA:24372,_ZNSt3__110unique_ptrINS_11__list_nodeI13weight_vectorPvEENS_22__allocator_destructorINS_9allocatorIS4_EEEEED2Ev
FNDA:63466,_ZNSt3__117__compressed_pairIP8dd_entryRNS_9allocatorIS1_EEE5firstEv
FNDA:0,_ZNSt3__116allocator_traitsINS_9allocatorI11Ein_entriesEEE11__constructIS2_S2_EEvNS_17integral_constantIbLb1EEERS3_PT_RKT0_
FNDA:1380,_ZNKSt3__117__compressed_pairIPNS_11__list_nodeI9dd_vectorPvEENS_22__allocator_destructorINS_9allocatorIS4_EEEEE5firstEv
FNDA:460,_ZNSt3__110unique_ptrINS_11__list_nodeI9dd_vectorPvEENS_22__allocator_destructorINS_9allocatorIS4_EEEEEC2EPS4_S8_
FNDA:4448508504,_ZNSt3__117__compressed_pairIPNS_11__list_nodeI11Ein_Eta_HitPvEENS_22__allocator_destructorINS_9allocatorIS4_EEEEE5firstEv
FNDA:14314,_ZNSt3__110unique_ptrINS_11__list_nodeI21cumulative_prob_entryPvEENS_22__allocator_destructorINS_9allocatorIS4_EEEEEC1ENS_4__rvIS9_EE
FNDA:3,_ZNSt3__116allocator_traitsINS_9allocatorIcEEE8allocateERS2_m
FNDA:7428,_ZNSt3__117__compressed_pairImNS_9allocatorINS_11__list_nodeI21cumulative_prob_entryPvEEEEE5firstEv
FNDA:45,_ZNKSt3__117__compressed_pairIPNS_11__list_nodeIN4cmDD14one_joint_distEPvEENS_22__allocator_destructorINS_9allocatorIS5_EEEEE5firstEv
FNDA:90609,_ZNSt3__110unique_ptrINS_11__list_nodeI14Legendre_coefsPvEENS_22__allocator_destructorINS_9allocatorIS4_EEEEE7releaseEv
FNDA:4318,_ZNSt3__110unique_ptrINS_11__list_nodeI7ss_linkPvEENS_22__allocator_destructorINS_9allocatorIS4_EEEEEcvNS_4__rvIS9_EEEv
FNDA:8210,_ZNSt3__117__compressed_pairImNS_9allocatorINS_11__list_nodeI13weight_vectorPvEEEEE6secondEv
FNDA:291561018,_ZNSt3__116allocator_traitsINS_9allocatorI11Ein_Eta_HitEEE9__destroyIS2_EEvNS_17integral_constantIbLb1EEERS3_PT_
FNDA:21613086,_ZNSt3__116allocator_traitsINS_9allocatorINS_11__list_nodeI15Vcm_quadBox_HitPvEEEEE9constructIS3_S3_EEvRS6_PT_RKT0_
FNDA:6477,_ZNSt3__110unique_ptrINS_11__list_nodeI7ss_linkPvEENS_22__allocator_destructorINS_9allocatorIS4_EEEEE7releaseEv
FNDA:0,_ZNKSt3__122__compressed_pair_elemINS_9allocatorI9Ein_entryEELi1ELb1EE5__getEv
FNDA:0,_ZNKSt3__122__compressed_pair_elemINS_9allocatorI11Ein_entriesEELi1ELb1EE5__getEv
FNDA:19683,_ZNKSt3__110unique_ptrINS_11__list_nodeIdPvEENS_22__allocator_destructorINS_9allocatorIS3_EEEEEptEv
FNDA:186,_ZNSt3__122__compressed_pair_elemINS_22__allocator_destructorINS_9allocatorINS_11__list_nodeI18cm_Legendre_vectorPvEEEEEELi1ELb0EE5__getEv
FNDA:15,_ZNSt3__116allocator_traitsINS_9allocatorINS_11__list_nodeIN4cmDD14one_joint_distEPvEEEEE9__destroyIS4_EEvNS_17integral_constantIbLb0EEERS7_PT_
FNDA:291351060,_ZNSt3__116allocator_traitsINS_9allocatorI11Ein_Eta_HitEEE10__max_sizeENS_17integral_constantIbLb1EEERKS3_
FNDA:1380,_ZNKSt3__122__compressed_pair_elemIPNS_11__list_nodeI9dd_vectorPvEELi0ELb0EE5__getEv
FNDA:372,_ZNSt3__117__compressed_pairIPNS_11__list_nodeI15Kalbach_one_EinPvEENS_22__allocator_destructorINS_9allocatorIS4_EEEEE6secondEv
FNDA:93,_ZNSt3__116allocator_traitsINS_9allocatorINS_11__list_nodeI18cm_Legendre_vectorPvEEEEE10deallocateERS6_PS5_m
FNDA:291561018,_ZNSt3__116allocator_traitsINS_9allocatorI11Ein_Eta_HitEEE7destroyIS2_EEvRS3_PT_
FNDA:86,_ZNSt3__122__compressed_pair_elemINS_9allocatorINS_11__list_nodeI13weight_vectorPvEEEELi1ELb1EEC2Ev
FNDA:558,_ZNSt3__117__compressed_pairIPNS_11__list_nodeI15Kalbach_one_EinPvEENS_22__allocator_destructorINS_9allocatorIS4_EEEEEC1ES5_S9_
FNDA:294,_ZNSt3__117__compressed_pairImNS_9allocatorINS_11__list_nodeI24standard_Legendre_vectorPvEEEEE6secondEv
FNDA:741418084,_ZNSt3__117__compressed_pairIPNS_11__list_nodeI11Ein_Eta_HitPvEENS_22__allocator_destructorINS_9allocatorIS4_EEEEE6secondEv
FNDA:0,_ZNSt3__117__compressed_pairIP9Ein_entryNS_9allocatorIS1_EEE6secondEv
FNDA:920,_ZNSt3__122__compressed_pair_elemINS_9allocatorINS_11__list_nodeI15Vcm_quadBox_HitPvEEEELi1ELb1EEC2Ev
FNDA:150768,_ZNSt3__122__compressed_pair_elemIPNS_11__list_nodeI15Boundary_cornerPvEELi0ELb0EEC2ES5_
FNDA:86,_ZNSt3__122__compressed_pair_elemINS_9allocatorINS_11__list_nodeI11coef_vectorPvEEEELi1ELb1EEC2Ev
FNDA:0,_ZNSt3__19allocatorI9Ein_entryEC2Ev
FNDA:116,_ZNSt3__122__allocator_destructorINS_9allocatorINS_11__list_nodeI12Eprob_vectorPvEEEEEC2ERS6_m
FNDA:273267,_ZNSt3__114pointer_traitsIP15Boundary_cornerE10pointer_toERS1_
FNDA:683249,_ZNSt3__117__compressed_pairINS_12basic_stringIcNS_11char_traitsIcEENS_9allocatorIcEEE5__repES5_EC2Ev
FNDA:6537,_ZNSt3__117__compressed_pairIPNS_11__list_nodeIN4cmDD8one_EoutEPvEENS_22__allocator_destructorINS_9allocatorIS5_EEEEEC1ES6_SA_
FNDA:0,_ZNSt3__116allocator_traitsINS_9allocatorINS_12basic_stringIcNS_11char_traitsIcEENS1_IcEEEEEEE7destroyIS6_EEvRS7_PT_
FNDA:24372,_ZNKSt3__122__compressed_pair_elemIPNS_11__list_nodeI13weight_vectorPvEELi0ELb0EE5__getEv
FNDA:291561018,_ZNSt3__19allocatorI11Ein_Eta_HitE9constructIS1_EEvPS1_RKT_
FNDA:362436,_ZNSt3__117__compressed_pairIPNS_11__list_nodeI14Legendre_coefsPvEENS_22__allocator_destructorINS_9allocatorIS4_EEEEE5firstEv
FNDA:15,_ZNSt3__116allocator_traitsINS_9allocatorINS_11__list_nodeIN4cmDD14one_joint_distEPvEEEEE8allocateERS7_m
FNDA:59049,_ZNSt3__110unique_ptrINS_11__list_nodeIdPvEENS_22__allocator_destructorINS_9allocatorIS3_EEEEED2Ev
FNDA:1380,_ZNKSt3__110unique_ptrINS_11__list_nodeI9dd_vectorPvEENS_22__allocator_destructorINS_9allocatorIS4_EEEEEptEv
FNDA:920,_ZNSt3__117__compressed_pairImNS_9allocatorINS_11__list_nodeI15Vcm_quadBox_HitPvEEEEEC1Em
FNDA:303123600,_ZNSt3__117__compressed_pairIP11Ein_Eta_HitNS_9allocatorIS1_EEEC1ES2_
FNDA:11105,_ZNSt3__117__compressed_pairIP8dd_entryNS_9allocatorIS1_EEEC1ES2_
FNDA:7428,_ZNSt3__122__compressed_pair_elemINS_9allocatorINS_11__list_nodeI21cumulative_prob_entryPvEEEELi1ELb1EE5__getEv
FNDA:30203,_ZNSt3__116allocator_traitsINS_9allocatorINS_11__list_nodeI14Legendre_coefsPvEEEEE8allocateERS6_m
FNDA:0,_ZNSt3__117__compressed_pairIP11Ein_entriesNS_9allocatorIS1_EEEC2ES2_
FNF:1145
FNH:1041
DA:988,14193693531
DA:990,14193693531
DA:1106,6306189988
DA:1108,6306189988
DA:1546,978198095
DA:1547,978198095
DA:1554,978198092
DA:1555,978198092
DA:1572,988553913
DA:1574,1977107826
DA:1575,988553913
DA:1576,988553913
DA:1595,1133193348
DA:1596,1133193348
DA:1599,476916927
DA:1600,476916927
DA:1604,2154
DA:1605,2154
DA:1606,2154
DA:1607,2154
DA:1613,2248
DA:1615,2248
DA:1616,0
DA:1617,2248
DA:1676,291381669
DA:1678,292002732
DA:1680,621063
DA:1681,621063
DA:1683,291381669
DA:1695,173967576
DA:1697,173967576
DA:1698,173967576
DA:1699,173967576
DA:1700,106003959
DA:1701,173967576
DA:1728,475705066
DA:1730,475705066
DA:1733,512848847
DA:1736,512848847
DA:1737,512848847
DA:1742,620344501
DA:1743,620344501
DA:1746,512848847
DA:1748,512829164
DA:1749,512848847
DA:1752,476916927
DA:1753,476916927
DA:1764,2154
DA:1765,2154
DA:1798,446675864
DA:1809,978198095
DA:1811,978198095
DA:1812,0
DA:1814,978198095
DA:1816,978198092
DA:1817,978198092
DA:1818,1455115022
DA:1819,1455115022
DA:1847,475705066
DA:1849,475705066
DA:1850,475705066
DA:1881,620344501
DA:2158,685182
DA:2160,4453786685
DA:2163,10798104859
DA:2165,5671639159
DA:2196,446675864
DA:2198,4087
DA:2199,4087
DA:2202,2563179931
DA:2204,477568309
DA:2264,1366498
DA:2267,891985230
DA:2270,3866
DA:2271,3866
DA:2274,4007796224
DA:2275,4007796224
DA:2279,9055555671
DA:2280,9055555671
DA:2284,5671639159
DA:2285,5671639159
DA:2289,4305729119
DA:2290,4305729119
DA:2294,477568309
DA:2295,477568309
DA:2565,1025697694
DA:2566,1025697694
DA:2570,2051395388
DA:2571,2051395388
DA:2572,3077093082
DA:2589,1025698038
DA:2590,1025698038
DA:2606,3077093426
DA:2620,860759966
DA:2621,860759966
DA:2624,635447974
DA:2625,635447974
DA:2628,1025697694
DA:2629,1025697694
DA:2641,1538546713
DA:2642,1538546713
DA:2643,1538546713
DA:2644,1538546713
DA:2648,1538546713
DA:2649,1538546713
DA:2650,1538546713
DA:2651,1538546713
DA:2652,0
DA:2653,1538546713
DA:3218,1025697694
DA:3220,1025697694
DA:3222,0
DA:3223,0
LF:113
LH:108
end_of_record
TN:
SF:/Applications/Xcode.app/Contents/Developer/Toolchains/XcodeDefault.xctoolchain/usr/include/c++/v1/new
FN:223,_ZNSt3__1L17__libcpp_allocateEmm
FN:245,_ZNSt3__117_DeallocateCaller33__do_deallocate_handle_size_alignEPvmm
FN:275,_ZNSt3__117_DeallocateCaller27__do_deallocate_handle_sizeEPvm
FN:316,_ZNSt3__117_DeallocateCaller9__do_callEPv
FN:325,_ZNSt3__1L19__libcpp_deallocateEPvmm
FNDA:978198092,_ZNSt3__117_DeallocateCaller27__do_deallocate_handle_sizeEPvm
FNDA:978198095,_ZNSt3__1L17__libcpp_allocateEmm
FNDA:978198092,_ZNSt3__117_DeallocateCaller33__do_deallocate_handle_size_alignEPvmm
FNDA:978198092,_ZNSt3__117_DeallocateCaller9__do_callEPv
FNDA:978198092,_ZNSt3__1L19__libcpp_deallocateEPvmm
FNF:5
FNH:5
DA:223,978198095
DA:239,978198095
DA:245,978198092
DA:248,978198092
DA:275,978198092
DA:278,978198092
DA:316,978198092
DA:320,978198092
DA:325,978198092
DA:326,978198092
DA:327,978198092
LF:11
LH:11
end_of_record
TN:
SF:/Applications/Xcode.app/Contents/Developer/Toolchains/XcodeDefault.xctoolchain/usr/include/c++/v1/ostream
FN:165,_ZNSt3__113basic_ostreamIcNS_11char_traitsIcEEEC2EPNS_15basic_streambufIcS2_EE
FN:195,_ZNSt3__113basic_ostreamIcNS_11char_traitsIcEEElsEPFRS3_S4_E
FN:237,_ZNSt3__113basic_ostreamIcNS_11char_traitsIcEEEC2Ev
FN:255,_ZNKSt3__113basic_ostreamIcNS_11char_traitsIcEEE6sentrycvbEv
FN:715,_ZNSt3__124__put_character_sequenceIcNS_11char_traitsIcEEEERNS_13basic_ostreamIT_T0_EES7_PKS4_m
FN:863,_ZNSt3__1lsINS_11char_traitsIcEEEERNS_13basic_ostreamIcT_EES6_PKc
FN:1000,_ZNSt3__1L4endlIcNS_11char_traitsIcEEEERNS_13basic_ostreamIT_T0_EES7_
FN:1045,_ZNSt3__1lsIcNS_11char_traitsIcEENS_9allocatorIcEEEERNS_13basic_ostreamIT_T0_EES9_RKNS_12basic_stringIS6_S7_T1_EE
FNDA:1655988,_ZNSt3__1L4endlIcNS_11char_traitsIcEEEERNS_13basic_ostreamIT_T0_EES7_
FNDA:6248813,_ZNKSt3__113basic_ostreamIcNS_11char_traitsIcEEE6sentrycvbEv
FNDA:1655988,_ZNSt3__113basic_ostreamIcNS_11char_traitsIcEEElsEPFRS3_S4_E
FNDA:6244341,_ZNSt3__1lsINS_11char_traitsIcEEEERNS_13basic_ostreamIcT_EES6_PKc
FNDA:1985,_ZNSt3__113basic_ostreamIcNS_11char_traitsIcEEEC2EPNS_15basic_streambufIcS2_EE
FNDA:6248813,_ZNSt3__124__put_character_sequenceIcNS_11char_traitsIcEEEERNS_13basic_ostreamIT_T0_EES7_PKS4_m
FNDA:86,_ZNSt3__113basic_ostreamIcNS_11char_traitsIcEEEC2Ev
FNDA:4472,_ZNSt3__1lsIcNS_11char_traitsIcEENS_9allocatorIcEEEERNS_13basic_ostreamIT_T0_EES9_RKNS_12basic_stringIS6_S7_T1_EE
FNF:8
FNH:8
DA:165,1985
DA:166,1985
DA:195,1655988
DA:196,1655988
DA:237,86
DA:255,6248813
DA:715,6248813
DA:722,6248813
DA:723,6248813
DA:726,12497626
DA:727,6248813
DA:728,6248813
DA:729,0
DA:730,6248813
DA:731,6248813
DA:732,6248813
DA:733,12497626
DA:734,0
DA:735,6248813
DA:737,6248813
DA:740,0
DA:741,0
DA:743,6248813
DA:744,0
DA:863,6244341
DA:865,6244341
DA:1000,1655988
DA:1002,1655988
DA:1003,1655988
DA:1004,1655988
DA:1045,4472
DA:1048,4472
LF:32
LH:27
end_of_record
TN:
SF:/Applications/Xcode.app/Contents/Developer/Toolchains/XcodeDefault.xctoolchain/usr/include/c++/v1/sstream
FN:242,_ZNSt3__115basic_stringbufIcNS_11char_traitsIcEENS_9allocatorIcEEEC2Ej
FN:242,_ZNSt3__115basic_stringbufIcNS_11char_traitsIcEENS_9allocatorIcEEEC1Ej
FN:439,_ZNKSt3__115basic_stringbufIcNS_11char_traitsIcEENS_9allocatorIcEEE3strEv
FN:487,_ZNSt3__115basic_stringbufIcNS_11char_traitsIcEENS_9allocatorIcEEE9underflowEv
FN:503,_ZNSt3__115basic_stringbufIcNS_11char_traitsIcEENS_9allocatorIcEEE9pbackfailEi
FN:527,_ZNSt3__115basic_stringbufIcNS_11char_traitsIcEENS_9allocatorIcEEE8overflowEi
FN:569,_ZNSt3__115basic_stringbufIcNS_11char_traitsIcEENS_9allocatorIcEEE7seekoffExNS_8ios_base7seekdirEj
FN:621,_ZNSt3__115basic_stringbufIcNS_11char_traitsIcEENS_9allocatorIcEEE7seekposENS_4fposI11__mbstate_tEEj
FN:790,_ZNSt3__119basic_ostringstreamIcNS_11char_traitsIcEENS_9allocatorIcEEEC1Ej
FN:851,_ZNKSt3__119basic_ostringstreamIcNS_11char_traitsIcEENS_9allocatorIcEEE3strEv
FNDA:1899,_ZNSt3__115basic_stringbufIcNS_11char_traitsIcEENS_9allocatorIcEEEC2Ej
FNDA:0,_ZNSt3__115basic_stringbufIcNS_11char_traitsIcEENS_9allocatorIcEEE7seekoffExNS_8ios_base7seekdirEj
FNDA:1899,_ZNSt3__119basic_ostringstreamIcNS_11char_traitsIcEENS_9allocatorIcEEEC1Ej
FNDA:0,_ZNSt3__115basic_stringbufIcNS_11char_traitsIcEENS_9allocatorIcEEE9pbackfailEi
FNDA:1899,_ZNKSt3__119basic_ostringstreamIcNS_11char_traitsIcEENS_9allocatorIcEEE3strEv
FNDA:0,_ZNSt3__115basic_stringbufIcNS_11char_traitsIcEENS_9allocatorIcEEE7seekposENS_4fposI11__mbstate_tEEj
FNDA:1902,_ZNSt3__115basic_stringbufIcNS_11char_traitsIcEENS_9allocatorIcEEE8overflowEi
FNDA:1899,_ZNKSt3__115basic_stringbufIcNS_11char_traitsIcEENS_9allocatorIcEEE3strEv
FNDA:1899,_ZNSt3__115basic_stringbufIcNS_11char_traitsIcEENS_9allocatorIcEEEC1Ej
FNDA:0,_ZNSt3__115basic_stringbufIcNS_11char_traitsIcEENS_9allocatorIcEEE9underflowEv
FNF:10
FNH:6
DA:213,3798
DA:242,3798
DA:243,1899
DA:244,1899
DA:245,5697
DA:246,3798
DA:439,1899
DA:441,1899
DA:443,1899
DA:444,1035
DA:445,1899
DA:447,0
DA:448,0
DA:449,0
DA:450,1899
DA:487,0
DA:489,0
DA:490,0
DA:491,0
DA:493,0
DA:494,0
DA:495,0
DA:496,0
DA:497,0
DA:498,0
DA:499,0
DA:503,0
DA:505,0
DA:506,0
DA:507,0
DA:509,0
DA:511,0
DA:512,0
DA:514,0
DA:515,0
DA:517,0
DA:518,0
DA:519,0
DA:521,0
DA:522,0
DA:523,0
DA:527,1902
DA:529,1902
DA:531,1902
DA:532,1902
DA:534,1902
DA:535,0
DA:540,1902
DA:541,1902
DA:542,1902
DA:543,1902
DA:544,1902
DA:545,1902
DA:546,1902
DA:547,1902
DA:549,1902
DA:552,0
DA:553,0
DA:555,1902
DA:556,1902
DA:557,1902
DA:559,0
DA:560,0
DA:561,0
DA:562,1902
DA:564,0
DA:565,1902
DA:569,0
DA:573,0
DA:574,0
DA:575,0
DA:576,0
DA:577,0
DA:578,0
DA:579,0
DA:580,0
DA:582,0
DA:585,0
DA:586,0
DA:588,0
DA:589,0
DA:591,0
DA:592,0
DA:594,0
DA:595,0
DA:597,0
DA:599,0
DA:600,0
DA:601,0
DA:602,0
DA:604,0
DA:605,0
DA:606,0
DA:607,0
DA:608,0
DA:609,0
DA:610,0
DA:611,0
DA:613,0
DA:614,0
DA:615,0
DA:616,0
DA:617,0
DA:621,0
DA:624,0
DA:766,1899
DA:790,1899
DA:791,1899
DA:792,1899
DA:793,3798
DA:794,1899
DA:851,1899
DA:853,1899
LF:113
LH:39
end_of_record
TN:
SF:/Applications/Xcode.app/Contents/Developer/Toolchains/XcodeDefault.xctoolchain/usr/include/c++/v1/stdexcept
FN:136,_ZNSt12length_errorC1EPKc
FN:136,_ZNSt12length_errorC2EPKc
FN:222,_ZNSt3__1L20__throw_length_errorEPKc
FNDA:0,_ZNSt12length_errorC2EPKc
FNDA:0,_ZNSt12length_errorC1EPKc
FNDA:0,_ZNSt3__1L20__throw_length_errorEPKc
FNF:3
FNH:0
DA:136,0
DA:222,0
DA:225,0
DA:230,0
LF:4
LH:0
end_of_record
TN:
SF:/Applications/Xcode.app/Contents/Developer/Toolchains/XcodeDefault.xctoolchain/usr/include/c++/v1/streambuf
FN:150,_ZNKSt3__115basic_streambufIcNS_11char_traitsIcEEE6getlocEv
FN:187,_ZNSt3__115basic_streambufIcNS_11char_traitsIcEEE6sbumpcEv
FN:221,_ZNSt3__115basic_streambufIcNS_11char_traitsIcEEE5sputcEc
FN:229,_ZNSt3__115basic_streambufIcNS_11char_traitsIcEEE5sputnEPKcl
FN:239,_ZNKSt3__115basic_streambufIcNS_11char_traitsIcEEE5ebackEv
FN:240,_ZNKSt3__115basic_streambufIcNS_11char_traitsIcEEE4gptrEv
FN:241,_ZNKSt3__115basic_streambufIcNS_11char_traitsIcEEE5egptrEv
FN:244,_ZNSt3__115basic_streambufIcNS_11char_traitsIcEEE5gbumpEi
FN:247,_ZNSt3__115basic_streambufIcNS_11char_traitsIcEEE4setgEPcS4_S4_
FN:254,_ZNKSt3__115basic_streambufIcNS_11char_traitsIcEEE5pbaseEv
FN:255,_ZNKSt3__115basic_streambufIcNS_11char_traitsIcEEE4pptrEv
FN:256,_ZNKSt3__115basic_streambufIcNS_11char_traitsIcEEE5epptrEv
FN:259,_ZNSt3__115basic_streambufIcNS_11char_traitsIcEEE5pbumpEi
FN:262,_ZNSt3__115basic_streambufIcNS_11char_traitsIcEEE7__pbumpEl
FN:265,_ZNSt3__115basic_streambufIcNS_11char_traitsIcEEE4setpEPcS4_
FNDA:11917623,_ZNSt3__115basic_streambufIcNS_11char_traitsIcEEE6sbumpcEv
FNDA:6248813,_ZNSt3__115basic_streambufIcNS_11char_traitsIcEEE5sputnEPKcl
FNDA:4968637,_ZNKSt3__115basic_streambufIcNS_11char_traitsIcEEE4pptrEv
FNDA:0,_ZNSt3__115basic_streambufIcNS_11char_traitsIcEEE5gbumpEi
FNDA:1902,_ZNSt3__115basic_streambufIcNS_11char_traitsIcEEE5sputcEc
FNDA:86,_ZNSt3__115basic_streambufIcNS_11char_traitsIcEEE5pbumpEi
FNDA:12168,_ZNKSt3__115basic_streambufIcNS_11char_traitsIcEEE5egptrEv
FNDA:3644,_ZNSt3__115basic_streambufIcNS_11char_traitsIcEEE4setgEPcS4_S4_
FNDA:11028,_ZNKSt3__115basic_streambufIcNS_11char_traitsIcEEE4gptrEv
FNDA:516,_ZNKSt3__115basic_streambufIcNS_11char_traitsIcEEE6getlocEv
FNDA:1655177,_ZNKSt3__115basic_streambufIcNS_11char_traitsIcEEE5epptrEv
FNDA:1902,_ZNSt3__115basic_streambufIcNS_11char_traitsIcEEE7__pbumpEl
FNDA:8273980,_ZNKSt3__115basic_streambufIcNS_11char_traitsIcEEE5pbaseEv
FNDA:1655779,_ZNSt3__115basic_streambufIcNS_11char_traitsIcEEE4setpEPcS4_
FNDA:25894,_ZNKSt3__115basic_streambufIcNS_11char_traitsIcEEE5ebackEv
FNF:15
FNH:14
DA:150,516
DA:187,11917623
DA:188,11917623
DA:189,3042
DA:190,11914581
DA:191,11917623
DA:221,1902
DA:222,1902
DA:223,0
DA:224,1902
DA:225,1902
DA:226,1902
DA:229,6248813
DA:230,6248813
DA:239,25894
DA:240,11028
DA:241,12168
DA:244,0
DA:247,3644
DA:248,3644
DA:249,3644
DA:250,3644
DA:251,3644
DA:254,8273980
DA:255,4968637
DA:256,1655177
DA:259,86
DA:262,1902
DA:265,1655779
DA:266,1655779
DA:267,1655779
DA:268,1655779
LF:32
LH:30
end_of_record
TN:
SF:/Applications/Xcode.app/Contents/Developer/Toolchains/XcodeDefault.xctoolchain/usr/include/c++/v1/string
FN:544,_ZNSt3__14fposI11__mbstate_tEC1Ex
FN:544,_ZNSt3__14fposI11__mbstate_tEC2Ex
FN:546,_ZNKSt3__14fposI11__mbstate_tEcvxEv
FN:548,_ZNKSt3__14fposI11__mbstate_tE5stateEv
FN:549,_ZNSt3__14fposI11__mbstate_tE5stateES1_
FN:818,_ZNSt3__112basic_stringIcNS_11char_traitsIcEENS_9allocatorIcEEEC2INS_9nullptr_tEEEPKc
FN:818,_ZNSt3__112basic_stringIcNS_11char_traitsIcEENS_9allocatorIcEEEC1INS_9nullptr_tEEEPKc
FN:891,_ZNSt3__112basic_stringIcNS_11char_traitsIcEENS_9allocatorIcEEEaSEPKc
FN:947,_ZNKSt3__112basic_stringIcNS_11char_traitsIcEENS_9allocatorIcEEE4sizeEv
FN:949,_ZNKSt3__112basic_stringIcNS_11char_traitsIcEENS_9allocatorIcEEE6lengthEv
FN:951,_ZNKSt3__112basic_stringIcNS_11char_traitsIcEENS_9allocatorIcEEE8capacityEv
FN:956,_ZNSt3__112basic_stringIcNS_11char_traitsIcEENS_9allocatorIcEEE6resizeEm
FN:1241,_ZNKSt3__112basic_stringIcNS_11char_traitsIcEENS_9allocatorIcEEE5c_strEv
FN:1243,_ZNKSt3__112basic_stringIcNS_11char_traitsIcEENS_9allocatorIcEEE4dataEv
FN:1250,_ZNKSt3__112basic_stringIcNS_11char_traitsIcEENS_9allocatorIcEEE13get_allocatorEv
FN:1420,_ZNKSt3__112basic_stringIcNS_11char_traitsIcEENS_9allocatorIcEEE9__is_longEv
FN:1434,_ZNSt3__112basic_stringIcNS_11char_traitsIcEENS_9allocatorIcEEE7__allocEv
FN:1437,_ZNKSt3__112basic_stringIcNS_11char_traitsIcEENS_9allocatorIcEEE7__allocEv
FN:1461,_ZNSt3__112basic_stringIcNS_11char_traitsIcEENS_9allocatorIcEEE16__set_short_sizeEm
FN:1469,_ZNKSt3__112basic_stringIcNS_11char_traitsIcEENS_9allocatorIcEEE16__get_short_sizeEv
FN:1479,_ZNSt3__112basic_stringIcNS_11char_traitsIcEENS_9allocatorIcEEE15__set_long_sizeEm
FN:1482,_ZNKSt3__112basic_stringIcNS_11char_traitsIcEENS_9allocatorIcEEE15__get_long_sizeEv
FN:1489,_ZNSt3__112basic_stringIcNS_11char_traitsIcEENS_9allocatorIcEEE14__set_long_capEm
FN:1492,_ZNKSt3__112basic_stringIcNS_11char_traitsIcEENS_9allocatorIcEEE14__get_long_capEv
FN:1496,_ZNSt3__112basic_stringIcNS_11char_traitsIcEENS_9allocatorIcEEE18__set_long_pointerEPc
FN:1499,_ZNSt3__112basic_stringIcNS_11char_traitsIcEENS_9allocatorIcEEE18__get_long_pointerEv
FN:1502,_ZNKSt3__112basic_stringIcNS_11char_traitsIcEENS_9allocatorIcEEE18__get_long_pointerEv
FN:1505,_ZNSt3__112basic_stringIcNS_11char_traitsIcEENS_9allocatorIcEEE19__get_short_pointerEv
FN:1508,_ZNKSt3__112basic_stringIcNS_11char_traitsIcEENS_9allocatorIcEEE19__get_short_pointerEv
FN:1511,_ZNSt3__112basic_stringIcNS_11char_traitsIcEENS_9allocatorIcEEE13__get_pointerEv
FN:1514,_ZNKSt3__112basic_stringIcNS_11char_traitsIcEENS_9allocatorIcEEE13__get_pointerEv
FN:1518,_ZNSt3__112basic_stringIcNS_11char_traitsIcEENS_9allocatorIcEEE6__zeroEv
FN:1527,_ZNSt3__112basic_stringIcNS_11char_traitsIcEENS_9allocatorIcEEE10__align_itILm16EEEmm
FN:1531,_ZNSt3__112basic_stringIcNS_11char_traitsIcEENS_9allocatorIcEEE11__recommendEm
FN:1684,_ZNSt3__112basic_stringIcNS_11char_traitsIcEENS_9allocatorIcEEE26__invalidate_all_iteratorsEv
FN:1723,_ZNSt3__112basic_stringIcNS_11char_traitsIcEENS_9allocatorIcEEEC1Ev
FN:1723,_ZNSt3__112basic_stringIcNS_11char_traitsIcEENS_9allocatorIcEEEC2Ev
FN:1734,_ZNSt3__112basic_stringIcNS_11char_traitsIcEENS_9allocatorIcEEEC2ERKS4_
FN:1734,_ZNSt3__112basic_stringIcNS_11char_traitsIcEENS_9allocatorIcEEEC1ERKS4_
FN:1926,_ZNSt3__112basic_stringIcNS_11char_traitsIcEENS_9allocatorIcEEEC2Emc
FN:1926,_ZNSt3__112basic_stringIcNS_11char_traitsIcEENS_9allocatorIcEEEC1Emc
FN:2046,_ZNSt3__112basic_stringIcNS_11char_traitsIcEENS_9allocatorIcEEE6__initIPcEENS_9enable_ifIXsr21__is_forward_iteratorIT_EE5valueEvE4typeES9_S9_
FN:2084,_ZNSt3__112basic_stringIcNS_11char_traitsIcEENS_9allocatorIcEEEC2IPcEET_S8_RKS4_
FN:2084,_ZNSt3__112basic_stringIcNS_11char_traitsIcEENS_9allocatorIcEEEC1IPcEET_S8_RKS4_
FN:3061,_ZNSt3__112basic_stringIcNS_11char_traitsIcEENS_9allocatorIcEEE5clearEv
FN:3119,_ZNKSt3__112basic_stringIcNS_11char_traitsIcEENS_9allocatorIcEEE8max_sizeEv
FN:3204,_ZNSt3__112basic_stringIcNS_11char_traitsIcEENS_9allocatorIcEEEixEm
FN:3279,_ZNKSt3__112basic_stringIcNS_11char_traitsIcEENS_9allocatorIcEEE6substrEmm
FN:3451,_ZNKSt3__112basic_stringIcNS_11char_traitsIcEENS_9allocatorIcEEE13find_first_ofERKS5_m
FN:3476,_ZNKSt3__112basic_stringIcNS_11char_traitsIcEENS_9allocatorIcEEE13find_first_ofEPKcm
FN:3487,_ZNKSt3__112basic_stringIcNS_11char_traitsIcEENS_9allocatorIcEEE13find_first_ofEcm
FN:3534,_ZNKSt3__112basic_stringIcNS_11char_traitsIcEENS_9allocatorIcEEE12find_last_ofEPKcm
FN:3847,_ZNSt3__1eqINS_9allocatorIcEEEEbRKNS_12basic_stringIcNS_11char_traitsIcEET_EES9_
FN:3879,_ZNSt3__1eqIcNS_11char_traitsIcEENS_9allocatorIcEEEEbRKNS_12basic_stringIT_T0_T1_EEPKS6_
FN:3910,_ZNSt3__1neIcNS_11char_traitsIcEENS_9allocatorIcEEEEbRKNS_12basic_stringIT_T0_T1_EEPKS6_
FN:4036,_ZNSt3__1plIcNS_11char_traitsIcEENS_9allocatorIcEEEENS_12basic_stringIT_T0_T1_EERKS9_SB_
FN:4073,_ZNSt3__1plIcNS_11char_traitsIcEENS_9allocatorIcEEEENS_12basic_stringIT_T0_T1_EERKS9_PKS6_
FNDA:19514,_ZNSt3__1eqIcNS_11char_traitsIcEENS_9allocatorIcEEEEbRKNS_12basic_stringIT_T0_T1_EEPKS6_
FNDA:647295,_ZNKSt3__112basic_stringIcNS_11char_traitsIcEENS_9allocatorIcEEE6substrEmm
FNDA:0,_ZNSt3__14fposI11__mbstate_tEC1Ex
FNDA:1902,_ZNKSt3__112basic_stringIcNS_11char_traitsIcEENS_9allocatorIcEEE8capacityEv
FNDA:19332451,_ZNKSt3__112basic_stringIcNS_11char_traitsIcEENS_9allocatorIcEEE9__is_longEv
FNDA:0,_ZNSt3__112basic_stringIcNS_11char_traitsIcEENS_9allocatorIcEEEC1Emc
FNDA:1899,_ZNSt3__112basic_stringIcNS_11char_traitsIcEENS_9allocatorIcEEEC1IPcEET_S8_RKS4_
FNDA:819802,_ZNKSt3__112basic_stringIcNS_11char_traitsIcEENS_9allocatorIcEEE16__get_short_sizeEv
FNDA:3,_ZNSt3__112basic_stringIcNS_11char_traitsIcEENS_9allocatorIcEEE18__set_long_pointerEPc
FNDA:197756,_ZNSt3__112basic_stringIcNS_11char_traitsIcEENS_9allocatorIcEEE19__get_short_pointerEv
FNDA:3,_ZNSt3__112basic_stringIcNS_11char_traitsIcEENS_9allocatorIcEEE11__recommendEm
FNDA:3,_ZNSt3__112basic_stringIcNS_11char_traitsIcEENS_9allocatorIcEEE14__set_long_capEm
FNDA:1899,_ZNSt3__112basic_stringIcNS_11char_traitsIcEENS_9allocatorIcEEEC2IPcEET_S8_RKS4_
FNDA:674200,_ZNSt3__112basic_stringIcNS_11char_traitsIcEENS_9allocatorIcEEEC2INS_9nullptr_tEEEPKc
FNDA:10396,_ZNKSt3__112basic_stringIcNS_11char_traitsIcEENS_9allocatorIcEEE6lengthEv
FNDA:17,_ZNSt3__1plIcNS_11char_traitsIcEENS_9allocatorIcEEEENS_12basic_stringIT_T0_T1_EERKS9_PKS6_
FNDA:0,_ZNKSt3__14fposI11__mbstate_tE5stateEv
FNDA:232967,_ZNSt3__112basic_stringIcNS_11char_traitsIcEENS_9allocatorIcEEEixEm
FNDA:3,_ZNSt3__112basic_stringIcNS_11char_traitsIcEENS_9allocatorIcEEE10__align_itILm16EEEmm
FNDA:232967,_ZNSt3__112basic_stringIcNS_11char_traitsIcEENS_9allocatorIcEEE13__get_pointerEv
FNDA:1715,_ZNSt3__1neIcNS_11char_traitsIcEENS_9allocatorIcEEEEbRKNS_12basic_stringIT_T0_T1_EEPKS6_
FNDA:1310640,_ZNKSt3__112basic_stringIcNS_11char_traitsIcEENS_9allocatorIcEEE19__get_short_pointerEv
FNDA:388947,_ZNSt3__112basic_stringIcNS_11char_traitsIcEENS_9allocatorIcEEE18__get_long_pointerEv
FNDA:1641449,_ZNKSt3__112basic_stringIcNS_11char_traitsIcEENS_9allocatorIcEEE18__get_long_pointerEv
FNDA:14967416,_ZNKSt3__112basic_stringIcNS_11char_traitsIcEENS_9allocatorIcEEE15__get_long_sizeEv
FNDA:645226,_ZNKSt3__112basic_stringIcNS_11char_traitsIcEENS_9allocatorIcEEE13find_first_ofEPKcm
FNDA:34,_ZNSt3__112basic_stringIcNS_11char_traitsIcEENS_9allocatorIcEEEC2ERKS4_
FNDA:9083,_ZNSt3__112basic_stringIcNS_11char_traitsIcEENS_9allocatorIcEEE6__zeroEv
FNDA:11567682,_ZNKSt3__112basic_stringIcNS_11char_traitsIcEENS_9allocatorIcEEE8max_sizeEv
FNDA:0,_ZNSt3__112basic_stringIcNS_11char_traitsIcEENS_9allocatorIcEEEC2Emc
FNDA:0,_ZNSt3__14fposI11__mbstate_tE5stateES1_
FNDA:9049,_ZNSt3__112basic_stringIcNS_11char_traitsIcEENS_9allocatorIcEEEC1Ev
FNDA:3,_ZNSt3__112basic_stringIcNS_11char_traitsIcEENS_9allocatorIcEEE7__allocEv
FNDA:351757,_ZNSt3__112basic_stringIcNS_11char_traitsIcEENS_9allocatorIcEEE15__set_long_sizeEm
FNDA:647245,_ZNKSt3__112basic_stringIcNS_11char_traitsIcEENS_9allocatorIcEEE5c_strEv
FNDA:12216910,_ZNKSt3__112basic_stringIcNS_11char_traitsIcEENS_9allocatorIcEEE7__allocEv
FNDA:1902,_ZNSt3__112basic_stringIcNS_11char_traitsIcEENS_9allocatorIcEEE6resizeEm
FNDA:1933,_ZNKSt3__112basic_stringIcNS_11char_traitsIcEENS_9allocatorIcEEE13get_allocatorEv
FNDA:351840,_ZNSt3__112basic_stringIcNS_11char_traitsIcEENS_9allocatorIcEEE5clearEv
FNDA:34,_ZNSt3__112basic_stringIcNS_11char_traitsIcEENS_9allocatorIcEEEC1ERKS4_
FNDA:0,_ZNKSt3__14fposI11__mbstate_tEcvxEv
FNDA:2952089,_ZNKSt3__112basic_stringIcNS_11char_traitsIcEENS_9allocatorIcEEE4dataEv
FNDA:173,_ZNSt3__112basic_stringIcNS_11char_traitsIcEENS_9allocatorIcEEEaSEPKc
FNDA:351763,_ZNKSt3__112basic_stringIcNS_11char_traitsIcEENS_9allocatorIcEEE12find_last_ofEPKcm
FNDA:674200,_ZNSt3__112basic_stringIcNS_11char_traitsIcEENS_9allocatorIcEEEC1INS_9nullptr_tEEEPKc
FNDA:15787218,_ZNKSt3__112basic_stringIcNS_11char_traitsIcEENS_9allocatorIcEEE4sizeEv
FNDA:1899,_ZNSt3__112basic_stringIcNS_11char_traitsIcEENS_9allocatorIcEEE6__initIPcEENS_9enable_ifIXsr21__is_forward_iteratorIT_EE5valueEvE4typeES9_S9_
FNDA:351840,_ZNSt3__112basic_stringIcNS_11char_traitsIcEENS_9allocatorIcEEE26__invalidate_all_iteratorsEv
FNDA:9049,_ZNSt3__112basic_stringIcNS_11char_traitsIcEENS_9allocatorIcEEEC2Ev
FNDA:0,_ZNSt3__14fposI11__mbstate_tEC2Ex
FNDA:3,_ZNKSt3__112basic_stringIcNS_11char_traitsIcEENS_9allocatorIcEEE14__get_long_capEv
FNDA:1982,_ZNSt3__112basic_stringIcNS_11char_traitsIcEENS_9allocatorIcEEE16__set_short_sizeEm
FNDA:69445,_ZNSt3__1eqINS_9allocatorIcEEEEbRKNS_12basic_stringIcNS_11char_traitsIcEET_EES9_
FNDA:2952089,_ZNKSt3__112basic_stringIcNS_11char_traitsIcEENS_9allocatorIcEEE13__get_pointerEv
FNDA:644280,_ZNKSt3__112basic_stringIcNS_11char_traitsIcEENS_9allocatorIcEEE13find_first_ofERKS5_m
FNDA:1861,_ZNKSt3__112basic_stringIcNS_11char_traitsIcEENS_9allocatorIcEEE13find_first_ofEcm
FNDA:17,_ZNSt3__1plIcNS_11char_traitsIcEENS_9allocatorIcEEEENS_12basic_stringIT_T0_T1_EERKS9_SB_
FNF:57
FNH:50
DA:544,0
DA:546,0
DA:548,0
DA:549,0
DA:790,9049
DA:818,1348400
DA:820,674200
DA:824,1348400
DA:835,0
DA:891,173
DA:947,15787218
DA:948,15787218
DA:949,10396
DA:951,1902
DA:952,1902
DA:953,1902
DA:956,1902
DA:1241,647245
DA:1243,2952089
DA:1250,1933
DA:1420,19332451
DA:1421,19332451
DA:1434,3
DA:1435,3
DA:1437,12216910
DA:1438,12216910
DA:1461,1982
DA:1465,1982
DA:1469,819802
DA:1473,819802
DA:1479,351757
DA:1480,351757
DA:1482,14967416
DA:1483,14967416
DA:1489,3
DA:1490,3
DA:1492,3
DA:1493,3
DA:1496,3
DA:1497,3
DA:1499,388947
DA:1500,388947
DA:1502,1641449
DA:1503,1641449
DA:1505,197756
DA:1506,197756
DA:1508,1310640
DA:1509,1310640
DA:1511,232967
DA:1512,232967
DA:1514,2952089
DA:1515,2952089
DA:1518,9083
DA:1520,9083
DA:1521,36332
DA:1522,27249
DA:1523,9083
DA:1527,3
DA:1528,3
DA:1531,3
DA:1533,3
DA:1534,6
DA:1535,6
DA:1536,3
DA:1537,3
DA:1538,3
DA:1684,351840
DA:1689,351840
DA:1723,18098
DA:1725,18098
DA:1729,9049
DA:1730,18098
DA:1734,68
DA:1740,34
DA:1741,68
DA:1745,34
DA:1746,68
DA:1926,0
DA:1927,0
DA:1928,0
DA:1932,0
DA:2046,1899
DA:2048,1899
DA:2049,1899
DA:2050,0
DA:2052,1899
DA:2054,1896
DA:2055,1896
DA:2056,1896
DA:2059,3
DA:2060,3
DA:2061,3
DA:2062,3
DA:2063,3
DA:2065,7330
DA:2066,5431
DA:2067,1899
DA:2068,1899
DA:2084,3798
DA:2086,1899
DA:2087,3798
DA:2088,1899
DA:2092,3798
DA:3061,351840
DA:3063,351840
DA:3064,351840
DA:3066,351754
DA:3067,351754
DA:3068,351754
DA:3071,86
DA:3072,86
DA:3074,351840
DA:3119,11567682
DA:3121,11567682
DA:3125,11567682
DA:3204,232967
DA:3207,232967
DA:3279,647295
DA:3281,647295
DA:3451,644280
DA:3454,644280
DA:3455,644280
DA:3476,645226
DA:3480,645226
DA:3481,645226
DA:3487,1861
DA:3490,1861
DA:3534,351763
DA:3538,351763
DA:3539,351763
DA:3847,69445
DA:3850,69445
DA:3851,69445
DA:3852,63010
DA:3853,6435
DA:3854,6435
DA:3855,6435
DA:3856,0
DA:3857,39630
DA:3858,36356
DA:3859,3161
DA:3860,3274
DA:3861,69445
DA:3879,19514
DA:3884,19514
DA:3885,19514
DA:3886,3391
DA:3887,19514
DA:3910,1715
DA:3913,1715
DA:4036,17
DA:4039,17
DA:4040,17
DA:4041,17
DA:4042,17
DA:4043,17
DA:4044,17
DA:4045,17
DA:4073,17
DA:4075,17
DA:4076,17
DA:4077,17
DA:4078,17
DA:4079,17
DA:4080,17
DA:4081,17
LF:166
LH:155
end_of_record
TN:
SF:/Applications/Xcode.app/Contents/Developer/Toolchains/XcodeDefault.xctoolchain/usr/include/c++/v1/string.h
FN:95,_ZL15__libcpp_memchrPKvim
FN:97,_ZL6memchrUa9enable_ifIXLb1EEEPKvim
FNDA:11565792,_ZL6memchrUa9enable_ifIXLb1EEEPKvim
FNDA:11565792,_ZL15__libcpp_memchrPKvim
FNF:2
FNH:2
DA:95,11565792
DA:97,11565792
LF:2
LH:2
end_of_record
TN:
SF:/Applications/Xcode.app/Contents/Developer/Toolchains/XcodeDefault.xctoolchain/usr/include/c++/v1/type_traits
FN:454,_ZNSt3__1L9addressofINS_16__list_node_baseI15Boundary_cornerPvEEEEPT_RS5_
FN:454,_ZNSt3__1L9addressofIK12Eprob_vectorEEPT_RS3_
FN:454,_ZNSt3__1L9addressofIK13min_Eout_infoEEPT_RS3_
FN:454,_ZNSt3__1L9addressofI15Kalbach_one_EinEEPT_RS2_
FN:454,_ZNSt3__1L9addressofI21cumulative_prob_entryEEPT_RS2_
FN:454,_ZNSt3__1L9addressofINS_16__list_node_baseIN6quad_F12one_intervalEPvEEEEPT_RS6_
FN:454,_ZNSt3__1L9addressofINS_16__list_node_baseI24standard_Legendre_vectorPvEEEEPT_RS5_
FN:454,_ZNSt3__1L9addressofIN4cmDD14one_joint_distEEEPT_RS3_
FN:454,_ZNSt3__1L9addressofINS_16__list_node_baseI14one_joint_distPvEEEEPT_RS5_
FN:454,_ZNSt3__1L9addressofI11coef_vectorEEPT_RS2_
FN:454,_ZNSt3__1L9addressofINS_16__list_node_baseI13min_Eout_infoPvEEEEPT_RS5_
FN:454,_ZNSt3__1L9addressofI24standard_Legendre_vectorEEPT_RS2_
FN:454,_ZNSt3__1L9addressofIK24standard_Legendre_vectorEEPT_RS3_
FN:454,_ZNSt3__1L9addressofIK8dd_entryEEPT_RS3_
FN:454,_ZNSt3__1L9addressofIK9Ein_entryEEPT_RS3_
FN:454,_ZNSt3__1L9addressofINS_16__list_node_baseI13weight_vectorPvEEEEPT_RS5_
FN:454,_ZNSt3__1L9addressofINS_16__list_node_baseI15Vcm_quadBox_HitPvEEEEPT_RS5_
FN:454,_ZNSt3__1L9addressofIKN4cmDD14one_joint_distEEEPT_RS4_
FN:454,_ZNSt3__1L9addressofIK14one_joint_distEEPT_RS3_
FN:454,_ZNSt3__1L9addressofIcEEPT_RS1_
FN:454,_ZNSt3__1L9addressofIK18cm_Legendre_vectorEEPT_RS3_
FN:454,_ZNSt3__1L9addressofINS_16__list_node_baseI11coef_vectorPvEEEEPT_RS5_
FN:454,_ZNSt3__1L9addressofI8dd_entryEEPT_RS2_
FN:454,_ZNSt3__1L9addressofIKcEEPT_RS2_
FN:454,_ZNSt3__1L9addressofIK6one_muEEPT_RS3_
FN:454,_ZNSt3__1L9addressofINS_16__list_node_baseI7ss_linkPvEEEEPT_RS5_
FN:454,_ZNSt3__1L9addressofINS_16__list_node_baseI18cm_Legendre_vectorPvEEEEPT_RS5_
FN:454,_ZNSt3__1L9addressofIdEEPT_RS1_
FN:454,_ZNSt3__1L9addressofINS_16__list_node_baseI15Kalbach_one_EinPvEEEEPT_RS5_
FN:454,_ZNSt3__1L9addressofIK11Ein_entriesEEPT_RS3_
FN:454,_ZNSt3__1L9addressofINS_16__list_node_baseI11Ein_Eta_HitPvEEEEPT_RS5_
FN:454,_ZNSt3__1L9addressofI13weight_vectorEEPT_RS2_
FN:454,_ZNSt3__1L9addressofINS_16__list_node_baseI14Legendre_coefsPvEEEEPT_RS5_
FN:454,_ZNSt3__1L9addressofI13min_Eout_infoEEPT_RS2_
FN:454,_ZNSt3__1L9addressofIN4cmDD8one_EoutEEEPT_RS3_
FN:454,_ZNSt3__1L9addressofINS_16__list_node_baseI6one_muPvEEEEPT_RS5_
FN:454,_ZNSt3__1L9addressofI14Legendre_coefsEEPT_RS2_
FN:454,_ZNSt3__1L9addressofI12Eprob_vectorEEPT_RS2_
FN:454,_ZNSt3__1L9addressofINS_16__list_node_baseI21cumulative_prob_entryPvEEEEPT_RS5_
FN:454,_ZNSt3__1L9addressofINS_16__list_node_baseI9dd_vectorPvEEEEPT_RS5_
FN:454,_ZNSt3__1L9addressofINS_16__list_node_baseIdPvEEEEPT_RS4_
FN:454,_ZNSt3__1L9addressofI18cm_Legendre_vectorEEPT_RS2_
FN:454,_ZNSt3__1L9addressofINS_16__list_node_baseIN4cmDD8one_EoutEPvEEEEPT_RS6_
FN:454,_ZNSt3__1L9addressofIKN4cmDD8one_EoutEEEPT_RS4_
FN:454,_ZNSt3__1L9addressofINS_16__list_node_baseI12Eprob_vectorPvEEEEPT_RS5_
FN:454,_ZNSt3__1L9addressofIK11Ein_Eta_HitEEPT_RS3_
FN:454,_ZNSt3__1L9addressofIK14Legendre_coefsEEPT_RS3_
FN:454,_ZNSt3__1L9addressofIK15Vcm_quadBox_HitEEPT_RS3_
FN:454,_ZNSt3__1L9addressofI6one_muEEPT_RS2_
FN:454,_ZNSt3__1L9addressofIK11coef_vectorEEPT_RS3_
FN:454,_ZNSt3__1L9addressofI14one_joint_distEEPT_RS2_
FN:454,_ZNSt3__1L9addressofI11Ein_Eta_HitEEPT_RS2_
FN:454,_ZNSt3__1L9addressofIK15Boundary_cornerEEPT_RS3_
FN:454,_ZNSt3__1L9addressofI15Vcm_quadBox_HitEEPT_RS2_
FN:454,_ZNSt3__1L9addressofIK15Kalbach_one_EinEEPT_RS3_
FN:454,_ZNSt3__1L9addressofINS_4listIdNS_9allocatorIdEEEEEEPT_RS5_
FN:454,_ZNSt3__1L9addressofIK9dd_vectorEEPT_RS3_
FN:454,_ZNSt3__1L9addressofI9dd_vectorEEPT_RS2_
FN:454,_ZNSt3__1L9addressofIK21cumulative_prob_entryEEPT_RS3_
FN:454,_ZNSt3__1L9addressofIN6quad_F12one_intervalEEEPT_RS3_
FN:454,_ZNSt3__1L9addressofINS_16__list_node_baseIN4cmDD14one_joint_distEPvEEEEPT_RS6_
FN:454,_ZNSt3__1L9addressofI15Boundary_cornerEEPT_RS2_
FN:454,_ZNSt3__1L9addressofI7ss_linkEEPT_RS2_
FN:2339,_ZNSt3__1L4moveINS_22__allocator_destructorINS_9allocatorINS_11__list_nodeI9dd_vectorPvEEEEEEEERT_SA_
FN:2339,_ZNSt3__1L4moveIPNS_11__list_nodeI24standard_Legendre_vectorPvEEEERT_S7_
FN:2339,_ZNSt3__1L4moveIPNS_11__list_nodeI9dd_vectorPvEEEERT_S7_
FN:2339,_ZNSt3__1L4moveINS_22__allocator_destructorINS_9allocatorINS_11__list_nodeI15Boundary_cornerPvEEEEEEEERT_SA_
FN:2339,_ZNSt3__1L4moveIPdEERT_S3_
FN:2339,_ZNSt3__1L4moveINS_22__allocator_destructorINS_9allocatorINS_11__list_nodeI7ss_linkPvEEEEEEEERT_SA_
FN:2339,_ZNSt3__1L4moveINS_22__allocator_destructorINS_9allocatorINS_11__list_nodeI21cumulative_prob_entryPvEEEEEEEERT_SA_
FN:2339,_ZNSt3__1L4moveINS_22__allocator_destructorINS_9allocatorINS_11__list_nodeI6one_muPvEEEEEEEERT_SA_
FN:2339,_ZNSt3__1L4moveIPNS_11__list_nodeI12Eprob_vectorPvEEEERT_S7_
FN:2339,_ZNSt3__1L4moveIPNS_11__list_nodeI14one_joint_distPvEEEERT_S7_
FN:2339,_ZNSt3__1L4moveIPNS_11__list_nodeIdPvEEEERT_S6_
FN:2339,_ZNSt3__1L4moveINS_22__allocator_destructorINS_9allocatorINS_11__list_nodeI13weight_vectorPvEEEEEEEERT_SA_
FN:2339,_ZNSt3__1L4moveIP9Ein_entryEERT_S4_
FN:2339,_ZNSt3__1L4moveIPNS_11__list_nodeI13weight_vectorPvEEEERT_S7_
FN:2339,_ZNSt3__1L4moveIPNS_11__list_nodeI14Legendre_coefsPvEEEERT_S7_
FN:2339,_ZNSt3__1L4moveI11Ein_Eta_HitEERT_S3_
FN:2339,_ZNSt3__1L4moveIPNS_11__list_nodeI11coef_vectorPvEEEERT_S7_
FN:2339,_ZNSt3__1L4moveINS_22__allocator_destructorINS_9allocatorINS_11__list_nodeI11coef_vectorPvEEEEEEEERT_SA_
FN:2339,_ZNSt3__1L4moveIPNS_11__list_nodeIN4cmDD14one_joint_distEPvEEEERT_S8_
FN:2339,_ZNSt3__1L4moveINS_22__allocator_destructorINS_9allocatorINS_11__list_nodeI24standard_Legendre_vectorPvEEEEEEEERT_SA_
FN:2339,_ZNSt3__1L4moveINS_22__allocator_destructorINS_9allocatorINS_11__list_nodeIN4cmDD14one_joint_distEPvEEEEEEEERT_SB_
FN:2339,_ZNSt3__1L4moveIPNS_11__list_nodeI15Kalbach_one_EinPvEEEERT_S7_
FN:2339,_ZNSt3__1L4moveIPNS_11__list_nodeI15Vcm_quadBox_HitPvEEEERT_S7_
FN:2339,_ZNSt3__1L4moveINS_22__allocator_destructorINS_9allocatorINS_11__list_nodeI12Eprob_vectorPvEEEEEEEERT_SA_
FN:2339,_ZNSt3__1L4moveIP11Ein_entriesEERT_S4_
FN:2339,_ZNSt3__1L4moveINS_22__allocator_destructorINS_9allocatorINS_11__list_nodeI14Legendre_coefsPvEEEEEEEERT_SA_
FN:2339,_ZNSt3__1L4moveINS_22__allocator_destructorINS_9allocatorINS_11__list_nodeI13min_Eout_infoPvEEEEEEEERT_SA_
FN:2339,_ZNSt3__1L4moveINS_22__allocator_destructorINS_9allocatorINS_11__list_nodeI18cm_Legendre_vectorPvEEEEEEEERT_SA_
FN:2339,_ZNSt3__1L4moveIPNS_11__list_nodeIN4cmDD8one_EoutEPvEEEERT_S8_
FN:2339,_ZNSt3__1L4moveIPNS_11__list_nodeI18cm_Legendre_vectorPvEEEERT_S7_
FN:2339,_ZNSt3__1L4moveINS_22__allocator_destructorINS_9allocatorINS_11__list_nodeI11Ein_Eta_HitPvEEEEEEEERT_SA_
FN:2339,_ZNSt3__1L4moveIPNS_11__list_nodeI21cumulative_prob_entryPvEEEERT_S7_
FN:2339,_ZNSt3__1L4moveI8dd_entryEERT_S3_
FN:2339,_ZNSt3__1L4moveIPNS_11__list_nodeIN6quad_F12one_intervalEPvEEEERT_S8_
FN:2339,_ZNSt3__1L4moveINS_22__allocator_destructorINS_9allocatorINS_11__list_nodeI15Vcm_quadBox_HitPvEEEEEEEERT_SA_
FN:2339,_ZNSt3__1L4moveIPNS_11__list_nodeI7ss_linkPvEEEERT_S7_
FN:2339,_ZNSt3__1L4moveIPNS_11__list_nodeI6one_muPvEEEERT_S7_
FN:2339,_ZNSt3__1L4moveIP8dd_entryEERT_S4_
FN:2339,_ZNSt3__1L4moveIP11Ein_Eta_HitEERT_S4_
FN:2339,_ZNSt3__1L4moveIPNS_11__list_nodeI15Boundary_cornerPvEEEERT_S7_
FN:2339,_ZNSt3__1L4moveINS_22__allocator_destructorINS_9allocatorINS_11__list_nodeI15Kalbach_one_EinPvEEEEEEEERT_SA_
FN:2339,_ZNSt3__1L4moveINS_22__allocator_destructorINS_9allocatorINS_11__list_nodeIN6quad_F12one_intervalEPvEEEEEEEERT_SB_
FN:2339,_ZNSt3__1L4moveINS_22__allocator_destructorINS_9allocatorINS_11__list_nodeIN4cmDD8one_EoutEPvEEEEEEEERT_SB_
FN:2339,_ZNSt3__1L4moveINS_22__allocator_destructorINS_9allocatorINS_11__list_nodeI14one_joint_distPvEEEEEEEERT_SA_
FN:2339,_ZNSt3__1L4moveI9Ein_entryEERT_S3_
FN:2339,_ZNSt3__1L4moveIPFiP7__sFILEEEERT_S6_
FN:2339,_ZNSt3__1L4moveINS_22__allocator_destructorINS_9allocatorINS_11__list_nodeIdPvEEEEEEEERT_S9_
FN:2339,_ZNSt3__1L4moveIP7__sFILEEERT_S4_
FN:2339,_ZNSt3__1L4moveIPNS_11__list_nodeI11Ein_Eta_HitPvEEEERT_S7_
FN:2339,_ZNSt3__1L4moveI11Ein_entriesEERT_S3_
FN:2339,_ZNSt3__1L4moveIPNS_11__list_nodeI13min_Eout_infoPvEEEERT_S7_
FN:2355,_ZNSt3__1L7forwardIK11Ein_Eta_HitEERT_RNS_16remove_referenceIS3_E4typeE
FN:2355,_ZNSt3__1L7forwardINS_9allocatorINS_11__list_nodeI14Legendre_coefsPvEEEEEERT_RNS_16remove_referenceIS7_E4typeE
FN:2355,_ZNSt3__1L7forwardIRNS_9allocatorI11Ein_entriesEEEERT_RNS_16remove_referenceIS5_E4typeE
FN:2355,_ZNSt3__1L7forwardIPdEERT_RNS_16remove_referenceIS2_E4typeE
FN:2355,_ZNSt3__1L7forwardIPNS_11__list_nodeI15Boundary_cornerPvEEEERT_RNS_16remove_referenceIS6_E4typeE
FN:2355,_ZNSt3__1L7forwardINS_9allocatorINS_11__list_nodeIN4cmDD8one_EoutEPvEEEEEERT_RNS_16remove_referenceIS8_E4typeE
FN:2355,_ZNSt3__1L7forwardIK9Ein_entryEERT_RNS_16remove_referenceIS3_E4typeE
FN:2355,_ZNSt3__1L7forwardINS_22__allocator_destructorINS_9allocatorINS_11__list_nodeI21cumulative_prob_entryPvEEEEEEEERT_RNS_16remove_referenceIS9_E4typeE
FN:2355,_ZNSt3__1L7forwardIP11Ein_Eta_HitEERT_RNS_16remove_referenceIS3_E4typeE
FN:2355,_ZNSt3__1L7forwardIPNS_11__list_nodeI11Ein_Eta_HitPvEEEERT_RNS_16remove_referenceIS6_E4typeE
FN:2355,_ZNSt3__1L7forwardIP7__sFILEEERT_RNS_16remove_referenceIS3_E4typeE
FN:2355,_ZNSt3__1L7forwardINS_22__allocator_destructorINS_9allocatorINS_11__list_nodeI15Kalbach_one_EinPvEEEEEEEERT_RNS_16remove_referenceIS9_E4typeE
FN:2355,_ZNSt3__1L7forwardINS_22__allocator_destructorINS_9allocatorINS_11__list_nodeIN4cmDD8one_EoutEPvEEEEEEEERT_RNS_16remove_referenceISA_E4typeE
FN:2355,_ZNSt3__1L7forwardINS_22__allocator_destructorINS_9allocatorINS_11__list_nodeI15Vcm_quadBox_HitPvEEEEEEEERT_RNS_16remove_referenceIS9_E4typeE
FN:2355,_ZNSt3__1L7forwardINS_22__allocator_destructorINS_9allocatorINS_11__list_nodeI14one_joint_distPvEEEEEEEERT_RNS_16remove_referenceIS9_E4typeE
FN:2355,_ZNSt3__1L7forwardIPNS_11__list_nodeI13min_Eout_infoPvEEEERT_RNS_16remove_referenceIS6_E4typeE
FN:2355,_ZNSt3__1L7forwardINS_22__allocator_destructorINS_9allocatorINS_11__list_nodeI13weight_vectorPvEEEEEEEERT_RNS_16remove_referenceIS9_E4typeE
FN:2355,_ZNSt3__1L7forwardIPNS_11__list_nodeI6one_muPvEEEERT_RNS_16remove_referenceIS6_E4typeE
FN:2355,_ZNSt3__1L7forwardINS_22__allocator_destructorINS_9allocatorINS_11__list_nodeI6one_muPvEEEEEEEERT_RNS_16remove_referenceIS9_E4typeE
FN:2355,_ZNSt3__1L7forwardIPFiP7__sFILEEEERT_RNS_16remove_referenceIS5_E4typeE
FN:2355,_ZNSt3__1L7forwardIPNS_11__list_nodeIN6quad_F12one_intervalEPvEEEERT_RNS_16remove_referenceIS7_E4typeE
FN:2355,_ZNSt3__1L7forwardIPNS_11__list_nodeIN4cmDD14one_joint_distEPvEEEERT_RNS_16remove_referenceIS7_E4typeE
FN:2355,_ZNSt3__1L7forwardIPNS_11__list_nodeI15Vcm_quadBox_HitPvEEEERT_RNS_16remove_referenceIS6_E4typeE
FN:2355,_ZNSt3__1L7forwardIPNS_11__list_nodeI18cm_Legendre_vectorPvEEEERT_RNS_16remove_referenceIS6_E4typeE
FN:2355,_ZNSt3__1L7forwardIP11Ein_entriesEERT_RNS_16remove_referenceIS3_E4typeE
FN:2355,_ZNSt3__1L7forwardINS_22__allocator_destructorINS_9allocatorINS_11__list_nodeI9dd_vectorPvEEEEEEEERT_RNS_16remove_referenceIS9_E4typeE
FN:2355,_ZNSt3__1L7forwardIPNS_11__list_nodeIN4cmDD8one_EoutEPvEEEERT_RNS_16remove_referenceIS7_E4typeE
FN:2355,_ZNSt3__1L7forwardIP8dd_entryEERT_RNS_16remove_referenceIS3_E4typeE
FN:2355,_ZNSt3__1L7forwardINS_22__allocator_destructorINS_9allocatorINS_11__list_nodeI13min_Eout_infoPvEEEEEEEERT_RNS_16remove_referenceIS9_E4typeE
FN:2355,_ZNSt3__1L7forwardINS_9allocatorIcEEEERT_RNS_16remove_referenceIS3_E4typeE
FN:2355,_ZNSt3__1L7forwardINS_22__allocator_destructorINS_9allocatorINS_11__list_nodeI11coef_vectorPvEEEEEEEERT_RNS_16remove_referenceIS9_E4typeE
FN:2355,_ZNSt3__1L7forwardIPNS_11__list_nodeI9dd_vectorPvEEEERT_RNS_16remove_referenceIS6_E4typeE
FN:2355,_ZNSt3__1L7forwardINS_22__allocator_destructorINS_9allocatorINS_11__list_nodeIN6quad_F12one_intervalEPvEEEEEEEERT_RNS_16remove_referenceISA_E4typeE
FN:2355,_ZNSt3__1L7forwardIKdEERT_RNS_16remove_referenceIS2_E4typeE
FN:2355,_ZNSt3__1L7forwardINS_9allocatorINS_11__list_nodeI21cumulative_prob_entryPvEEEEEERT_RNS_16remove_referenceIS7_E4typeE
FN:2355,_ZNSt3__1L7forwardIPNS_11__list_nodeIdPvEEEERT_RNS_16remove_referenceIS5_E4typeE
FN:2355,_ZNSt3__1L7forwardIPNS_11__list_nodeI21cumulative_prob_entryPvEEEERT_RNS_16remove_referenceIS6_E4typeE
FN:2355,_ZNSt3__1L7forwardIPNS_12basic_stringIcNS_11char_traitsIcEENS_9allocatorIcEEEEEERT_RNS_16remove_referenceIS8_E4typeE
FN:2355,_ZNSt3__1L7forwardIPNS_11__list_nodeI12Eprob_vectorPvEEEERT_RNS_16remove_referenceIS6_E4typeE
FN:2355,_ZNSt3__1L7forwardINS_22__allocator_destructorINS_9allocatorINS_11__list_nodeI18cm_Legendre_vectorPvEEEEEEEERT_RNS_16remove_referenceIS9_E4typeE
FN:2355,_ZNSt3__1L7forwardINS_22__allocator_destructorINS_9allocatorINS_11__list_nodeI11Ein_Eta_HitPvEEEEEEEERT_RNS_16remove_referenceIS9_E4typeE
FN:2355,_ZNSt3__1L7forwardINS_9allocatorINS_11__list_nodeI6one_muPvEEEEEERT_RNS_16remove_referenceIS7_E4typeE
FN:2355,_ZNSt3__1L7forwardImEERT_RNS_16remove_referenceIS1_E4typeE
FN:2355,_ZNSt3__1L7forwardINS_22__allocator_destructorINS_9allocatorINS_11__list_nodeIN4cmDD14one_joint_distEPvEEEEEEEERT_RNS_16remove_referenceISA_E4typeE
FN:2355,_ZNSt3__1L7forwardINS_22__allocator_destructorINS_9allocatorINS_11__list_nodeI7ss_linkPvEEEEEEEERT_RNS_16remove_referenceIS9_E4typeE
FN:2355,_ZNSt3__1L7forwardIRNS_9allocatorI11Ein_Eta_HitEEEERT_RNS_16remove_referenceIS5_E4typeE
FN:2355,_ZNSt3__1L7forwardINS_22__allocator_destructorINS_9allocatorINS_11__list_nodeI12Eprob_vectorPvEEEEEEEERT_RNS_16remove_referenceIS9_E4typeE
FN:2355,_ZNSt3__1L7forwardIPNS_11__list_nodeI14Legendre_coefsPvEEEERT_RNS_16remove_referenceIS6_E4typeE
FN:2355,_ZNSt3__1L7forwardIRNS_9allocatorI8dd_entryEEEERT_RNS_16remove_referenceIS5_E4typeE
FN:2355,_ZNSt3__1L7forwardIK11Ein_entriesEERT_RNS_16remove_referenceIS3_E4typeE
FN:2355,_ZNSt3__1L7forwardINS_22__allocator_destructorINS_9allocatorINS_11__list_nodeI14Legendre_coefsPvEEEEEEEERT_RNS_16remove_referenceIS9_E4typeE
FN:2355,_ZNSt3__1L7forwardIP9Ein_entryEERT_RNS_16remove_referenceIS3_E4typeE
FN:2355,_ZNSt3__1L7forwardIPNS_11__list_nodeI7ss_linkPvEEEERT_RNS_16remove_referenceIS6_E4typeE
FN:2355,_ZNSt3__1L7forwardIPNS_11__list_nodeI15Kalbach_one_EinPvEEEERT_RNS_16remove_referenceIS6_E4typeE
FN:2355,_ZNSt3__1L7forwardIPNS_11__list_nodeI14one_joint_distPvEEEERT_RNS_16remove_referenceIS6_E4typeE
FN:2355,_ZNSt3__1L7forwardINS_22__allocator_destructorINS_9allocatorINS_11__list_nodeI24standard_Legendre_vectorPvEEEEEEEERT_RNS_16remove_referenceIS9_E4typeE
FN:2355,_ZNSt3__1L7forwardIPNS_11__list_nodeI13weight_vectorPvEEEERT_RNS_16remove_referenceIS6_E4typeE
FN:2355,_ZNSt3__1L7forwardIPNS_11__list_nodeI11coef_vectorPvEEEERT_RNS_16remove_referenceIS6_E4typeE
FN:2355,_ZNSt3__1L7forwardINS_22__allocator_destructorINS_9allocatorINS_11__list_nodeIdPvEEEEEEEERT_RNS_16remove_referenceIS8_E4typeE
FN:2355,_ZNSt3__1L7forwardIPNS_11__list_nodeI24standard_Legendre_vectorPvEEEERT_RNS_16remove_referenceIS6_E4typeE
FN:2355,_ZNSt3__1L7forwardIRNS_9allocatorI9Ein_entryEEEERT_RNS_16remove_referenceIS5_E4typeE
FN:2355,_ZNSt3__1L7forwardIK8dd_entryEERT_RNS_16remove_referenceIS3_E4typeE
FN:2355,_ZNSt3__1L7forwardIRNS_9allocatorIdEEEERT_RNS_16remove_referenceIS4_E4typeE
FN:2355,_ZNSt3__1L7forwardINS_22__allocator_destructorINS_9allocatorINS_11__list_nodeI15Boundary_cornerPvEEEEEEEERT_RNS_16remove_referenceIS9_E4typeE
FN:2368,_ZNSt3__14__rvINS_10unique_ptrINS_11__list_nodeIN4cmDD8one_EoutEPvEENS_22__allocator_destructorINS_9allocatorIS6_EEEEEEEptEv
FN:2368,_ZNSt3__14__rvINS_10unique_ptrINS_11__list_nodeI9dd_vectorPvEENS_22__allocator_destructorINS_9allocatorIS5_EEEEEEEptEv
FN:2368,_ZNSt3__14__rvINS_10unique_ptrINS_11__list_nodeIN6quad_F12one_intervalEPvEENS_22__allocator_destructorINS_9allocatorIS6_EEEEEEEptEv
FN:2368,_ZNSt3__14__rvINS_10unique_ptrINS_11__list_nodeI21cumulative_prob_entryPvEENS_22__allocator_destructorINS_9allocatorIS5_EEEEEEEptEv
FN:2368,_ZNSt3__14__rvINS_10unique_ptrINS_11__list_nodeI15Boundary_cornerPvEENS_22__allocator_destructorINS_9allocatorIS5_EEEEEEEptEv
FN:2368,_ZNSt3__14__rvINS_10unique_ptrINS_11__list_nodeI24standard_Legendre_vectorPvEENS_22__allocator_destructorINS_9allocatorIS5_EEEEEEEptEv
FN:2368,_ZNSt3__14__rvINS_10unique_ptrINS_11__list_nodeI15Vcm_quadBox_HitPvEENS_22__allocator_destructorINS_9allocatorIS5_EEEEEEEptEv
FN:2368,_ZNSt3__14__rvINS_10unique_ptrINS_11__list_nodeI14Legendre_coefsPvEENS_22__allocator_destructorINS_9allocatorIS5_EEEEEEEptEv
FN:2368,_ZNSt3__14__rvINS_10unique_ptrINS_11__list_nodeIN4cmDD14one_joint_distEPvEENS_22__allocator_destructorINS_9allocatorIS6_EEEEEEEptEv
FN:2368,_ZNSt3__14__rvINS_10unique_ptrINS_11__list_nodeI12Eprob_vectorPvEENS_22__allocator_destructorINS_9allocatorIS5_EEEEEEEptEv
FN:2368,_ZNSt3__14__rvINS_10unique_ptrINS_11__list_nodeI6one_muPvEENS_22__allocator_destructorINS_9allocatorIS5_EEEEEEEptEv
FN:2368,_ZNSt3__14__rvINS_10unique_ptrINS_11__list_nodeI13weight_vectorPvEENS_22__allocator_destructorINS_9allocatorIS5_EEEEEEEptEv
FN:2368,_ZNSt3__14__rvINS_10unique_ptrINS_11__list_nodeIdPvEENS_22__allocator_destructorINS_9allocatorIS4_EEEEEEEptEv
FN:2368,_ZNSt3__14__rvINS_10unique_ptrINS_11__list_nodeI18cm_Legendre_vectorPvEENS_22__allocator_destructorINS_9allocatorIS5_EEEEEEEptEv
FN:2368,_ZNSt3__14__rvINS_10unique_ptrINS_11__list_nodeI14one_joint_distPvEENS_22__allocator_destructorINS_9allocatorIS5_EEEEEEEptEv
FN:2368,_ZNSt3__14__rvINS_10unique_ptrINS_11__list_nodeI15Kalbach_one_EinPvEENS_22__allocator_destructorINS_9allocatorIS5_EEEEEEEptEv
FN:2368,_ZNSt3__14__rvINS_10unique_ptrINS_11__list_nodeI11Ein_Eta_HitPvEENS_22__allocator_destructorINS_9allocatorIS5_EEEEEEEptEv
FN:2368,_ZNSt3__14__rvINS_10unique_ptrINS_11__list_nodeI13min_Eout_infoPvEENS_22__allocator_destructorINS_9allocatorIS5_EEEEEEEptEv
FN:2368,_ZNSt3__14__rvINS_10unique_ptrINS_11__list_nodeI11coef_vectorPvEENS_22__allocator_destructorINS_9allocatorIS5_EEEEEEEptEv
FN:2368,_ZNSt3__14__rvINS_10unique_ptrINS_11__list_nodeI7ss_linkPvEENS_22__allocator_destructorINS_9allocatorIS5_EEEEEEEptEv
FN:2370,_ZNSt3__14__rvINS_10unique_ptrINS_11__list_nodeI9dd_vectorPvEENS_22__allocator_destructorINS_9allocatorIS5_EEEEEEEC1ERSA_
FN:2370,_ZNSt3__14__rvINS_10unique_ptrINS_11__list_nodeI7ss_linkPvEENS_22__allocator_destructorINS_9allocatorIS5_EEEEEEEC1ERSA_
FN:2370,_ZNSt3__14__rvINS_10unique_ptrINS_11__list_nodeI14Legendre_coefsPvEENS_22__allocator_destructorINS_9allocatorIS5_EEEEEEEC2ERSA_
FN:2370,_ZNSt3__14__rvINS_10unique_ptrINS_11__list_nodeIN4cmDD8one_EoutEPvEENS_22__allocator_destructorINS_9allocatorIS6_EEEEEEEC2ERSB_
FN:2370,_ZNSt3__14__rvINS_10unique_ptrINS_11__list_nodeIN4cmDD14one_joint_distEPvEENS_22__allocator_destructorINS_9allocatorIS6_EEEEEEEC2ERSB_
FN:2370,_ZNSt3__14__rvINS_10unique_ptrINS_11__list_nodeI21cumulative_prob_entryPvEENS_22__allocator_destructorINS_9allocatorIS5_EEEEEEEC1ERSA_
FN:2370,_ZNSt3__14__rvINS_10unique_ptrINS_11__list_nodeI13weight_vectorPvEENS_22__allocator_destructorINS_9allocatorIS5_EEEEEEEC2ERSA_
FN:2370,_ZNSt3__14__rvINS_10unique_ptrINS_11__list_nodeI6one_muPvEENS_22__allocator_destructorINS_9allocatorIS5_EEEEEEEC2ERSA_
FN:2370,_ZNSt3__14__rvINS_10unique_ptrINS_11__list_nodeI14one_joint_distPvEENS_22__allocator_destructorINS_9allocatorIS5_EEEEEEEC2ERSA_
FN:2370,_ZNSt3__14__rvINS_10unique_ptrINS_11__list_nodeI11coef_vectorPvEENS_22__allocator_destructorINS_9allocatorIS5_EEEEEEEC2ERSA_
FN:2370,_ZNSt3__14__rvINS_10unique_ptrINS_11__list_nodeI14Legendre_coefsPvEENS_22__allocator_destructorINS_9allocatorIS5_EEEEEEEC1ERSA_
FN:2370,_ZNSt3__14__rvINS_10unique_ptrINS_11__list_nodeI18cm_Legendre_vectorPvEENS_22__allocator_destructorINS_9allocatorIS5_EEEEEEEC1ERSA_
FN:2370,_ZNSt3__14__rvINS_10unique_ptrINS_11__list_nodeI24standard_Legendre_vectorPvEENS_22__allocator_destructorINS_9allocatorIS5_EEEEEEEC1ERSA_
FN:2370,_ZNSt3__14__rvINS_10unique_ptrINS_11__list_nodeI7ss_linkPvEENS_22__allocator_destructorINS_9allocatorIS5_EEEEEEEC2ERSA_
FN:2370,_ZNSt3__14__rvINS_10unique_ptrINS_11__list_nodeI14one_joint_distPvEENS_22__allocator_destructorINS_9allocatorIS5_EEEEEEEC1ERSA_
FN:2370,_ZNSt3__14__rvINS_10unique_ptrINS_11__list_nodeIN6quad_F12one_intervalEPvEENS_22__allocator_destructorINS_9allocatorIS6_EEEEEEEC2ERSB_
FN:2370,_ZNSt3__14__rvINS_10unique_ptrINS_11__list_nodeI15Kalbach_one_EinPvEENS_22__allocator_destructorINS_9allocatorIS5_EEEEEEEC2ERSA_
FN:2370,_ZNSt3__14__rvINS_10unique_ptrINS_11__list_nodeI6one_muPvEENS_22__allocator_destructorINS_9allocatorIS5_EEEEEEEC1ERSA_
FN:2370,_ZNSt3__14__rvINS_10unique_ptrINS_11__list_nodeI13min_Eout_infoPvEENS_22__allocator_destructorINS_9allocatorIS5_EEEEEEEC1ERSA_
FN:2370,_ZNSt3__14__rvINS_10unique_ptrINS_11__list_nodeI11coef_vectorPvEENS_22__allocator_destructorINS_9allocatorIS5_EEEEEEEC1ERSA_
FN:2370,_ZNSt3__14__rvINS_10unique_ptrINS_11__list_nodeI15Boundary_cornerPvEENS_22__allocator_destructorINS_9allocatorIS5_EEEEEEEC1ERSA_
FN:2370,_ZNSt3__14__rvINS_10unique_ptrINS_11__list_nodeI9dd_vectorPvEENS_22__allocator_destructorINS_9allocatorIS5_EEEEEEEC2ERSA_
FN:2370,_ZNSt3__14__rvINS_10unique_ptrINS_11__list_nodeI15Vcm_quadBox_HitPvEENS_22__allocator_destructorINS_9allocatorIS5_EEEEEEEC2ERSA_
FN:2370,_ZNSt3__14__rvINS_10unique_ptrINS_11__list_nodeI18cm_Legendre_vectorPvEENS_22__allocator_destructorINS_9allocatorIS5_EEEEEEEC2ERSA_
FN:2370,_ZNSt3__14__rvINS_10unique_ptrINS_11__list_nodeIdPvEENS_22__allocator_destructorINS_9allocatorIS4_EEEEEEEC2ERS9_
FN:2370,_ZNSt3__14__rvINS_10unique_ptrINS_11__list_nodeI11Ein_Eta_HitPvEENS_22__allocator_destructorINS_9allocatorIS5_EEEEEEEC1ERSA_
FN:2370,_ZNSt3__14__rvINS_10unique_ptrINS_11__list_nodeI24standard_Legendre_vectorPvEENS_22__allocator_destructorINS_9allocatorIS5_EEEEEEEC2ERSA_
FN:2370,_ZNSt3__14__rvINS_10unique_ptrINS_11__list_nodeIN4cmDD8one_EoutEPvEENS_22__allocator_destructorINS_9allocatorIS6_EEEEEEEC1ERSB_
FN:2370,_ZNSt3__14__rvINS_10unique_ptrINS_11__list_nodeI12Eprob_vectorPvEENS_22__allocator_destructorINS_9allocatorIS5_EEEEEEEC1ERSA_
FN:2370,_ZNSt3__14__rvINS_10unique_ptrINS_11__list_nodeI15Vcm_quadBox_HitPvEENS_22__allocator_destructorINS_9allocatorIS5_EEEEEEEC1ERSA_
FN:2370,_ZNSt3__14__rvINS_10unique_ptrINS_11__list_nodeIN4cmDD14one_joint_distEPvEENS_22__allocator_destructorINS_9allocatorIS6_EEEEEEEC1ERSB_
FN:2370,_ZNSt3__14__rvINS_10unique_ptrINS_11__list_nodeIdPvEENS_22__allocator_destructorINS_9allocatorIS4_EEEEEEEC1ERS9_
FN:2370,_ZNSt3__14__rvINS_10unique_ptrINS_11__list_nodeI15Boundary_cornerPvEENS_22__allocator_destructorINS_9allocatorIS5_EEEEEEEC2ERSA_
FN:2370,_ZNSt3__14__rvINS_10unique_ptrINS_11__list_nodeI11Ein_Eta_HitPvEENS_22__allocator_destructorINS_9allocatorIS5_EEEEEEEC2ERSA_
FN:2370,_ZNSt3__14__rvINS_10unique_ptrINS_11__list_nodeI21cumulative_prob_entryPvEENS_22__allocator_destructorINS_9allocatorIS5_EEEEEEEC2ERSA_
FN:2370,_ZNSt3__14__rvINS_10unique_ptrINS_11__list_nodeIN6quad_F12one_intervalEPvEENS_22__allocator_destructorINS_9allocatorIS6_EEEEEEEC1ERSB_
FN:2370,_ZNSt3__14__rvINS_10unique_ptrINS_11__list_nodeI13min_Eout_infoPvEENS_22__allocator_destructorINS_9allocatorIS5_EEEEEEEC2ERSA_
FN:2370,_ZNSt3__14__rvINS_10unique_ptrINS_11__list_nodeI12Eprob_vectorPvEENS_22__allocator_destructorINS_9allocatorIS5_EEEEEEEC2ERSA_
FN:2370,_ZNSt3__14__rvINS_10unique_ptrINS_11__list_nodeI13weight_vectorPvEENS_22__allocator_destructorINS_9allocatorIS5_EEEEEEEC1ERSA_
FN:2370,_ZNSt3__14__rvINS_10unique_ptrINS_11__list_nodeI15Kalbach_one_EinPvEENS_22__allocator_destructorINS_9allocatorIS5_EEEEEEEC1ERSA_
FN:4523,_ZNSt3__1L4swapIP11Ein_Eta_HitEEvRT_S4_
FN:4523,_ZNSt3__1L4swapIPdEEvRT_S3_
FN:4523,_ZNSt3__1L4swapIP11Ein_entriesEEvRT_S4_
FN:4523,_ZNSt3__1L4swapIP8dd_entryEEvRT_S4_
FN:4523,_ZNSt3__1L4swapIP9Ein_entryEEvRT_S4_
FNDA:1565708184,_ZNSt3__1L4moveIPdEERT_S3_
FNDA:50256,_ZNSt3__1L4moveINS_22__allocator_destructorINS_9allocatorINS_11__list_nodeI15Boundary_cornerPvEEEEEEEERT_SA_
FNDA:4433,_ZNSt3__1L9addressofIN4cmDD14one_joint_distEEEPT_RS3_
FNDA:0,_ZNSt3__1L7forwardIK9Ein_entryEERT_RNS_16remove_referenceIS3_E4typeE
FNDA:2159,_ZNSt3__1L4moveINS_22__allocator_destructorINS_9allocatorINS_11__list_nodeI7ss_linkPvEEEEEEEERT_SA_
FNDA:69479,_ZNSt3__1L9addressofI21cumulative_prob_entryEEPT_RS2_
FNDA:17633,_ZNSt3__1L9addressofI15Kalbach_one_EinEEPT_RS2_
FNDA:301536,_ZNSt3__1L7forwardIPNS_11__list_nodeI15Boundary_cornerPvEEEERT_RNS_16remove_referenceIS6_E4typeE
FNDA:460,_ZNSt3__1L4moveIPNS_11__list_nodeI9dd_vectorPvEEEERT_S7_
FNDA:30,_ZNSt3__1L7forwardINS_9allocatorINS_11__list_nodeIN4cmDD8one_EoutEPvEEEEEERT_RNS_16remove_referenceIS8_E4typeE
FNDA:182266,_ZNSt3__1L9addressofINS_16__list_node_baseI24standard_Legendre_vectorPvEEEEPT_RS5_
FNDA:3402574463,_ZNSt3__1L9addressofINS_16__list_node_baseIN6quad_F12one_intervalEPvEEEEPT_RS6_
FNDA:60406,_ZNSt3__14__rvINS_10unique_ptrINS_11__list_nodeI14Legendre_coefsPvEENS_22__allocator_destructorINS_9allocatorIS5_EEEEEEEC2ERSA_
FNDA:559199,_ZNSt3__1L9addressofIK13min_Eout_infoEEPT_RS3_
FNDA:8716,_ZNSt3__14__rvINS_10unique_ptrINS_11__list_nodeIN4cmDD8one_EoutEPvEENS_22__allocator_destructorINS_9allocatorIS6_EEEEEEEptEv
FNDA:4318,_ZNSt3__14__rvINS_10unique_ptrINS_11__list_nodeI7ss_linkPvEENS_22__allocator_destructorINS_9allocatorIS5_EEEEEEEC1ERSA_
FNDA:481617036,_ZNSt3__14__rvINS_10unique_ptrINS_11__list_nodeIN6quad_F12one_intervalEPvEENS_22__allocator_destructorINS_9allocatorIS6_EEEEEEEptEv
FNDA:1840,_ZNSt3__14__rvINS_10unique_ptrINS_11__list_nodeI9dd_vectorPvEENS_22__allocator_destructorINS_9allocatorIS5_EEEEEEEptEv
FNDA:278,_ZNSt3__1L4moveIPNS_11__list_nodeI24standard_Legendre_vectorPvEEEERT_S7_
FNDA:460,_ZNSt3__1L4moveINS_22__allocator_destructorINS_9allocatorINS_11__list_nodeI9dd_vectorPvEEEEEEEERT_SA_
FNDA:1487571,_ZNSt3__1L9addressofINS_16__list_node_baseI15Boundary_cornerPvEEEEPT_RS5_
FNDA:920,_ZNSt3__14__rvINS_10unique_ptrINS_11__list_nodeI9dd_vectorPvEENS_22__allocator_destructorINS_9allocatorIS5_EEEEEEEC1ERSA_
FNDA:0,_ZNSt3__1L7forwardIRNS_9allocatorI11Ein_entriesEEEERT_RNS_16remove_referenceIS5_E4typeE
FNDA:291351060,_ZNSt3__1L7forwardIK11Ein_Eta_HitEERT_RNS_16remove_referenceIS3_E4typeE
FNDA:742,_ZNSt3__1L7forwardINS_9allocatorINS_11__list_nodeI14Legendre_coefsPvEEEEEERT_RNS_16remove_referenceIS7_E4typeE
FNDA:483862540,_ZNSt3__1L7forwardIPdEERT_RNS_16remove_referenceIS2_E4typeE
FNDA:422583,_ZNSt3__1L9addressofIK12Eprob_vectorEEPT_RS3_
FNDA:931631,_ZNSt3__1L9addressofINS_16__list_node_baseI13weight_vectorPvEEEEPT_RS5_
FNDA:1488,_ZNSt3__1L7forwardINS_22__allocator_destructorINS_9allocatorINS_11__list_nodeI15Kalbach_one_EinPvEEEEEEEERT_RNS_16remove_referenceIS9_E4typeE
FNDA:222564409,_ZNSt3__1L9addressofINS_16__list_node_baseI15Vcm_quadBox_HitPvEEEEPT_RS5_
FNDA:344,_ZNSt3__1L7forwardIP7__sFILEEERT_RNS_16remove_referenceIS3_E4typeE
FNDA:4166190,_ZNSt3__1L9addressofIKN4cmDD14one_joint_distEEEPT_RS4_
FNDA:44161,_ZNSt3__1L9addressofIK18cm_Legendre_vectorEEPT_RS3_
FNDA:197756,_ZNSt3__1L9addressofIcEEPT_RS1_
FNDA:152,_ZNSt3__14__rvINS_10unique_ptrINS_11__list_nodeI14one_joint_distPvEENS_22__allocator_destructorINS_9allocatorIS5_EEEEEEEC2ERSA_
FNDA:17432,_ZNSt3__1L7forwardINS_22__allocator_destructorINS_9allocatorINS_11__list_nodeIN4cmDD8one_EoutEPvEEEEEEEERT_RNS_16remove_referenceISA_E4typeE
FNDA:2410,_ZNSt3__14__rvINS_10unique_ptrINS_11__list_nodeI6one_muPvEENS_22__allocator_destructorINS_9allocatorIS5_EEEEEEEC2ERSA_
FNDA:10,_ZNSt3__1L9addressofIK14one_joint_distEEPT_RS3_
FNDA:827393792,_ZNSt3__1L9addressofIK8dd_entryEEPT_RS3_
FNDA:0,_ZNSt3__1L9addressofIK9Ein_entryEEPT_RS3_
FNDA:30,_ZNSt3__14__rvINS_10unique_ptrINS_11__list_nodeIN4cmDD14one_joint_distEPvEENS_22__allocator_destructorINS_9allocatorIS6_EEEEEEEC2ERSB_
FNDA:76,_ZNSt3__1L4moveIPNS_11__list_nodeI14one_joint_distPvEEEERT_S7_
FNDA:201024,_ZNSt3__14__rvINS_10unique_ptrINS_11__list_nodeI15Boundary_cornerPvEENS_22__allocator_destructorINS_9allocatorIS5_EEEEEEEptEv
FNDA:14314,_ZNSt3__14__rvINS_10unique_ptrINS_11__list_nodeI21cumulative_prob_entryPvEENS_22__allocator_destructorINS_9allocatorIS5_EEEEEEEC1ERSA_
FNDA:16248,_ZNSt3__14__rvINS_10unique_ptrINS_11__list_nodeI13weight_vectorPvEENS_22__allocator_destructorINS_9allocatorIS5_EEEEEEEC2ERSA_
FNDA:7157,_ZNSt3__1L4moveINS_22__allocator_destructorINS_9allocatorINS_11__list_nodeI21cumulative_prob_entryPvEEEEEEEERT_SA_
FNDA:2224254252,_ZNSt3__1L7forwardIPNS_11__list_nodeI11Ein_Eta_HitPvEEEERT_RNS_16remove_referenceIS6_E4typeE
FNDA:116,_ZNSt3__1L4moveIPNS_11__list_nodeI12Eprob_vectorPvEEEERT_S7_
FNDA:32,_ZNSt3__1L9addressofIK24standard_Legendre_vectorEEPT_RS3_
FNDA:874053180,_ZNSt3__1L4swapIP11Ein_Eta_HitEEvRT_S4_
FNDA:1205,_ZNSt3__1L4moveINS_22__allocator_destructorINS_9allocatorINS_11__list_nodeI6one_muPvEEEEEEEERT_SA_
FNDA:4358,_ZNSt3__14__rvINS_10unique_ptrINS_11__list_nodeIN4cmDD8one_EoutEPvEENS_22__allocator_destructorINS_9allocatorIS6_EEEEEEEC2ERSB_
FNDA:1050445,_ZNSt3__1L9addressofINS_16__list_node_baseI13min_Eout_infoPvEEEEPT_RS5_
FNDA:2184,_ZNSt3__1L9addressofI11coef_vectorEEPT_RS2_
FNDA:57256,_ZNSt3__1L7forwardINS_22__allocator_destructorINS_9allocatorINS_11__list_nodeI21cumulative_prob_entryPvEEEEEEEERT_RNS_16remove_referenceIS9_E4typeE
FNDA:4016420,_ZNSt3__1L9addressofINS_16__list_node_baseI14one_joint_distPvEEEEPT_RS5_
FNDA:180386,_ZNSt3__1L9addressofI24standard_Legendre_vectorEEPT_RS2_
FNDA:28628,_ZNSt3__14__rvINS_10unique_ptrINS_11__list_nodeI21cumulative_prob_entryPvEENS_22__allocator_destructorINS_9allocatorIS5_EEEEEEEptEv
FNDA:1188949320,_ZNSt3__1L7forwardIP11Ein_Eta_HitEERT_RNS_16remove_referenceIS3_E4typeE
FNDA:144,_ZNSt3__1L4moveINS_22__allocator_destructorINS_9allocatorINS_11__list_nodeI11coef_vectorPvEEEEEEEERT_SA_
FNDA:186,_ZNSt3__14__rvINS_10unique_ptrINS_11__list_nodeI18cm_Legendre_vectorPvEENS_22__allocator_destructorINS_9allocatorIS5_EEEEEEEC1ERSA_
FNDA:19401,_ZNSt3__1L9addressofINS_16__list_node_baseI15Kalbach_one_EinPvEEEEPT_RS5_
FNDA:556,_ZNSt3__14__rvINS_10unique_ptrINS_11__list_nodeI24standard_Legendre_vectorPvEENS_22__allocator_destructorINS_9allocatorIS5_EEEEEEEC1ERSA_
FNDA:0,_ZNSt3__1L9addressofIK11Ein_entriesEEPT_RS3_
FNDA:15,_ZNSt3__1L4moveIPNS_11__list_nodeIN4cmDD14one_joint_distEPvEEEERT_S8_
FNDA:344,_ZNSt3__1L7forwardIPFiP7__sFILEEEERT_RNS_16remove_referenceIS5_E4typeE
FNDA:278,_ZNSt3__1L4moveINS_22__allocator_destructorINS_9allocatorINS_11__list_nodeI24standard_Legendre_vectorPvEEEEEEEERT_SA_
FNDA:90,_ZNSt3__1L7forwardIPNS_11__list_nodeIN4cmDD14one_joint_distEPvEEEERT_RNS_16remove_referenceIS7_E4typeE
FNDA:722425554,_ZNSt3__1L7forwardIPNS_11__list_nodeIN6quad_F12one_intervalEPvEEEERT_RNS_16remove_referenceIS7_E4typeE
FNDA:64992,_ZNSt3__1L7forwardINS_22__allocator_destructorINS_9allocatorINS_11__list_nodeI13weight_vectorPvEEEEEEEERT_RNS_16remove_referenceIS9_E4typeE
FNDA:7230,_ZNSt3__1L7forwardIPNS_11__list_nodeI6one_muPvEEEERT_RNS_16remove_referenceIS6_E4typeE
FNDA:46025,_ZNSt3__1L9addressofINS_16__list_node_baseI18cm_Legendre_vectorPvEEEEPT_RS5_
FNDA:1112,_ZNSt3__14__rvINS_10unique_ptrINS_11__list_nodeI24standard_Legendre_vectorPvEENS_22__allocator_destructorINS_9allocatorIS5_EEEEEEEptEv
FNDA:9640,_ZNSt3__1L7forwardINS_22__allocator_destructorINS_9allocatorINS_11__list_nodeI6one_muPvEEEEEEEERT_RNS_16remove_referenceIS9_E4typeE
FNDA:39366,_ZNSt3__1L9addressofIdEEPT_RS1_
FNDA:480,_ZNSt3__1L9addressofIK6one_muEEPT_RS3_
FNDA:756,_ZNSt3__1L7forwardIPNS_11__list_nodeI13min_Eout_infoPvEEEERT_RNS_16remove_referenceIS6_E4typeE
FNDA:30203,_ZNSt3__1L4moveIPNS_11__list_nodeI14Legendre_coefsPvEEEERT_S7_
FNDA:1310640,_ZNSt3__1L9addressofIKcEEPT_RS2_
FNDA:8124,_ZNSt3__1L4moveIPNS_11__list_nodeI13weight_vectorPvEEEERT_S7_
FNDA:608,_ZNSt3__1L7forwardINS_22__allocator_destructorINS_9allocatorINS_11__list_nodeI14one_joint_distPvEEEEEEEERT_RNS_16remove_referenceIS9_E4typeE
FNDA:160087,_ZNSt3__1L9addressofINS_16__list_node_baseI7ss_linkPvEEEEPT_RS5_
FNDA:144,_ZNSt3__1L4moveIPNS_11__list_nodeI11coef_vectorPvEEEERT_S7_
FNDA:209958,_ZNSt3__1L4moveI11Ein_Eta_HitEERT_S3_
FNDA:288,_ZNSt3__14__rvINS_10unique_ptrINS_11__list_nodeI11coef_vectorPvEENS_22__allocator_destructorINS_9allocatorIS5_EEEEEEEC2ERSA_
FNDA:8124,_ZNSt3__1L4moveINS_22__allocator_destructorINS_9allocatorINS_11__list_nodeI13weight_vectorPvEEEEEEEERT_SA_
FNDA:60406,_ZNSt3__14__rvINS_10unique_ptrINS_11__list_nodeI14Legendre_coefsPvEENS_22__allocator_destructorINS_9allocatorIS5_EEEEEEEC1ERSA_
FNDA:19683,_ZNSt3__1L4moveIPNS_11__list_nodeIdPvEEEERT_S6_
FNDA:22910122,_ZNSt3__1L9addressofINS_16__list_node_baseI11coef_vectorPvEEEEPT_RS5_
FNDA:172904688,_ZNSt3__1L7forwardINS_22__allocator_destructorINS_9allocatorINS_11__list_nodeI15Vcm_quadBox_HitPvEEEEEEEERT_RNS_16remove_referenceIS9_E4typeE
FNDA:0,_ZNSt3__1L4moveIP9Ein_entryEERT_S4_
FNDA:10328508,_ZNSt3__1L9addressofI8dd_entryEEPT_RS2_
FNDA:2410,_ZNSt3__14__rvINS_10unique_ptrINS_11__list_nodeI6one_muPvEENS_22__allocator_destructorINS_9allocatorIS5_EEEEEEEC1ERSA_
FNDA:9179597,_ZNSt3__1L9addressofINS_16__list_node_baseI6one_muPvEEEEPT_RS5_
FNDA:252,_ZNSt3__14__rvINS_10unique_ptrINS_11__list_nodeI13min_Eout_infoPvEENS_22__allocator_destructorINS_9allocatorIS5_EEEEEEEC1ERSA_
FNDA:1008,_ZNSt3__1L7forwardINS_22__allocator_destructorINS_9allocatorINS_11__list_nodeI13min_Eout_infoPvEEEEEEEERT_RNS_16remove_referenceIS9_E4typeE
FNDA:288,_ZNSt3__14__rvINS_10unique_ptrINS_11__list_nodeI11coef_vectorPvEENS_22__allocator_destructorINS_9allocatorIS5_EEEEEEEC1ERSA_
FNDA:130105,_ZNSt3__1L9addressofI14Legendre_coefsEEPT_RS2_
FNDA:3866,_ZNSt3__1L7forwardINS_9allocatorIcEEEERT_RNS_16remove_referenceIS3_E4typeE
